ARM GAS  /var/folders/47/g7cdn6zj55s1hhv4njp6x8_h0000gn/T//ccvNwyLg.s 			page 1


   1              		.syntax unified
   2              		.cpu cortex-m4
   3              		.eabi_attribute 27, 1
   4              		.eabi_attribute 28, 1
   5              		.fpu fpv4-sp-d16
   6              		.eabi_attribute 20, 1
   7              		.eabi_attribute 21, 1
   8              		.eabi_attribute 23, 3
   9              		.eabi_attribute 24, 1
  10              		.eabi_attribute 25, 1
  11              		.eabi_attribute 26, 1
  12              		.eabi_attribute 30, 2
  13              		.eabi_attribute 34, 1
  14              		.eabi_attribute 18, 4
  15              		.thumb
  16              		.file	"comm_can.c"
  17              		.text
  18              	.Ltext0:
  19              		.cfi_sections	.debug_frame
  20              		.section	.text.cancom_process_thread,"ax",%progbits
  21              		.align	2
  22              		.p2align 4,,15
  23              		.thumb
  24              		.thumb_func
  25              		.type	cancom_process_thread, %function
  26              	cancom_process_thread:
  27              	.LFB258:
  28              		.file 1 "comm_can.c"
  29              		.loc 1 137 0
  30              		.cfi_startproc
  31              		@ args = 0, pretend = 0, frame = 32
  32              		@ frame_needed = 0, uses_anonymous_args = 0
  33              	.LVL0:
  34 0000 2DE9F04F 		push	{r4, r5, r6, r7, r8, r9, r10, fp, lr}
  35              		.cfi_def_cfa_offset 36
  36              		.cfi_offset 4, -36
  37              		.cfi_offset 5, -32
  38              		.cfi_offset 6, -28
  39              		.cfi_offset 7, -24
  40              		.cfi_offset 8, -20
  41              		.cfi_offset 9, -16
  42              		.cfi_offset 10, -12
  43              		.cfi_offset 11, -8
  44              		.cfi_offset 14, -4
  45              	.LBB66:
  46              	.LBB67:
  47              		.file 2 "ChibiOS_3.0.2/os/rt/include/chregistry.h"
  48              		.loc 2 135 0
  49 0004 DFF80C83 		ldr	r8, .L42+40
  50 0008 B84A     		ldr	r2, .L42
  51 000a D8F81830 		ldr	r3, [r8, #24]
  52              	.LBE67:
  53              	.LBE66:
  54              		.loc 1 141 0
  55 000e B849     		ldr	r1, .L42+4
  56 0010 B84D     		ldr	r5, .L42+8
  57 0012 DFF804B3 		ldr	fp, .L42+44
ARM GAS  /var/folders/47/g7cdn6zj55s1hhv4njp6x8_h0000gn/T//ccvNwyLg.s 			page 2


  58 0016 B84F     		ldr	r7, .L42+12
  59 0018 DFF80093 		ldr	r9, .L42+48
  60 001c B74E     		ldr	r6, .L42+16
  61              		.loc 1 137 0
  62 001e 2DED088B 		fstmfdd	sp!, {d8, d9, d10, d11}
  63              		.cfi_def_cfa_offset 68
  64              		.cfi_offset 80, -68
  65              		.cfi_offset 81, -64
  66              		.cfi_offset 82, -60
  67              		.cfi_offset 83, -56
  68              		.cfi_offset 84, -52
  69              		.cfi_offset 85, -48
  70              		.cfi_offset 86, -44
  71              		.cfi_offset 87, -40
  72 0022 89B0     		sub	sp, sp, #36
  73              		.cfi_def_cfa_offset 104
  74              	.LBB69:
  75              	.LBB68:
  76              		.loc 2 135 0
  77 0024 9A61     		str	r2, [r3, #24]
  78              	.LBE68:
  79              	.LBE69:
  80              	.LBB70:
  81              	.LBB71:
  82              	.LBB72:
  83              		.loc 1 283 0
  84 0026 9FEDB68A 		flds	s16, .L42+20
  85              	.LBE72:
  86              	.LBB86:
  87              		.loc 1 210 0
  88 002a 9FEDB6BA 		flds	s22, .L42+24
  89              		.loc 1 182 0
  90 002e DFEDB68A 		flds	s17, .L42+28
  91              		.loc 1 173 0
  92 0032 DFEDB6AA 		flds	s21, .L42+32
  93              	.LBE86:
  94              	.LBE71:
  95              	.LBE70:
  96              		.loc 1 141 0
  97 0036 0B60     		str	r3, [r1]
  98              		.loc 1 143 0
  99 0038 0022     		movs	r2, #0
 100 003a 0292     		str	r2, [sp, #8]
 101              	.LVL1:
 102              	.L3:
 103              		.loc 1 151 0
 104 003c 0120     		movs	r0, #1
 105 003e FFF7FEFF 		bl	chEvtWaitAny
 106              	.LVL2:
 107              		.loc 1 153 0
 108 0042 D5F800E0 		ldr	lr, [r5]
 109 0046 DBF80030 		ldr	r3, [fp]
 110 004a 9E45     		cmp	lr, r3
 111 004c F6D0     		beq	.L3
 112              	.L30:
 113              	.LBB94:
 114              		.loc 1 154 0
ARM GAS  /var/folders/47/g7cdn6zj55s1hhv4njp6x8_h0000gn/T//ccvNwyLg.s 			page 3


 115 004e 0EEB8E04 		add	r4, lr, lr, lsl #2
 116 0052 07EB8404 		add	r4, r7, r4, lsl #2
 117 0056 0FCC     		ldmia	r4!, {r0, r1, r2, r3}
 118 0058 0DF10C0C 		add	ip, sp, #12
 119 005c ACE80F00 		stmia	ip!, {r0, r1, r2, r3}
 120              		.loc 1 156 0
 121 0060 9DF81020 		ldrb	r2, [sp, #16]	@ zero_extendqisi2
 122              		.loc 1 154 0
 123 0064 2368     		ldr	r3, [r4]
 124 0066 CCF80030 		str	r3, [ip]
 125              		.loc 1 156 0
 126 006a 9206     		lsls	r2, r2, #26
 127              		.loc 1 154 0
 128 006c 0EF10103 		add	r3, lr, #1
 129 0070 2B60     		str	r3, [r5]
 130              		.loc 1 156 0
 131 0072 29D5     		bpl	.L32
 132              	.LBB91:
 133              		.loc 1 157 0
 134 0074 059B     		ldr	r3, [sp, #20]
 135 0076 C3F31C03 		ubfx	r3, r3, #0, #29
 136 007a 5FFA83FA 		uxtb	r10, r3
 137              	.LVL3:
 138              		.loc 1 162 0
 139 007e BAF1FF0F 		cmp	r10, #255
 140              		.loc 1 158 0
 141 0082 4FEA2324 		asr	r4, r3, #8
 142              	.LVL4:
 143              		.loc 1 162 0
 144 0086 27D0     		beq	.L18
 145              		.loc 1 162 0 is_stmt 0 discriminator 1
 146 0088 FFF7FEFF 		bl	app_get_configuration
 147              	.LVL5:
 148 008c 0378     		ldrb	r3, [r0]	@ zero_extendqisi2
 149 008e 5345     		cmp	r3, r10
 150 0090 22D0     		beq	.L18
 151 0092 E3B2     		uxtb	r3, r4
 152              	.L6:
 153              		.loc 1 273 0 is_stmt 1
 154 0094 092B     		cmp	r3, #9
 155 0096 0DD1     		bne	.L20
 156 0098 0023     		movs	r3, #0
 157 009a 1C46     		mov	r4, r3
 158              	.LVL6:
 159              	.L28:
 160              	.LBB87:
 161              		.loc 1 277 0
 162 009c F158     		ldr	r1, [r6, r3]
 163 009e 8A45     		cmp	r10, r1
 164 00a0 03F11403 		add	r3, r3, #20
 165 00a4 00F03C81 		beq	.L27
 166              		.loc 1 277 0 is_stmt 0 discriminator 1
 167 00a8 0131     		adds	r1, r1, #1
 168 00aa 00F03981 		beq	.L27
 169              		.loc 1 275 0 is_stmt 1 discriminator 2
 170 00ae 0134     		adds	r4, r4, #1
 171              	.LVL7:
ARM GAS  /var/folders/47/g7cdn6zj55s1hhv4njp6x8_h0000gn/T//ccvNwyLg.s 			page 4


 172 00b0 0A2C     		cmp	r4, #10
 173 00b2 F3D1     		bne	.L28
 174              	.LVL8:
 175              	.L20:
 176 00b4 D5F800E0 		ldr	lr, [r5]
 177              	.L4:
 178              	.LBE87:
 179              	.LBE91:
 180              		.loc 1 294 0
 181 00b8 BEF1640F 		cmp	lr, #100
 182 00bc 08D0     		beq	.L41
 183              	.L29:
 184              	.LBE94:
 185              		.loc 1 153 0
 186 00be DBF80030 		ldr	r3, [fp]
 187 00c2 7345     		cmp	r3, lr
 188 00c4 C3D1     		bne	.L30
 189 00c6 B9E7     		b	.L3
 190              	.L32:
 191              	.LBB95:
 192              	.LBB92:
 193 00c8 9E46     		mov	lr, r3
 194              	.LBE92:
 195              		.loc 1 294 0
 196 00ca BEF1640F 		cmp	lr, #100
 197 00ce F6D1     		bne	.L29
 198              	.L41:
 199              		.loc 1 295 0
 200 00d0 0023     		movs	r3, #0
 201 00d2 2B60     		str	r3, [r5]
 202 00d4 9E46     		mov	lr, r3
 203 00d6 F2E7     		b	.L29
 204              	.LVL9:
 205              	.L18:
 206              	.LBB93:
 207              		.loc 1 163 0
 208 00d8 E3B2     		uxtb	r3, r4
 209 00da 0A2B     		cmp	r3, #10
 210 00dc DAD8     		bhi	.L6
 211 00de 01A2     		adr	r2, .L8
 212 00e0 52F823F0 		ldr	pc, [r2, r3, lsl #2]
 213              		.p2align 2
 214              	.L8:
 215 00e4 67020000 		.word	.L7+1
 216 00e8 45020000 		.word	.L9+1
 217 00ec A7020000 		.word	.L10+1
 218 00f0 89020000 		.word	.L11+1
 219 00f4 C9020000 		.word	.L12+1
 220 00f8 29020000 		.word	.L13+1
 221 00fc FD010000 		.word	.L14+1
 222 0100 9D010000 		.word	.L15+1
 223 0104 73010000 		.word	.L16+1
 224 0108 95000000 		.word	.L6+1
 225 010c 11010000 		.word	.L17+1
 226              		.p2align 1
 227              	.L17:
 228              	.LBB88:
ARM GAS  /var/folders/47/g7cdn6zj55s1hhv4njp6x8_h0000gn/T//ccvNwyLg.s 			page 5


 229              		.loc 1 167 0
 230 0110 0023     		movs	r3, #0
 231              		.loc 1 168 0
 232 0112 02A9     		add	r1, sp, #8
 233 0114 06A8     		add	r0, sp, #24
 234              		.loc 1 167 0
 235 0116 0293     		str	r3, [sp, #8]
 236              		.loc 1 168 0
 237 0118 FFF7FEFF 		bl	buffer_get_int16
 238              	.LVL10:
 239              		.loc 1 169 0
 240 011c 02A9     		add	r1, sp, #8
 241              		.loc 1 168 0
 242 011e 0BEE900A 		fmsr	s23, r0	@ int
 243              	.LVL11:
 244              		.loc 1 169 0
 245 0122 06A8     		add	r0, sp, #24
 246              	.LVL12:
 247 0124 FFF7FEFF 		bl	buffer_get_int16
 248              	.LVL13:
 249              		.loc 1 170 0
 250 0128 02A9     		add	r1, sp, #8
 251              		.loc 1 169 0
 252 012a 0AEE100A 		fmsr	s20, r0	@ int
 253              	.LVL14:
 254              		.loc 1 170 0
 255 012e 06A8     		add	r0, sp, #24
 256              	.LVL15:
 257 0130 FFF7FEFF 		bl	buffer_get_int16
 258              	.LVL16:
 259              		.loc 1 173 0
 260 0134 02A9     		add	r1, sp, #8
 261              		.loc 1 170 0
 262 0136 09EE900A 		fmsr	s19, r0	@ int
 263              	.LVL17:
 264              		.loc 1 173 0
 265 013a 06A8     		add	r0, sp, #24
 266              	.LVL18:
 267 013c FFF7FEFF 		bl	buffer_get_int16
 268              	.LVL19:
 269              		.loc 1 168 0
 270 0140 B8EEEB0A 		fsitos	s0, s23
 271              		.loc 1 169 0
 272 0144 F8EECA0A 		fsitos	s1, s20
 273              		.loc 1 170 0
 274 0148 B8EEE91A 		fsitos	s2, s19
 275              		.loc 1 173 0
 276 014c 09EE100A 		fmsr	s18, r0	@ int
 277              	.LVL20:
 278              		.loc 1 175 0
 279 0150 80EE280A 		fdivs	s0, s0, s17
 280 0154 C0EEA80A 		fdivs	s1, s1, s17
 281 0158 81EE281A 		fdivs	s2, s2, s17
 282 015c FFF7FEFF 		bl	mc_interface_set_position_pid_constants
 283              	.LVL21:
 284              		.loc 1 173 0
 285 0160 B8EEC90A 		fsitos	s0, s18
ARM GAS  /var/folders/47/g7cdn6zj55s1hhv4njp6x8_h0000gn/T//ccvNwyLg.s 			page 6


 286              		.loc 1 176 0
 287 0164 80EE2A0A 		fdivs	s0, s0, s21
 288 0168 FFF7FEFF 		bl	mc_interface_set_pid_pos
 289              	.LVL22:
 290              		.loc 1 177 0
 291 016c FFF7FEFF 		bl	timeout_reset
 292              	.LVL23:
 293              		.loc 1 178 0
 294 0170 A0E7     		b	.L20
 295              	.LVL24:
 296              	.L16:
 297              		.loc 1 257 0
 298 0172 9DF81820 		ldrb	r2, [sp, #24]	@ zero_extendqisi2
 299              		.loc 1 260 0
 300 0176 9DF81930 		ldrb	r3, [sp, #25]	@ zero_extendqisi2
 301              		.loc 1 257 0
 302 017a C9F80020 		str	r2, [r9]
 303              		.loc 1 258 0
 304 017e 0222     		movs	r2, #2
 305 0180 0292     		str	r2, [sp, #8]
 306              	.LVL25:
 307              		.loc 1 260 0
 308 0182 002B     		cmp	r3, #0
 309 0184 00F00381 		beq	.L23
 310              		.loc 1 261 0
 311 0188 9DF81010 		ldrb	r1, [sp, #16]	@ zero_extendqisi2
 312 018c 01F00F01 		and	r1, r1, #15
 313 0190 0239     		subs	r1, r1, #2
 314 0192 0DF11A00 		add	r0, sp, #26
 315 0196 FFF7FEFF 		bl	commands_send_packet
 316              	.LVL26:
 317 019a 8BE7     		b	.L20
 318              	.L15:
 319              		.loc 1 233 0
 320 019c 9DF81B30 		ldrb	r3, [sp, #27]	@ zero_extendqisi2
 321              		.loc 1 232 0
 322 01a0 9DF81A40 		ldrb	r4, [sp, #26]	@ zero_extendqisi2
 323              	.LVL27:
 324              		.loc 1 230 0
 325 01a4 9DF81820 		ldrb	r2, [sp, #24]	@ zero_extendqisi2
 326 01a8 C9F80020 		str	r2, [r9]
 327              		.loc 1 233 0
 328 01ac 43EA0424 		orr	r4, r3, r4, lsl #8
 329              		.loc 1 235 0
 330 01b0 B4F5806F 		cmp	r4, #1024
 331              		.loc 1 233 0
 332 01b4 4FF00403 		mov	r3, #4
 333 01b8 0293     		str	r3, [sp, #8]
 334              		.loc 1 231 0
 335 01ba 9DF819A0 		ldrb	r10, [sp, #25]	@ zero_extendqisi2
 336              	.LVL28:
 337              		.loc 1 235 0
 338 01be 3FF679AF 		bhi	.L20
 339              		.loc 1 240 0
 340 01c2 0622     		movs	r2, #6
 341              		.loc 1 239 0
 342 01c4 9DF81CC0 		ldrb	ip, [sp, #28]	@ zero_extendqisi2
ARM GAS  /var/folders/47/g7cdn6zj55s1hhv4njp6x8_h0000gn/T//ccvNwyLg.s 			page 7


 343              		.loc 1 240 0
 344 01c8 0292     		str	r2, [sp, #8]
 345              		.loc 1 242 0
 346 01ca 5148     		ldr	r0, .L42+36
 347              		.loc 1 240 0
 348 01cc 9DF81D20 		ldrb	r2, [sp, #29]	@ zero_extendqisi2
 349              		.loc 1 239 0
 350 01d0 CDF804C0 		str	ip, [sp, #4]
 351              	.LVL29:
 352              		.loc 1 242 0
 353 01d4 2146     		mov	r1, r4
 354              		.loc 1 240 0
 355 01d6 0092     		str	r2, [sp]
 356              	.LVL30:
 357              		.loc 1 242 0
 358 01d8 FFF7FEFF 		bl	crc16
 359              	.LVL31:
 360              		.loc 1 244 0
 361 01dc 9DE80410 		ldmia	sp, {r2, ip}
 362 01e0 42EA0C22 		orr	r2, r2, ip, lsl #8
 363              		.loc 1 242 0
 364 01e4 9042     		cmp	r0, r2
 365 01e6 7FF465AF 		bne	.L20
 366              		.loc 1 246 0
 367 01ea BAF1000F 		cmp	r10, #0
 368 01ee 00F0DD80 		beq	.L22
 369              		.loc 1 247 0
 370 01f2 2146     		mov	r1, r4
 371 01f4 4648     		ldr	r0, .L42+36
 372 01f6 FFF7FEFF 		bl	commands_send_packet
 373              	.LVL32:
 374 01fa 5BE7     		b	.L20
 375              	.LVL33:
 376              	.L14:
 377              		.loc 1 221 0
 378 01fc 9DF81800 		ldrb	r0, [sp, #24]	@ zero_extendqisi2
 379              	.LVL34:
 380              		.loc 1 222 0
 381 0200 9DF81930 		ldrb	r3, [sp, #25]	@ zero_extendqisi2
 382 0204 43EA0020 		orr	r0, r3, r0, lsl #8
 383              	.LVL35:
 384              		.loc 1 223 0
 385 0208 B0F5806F 		cmp	r0, #1024
 386 020c BFF452AF 		bcs	.L20
 387              		.loc 1 224 0
 388 0210 9DF81020 		ldrb	r2, [sp, #16]	@ zero_extendqisi2
 389 0214 3E4B     		ldr	r3, .L42+36
 390 0216 02F00F02 		and	r2, r2, #15
 391 021a 1844     		add	r0, r0, r3
 392              	.LVL36:
 393 021c 023A     		subs	r2, r2, #2
 394 021e 0DF11A01 		add	r1, sp, #26
 395 0222 FFF7FEFF 		bl	memcpy
 396              	.LVL37:
 397 0226 45E7     		b	.L20
 398              	.L13:
 399              		.loc 1 217 0
ARM GAS  /var/folders/47/g7cdn6zj55s1hhv4njp6x8_h0000gn/T//ccvNwyLg.s 			page 8


 400 0228 9DF81020 		ldrb	r2, [sp, #16]	@ zero_extendqisi2
 401 022c 9DF81800 		ldrb	r0, [sp, #24]	@ zero_extendqisi2
 402 0230 374B     		ldr	r3, .L42+36
 403 0232 02F00F02 		and	r2, r2, #15
 404 0236 013A     		subs	r2, r2, #1
 405 0238 1844     		add	r0, r0, r3
 406 023a 0DF11901 		add	r1, sp, #25
 407 023e FFF7FEFF 		bl	memcpy
 408              	.LVL38:
 409              		.loc 1 218 0
 410 0242 37E7     		b	.L20
 411              	.L9:
 412              		.loc 1 187 0
 413 0244 0023     		movs	r3, #0
 414              		.loc 1 188 0
 415 0246 02A9     		add	r1, sp, #8
 416 0248 06A8     		add	r0, sp, #24
 417              		.loc 1 187 0
 418 024a 0293     		str	r3, [sp, #8]
 419              		.loc 1 188 0
 420 024c FFF7FEFF 		bl	buffer_get_int32
 421              	.LVL39:
 422 0250 07EE900A 		fmsr	s15, r0	@ int
 423 0254 B8EEE70A 		fsitos	s0, s15
 424 0258 80EE080A 		fdivs	s0, s0, s16
 425 025c FFF7FEFF 		bl	mc_interface_set_current
 426              	.LVL40:
 427              		.loc 1 189 0
 428 0260 FFF7FEFF 		bl	timeout_reset
 429              	.LVL41:
 430              		.loc 1 190 0
 431 0264 26E7     		b	.L20
 432              	.L7:
 433              		.loc 1 181 0
 434 0266 0023     		movs	r3, #0
 435              		.loc 1 182 0
 436 0268 02A9     		add	r1, sp, #8
 437 026a 06A8     		add	r0, sp, #24
 438              		.loc 1 181 0
 439 026c 0293     		str	r3, [sp, #8]
 440              		.loc 1 182 0
 441 026e FFF7FEFF 		bl	buffer_get_int32
 442              	.LVL42:
 443 0272 07EE900A 		fmsr	s15, r0	@ int
 444 0276 B8EEE70A 		fsitos	s0, s15
 445 027a 80EE280A 		fdivs	s0, s0, s17
 446 027e FFF7FEFF 		bl	mc_interface_set_duty
 447              	.LVL43:
 448              		.loc 1 183 0
 449 0282 FFF7FEFF 		bl	timeout_reset
 450              	.LVL44:
 451              		.loc 1 184 0
 452 0286 15E7     		b	.L20
 453              	.L11:
 454              		.loc 1 199 0
 455 0288 0023     		movs	r3, #0
 456              		.loc 1 200 0
ARM GAS  /var/folders/47/g7cdn6zj55s1hhv4njp6x8_h0000gn/T//ccvNwyLg.s 			page 9


 457 028a 02A9     		add	r1, sp, #8
 458 028c 06A8     		add	r0, sp, #24
 459              		.loc 1 199 0
 460 028e 0293     		str	r3, [sp, #8]
 461              		.loc 1 200 0
 462 0290 FFF7FEFF 		bl	buffer_get_int32
 463              	.LVL45:
 464 0294 07EE900A 		fmsr	s15, r0	@ int
 465 0298 B8EEE70A 		fsitos	s0, s15
 466 029c FFF7FEFF 		bl	mc_interface_set_pid_speed
 467              	.LVL46:
 468              		.loc 1 201 0
 469 02a0 FFF7FEFF 		bl	timeout_reset
 470              	.LVL47:
 471              		.loc 1 202 0
 472 02a4 06E7     		b	.L20
 473              	.L10:
 474              		.loc 1 193 0
 475 02a6 0023     		movs	r3, #0
 476              		.loc 1 194 0
 477 02a8 02A9     		add	r1, sp, #8
 478 02aa 06A8     		add	r0, sp, #24
 479              		.loc 1 193 0
 480 02ac 0293     		str	r3, [sp, #8]
 481              		.loc 1 194 0
 482 02ae FFF7FEFF 		bl	buffer_get_int32
 483              	.LVL48:
 484 02b2 07EE900A 		fmsr	s15, r0	@ int
 485 02b6 B8EEE70A 		fsitos	s0, s15
 486 02ba 80EE080A 		fdivs	s0, s0, s16
 487 02be FFF7FEFF 		bl	mc_interface_set_brake_current
 488              	.LVL49:
 489              		.loc 1 195 0
 490 02c2 FFF7FEFF 		bl	timeout_reset
 491              	.LVL50:
 492              		.loc 1 196 0
 493 02c6 F5E6     		b	.L20
 494              	.L12:
 495              		.loc 1 209 0
 496 02c8 0023     		movs	r3, #0
 497              		.loc 1 210 0
 498 02ca 02A9     		add	r1, sp, #8
 499 02cc 06A8     		add	r0, sp, #24
 500              		.loc 1 209 0
 501 02ce 0293     		str	r3, [sp, #8]
 502              		.loc 1 210 0
 503 02d0 FFF7FEFF 		bl	buffer_get_int32
 504              	.LVL51:
 505 02d4 07EE900A 		fmsr	s15, r0	@ int
 506 02d8 B8EEE70A 		fsitos	s0, s15
 507 02dc 80EE0B0A 		fdivs	s0, s0, s22
 508 02e0 FFF7FEFF 		bl	mc_interface_set_pid_pos
 509              	.LVL52:
 510              		.loc 1 213 0
 511 02e4 FFF7FEFF 		bl	timeout_reset
 512              	.LVL53:
 513              		.loc 1 214 0
ARM GAS  /var/folders/47/g7cdn6zj55s1hhv4njp6x8_h0000gn/T//ccvNwyLg.s 			page 10


 514 02e8 E4E6     		b	.L20
 515              	.L43:
 516 02ea 00BF     		.align	2
 517              	.L42:
 518 02ec 00000000 		.word	.LC0
 519 02f0 00000000 		.word	.LANCHOR0
 520 02f4 00000000 		.word	.LANCHOR1
 521 02f8 00000000 		.word	.LANCHOR3
 522 02fc 00000000 		.word	.LANCHOR6
 523 0300 00007A44 		.word	1148846080
 524 0304 00247449 		.word	1232348160
 525 0308 0050C347 		.word	1203982336
 526 030c 00004842 		.word	1112014848
 527 0310 00000000 		.word	.LANCHOR4
 528 0314 00000000 		.word	ch
 529 0318 00000000 		.word	.LANCHOR2
 530 031c 00000000 		.word	.LANCHOR5
 531              	.LVL54:
 532              	.L27:
 533              	.LBE88:
 534              	.LBB89:
 535              		.loc 1 279 0
 536 0320 04EB8404 		add	r4, r4, r4, lsl #2
 537              	.LVL55:
 538              		.loc 1 278 0
 539 0324 0023     		movs	r3, #0
 540              		.loc 1 279 0
 541 0326 46F824A0 		str	r10, [r6, r4, lsl #2]
 542              	.LVL56:
 543              		.loc 1 278 0
 544 032a 0293     		str	r3, [sp, #8]
 545              		.loc 1 279 0
 546 032c 06EB8404 		add	r4, r6, r4, lsl #2
 547              	.LBB73:
 548              	.LBB74:
 549              	.LBB75:
 550              	.LBB76:
 551              	.LBB77:
 552              	.LBB78:
 553              		.file 3 "ChibiOS_3.0.2/os/ext/CMSIS/include/core_cmFunc.h"
 554              		.loc 3 546 0
 555 0330 2022     		movs	r2, #32
 556              	@ 546 "ChibiOS_3.0.2/os/ext/CMSIS/include/core_cmFunc.h" 1
 557 0332 82F31188 		MSR basepri, r2
 558              	@ 0 "" 2
 559              		.thumb
 560              	.LBE78:
 561              	.LBE77:
 562              	.LBE76:
 563              	.LBE75:
 564              	.LBB79:
 565              	.LBB80:
 566              		.file 4 "ChibiOS_3.0.2/os/rt/include/chvt.h"
 567              		.loc 4 231 0
 568 0336 D8F82820 		ldr	r2, [r8, #40]
 569              	.LVL57:
 570              	.LBE80:
ARM GAS  /var/folders/47/g7cdn6zj55s1hhv4njp6x8_h0000gn/T//ccvNwyLg.s 			page 11


 571              	.LBE79:
 572              	.LBB81:
 573              	.LBB82:
 574              	.LBB83:
 575              	.LBB84:
 576              	.LBB85:
 577              		.loc 3 546 0
 578              	@ 546 "ChibiOS_3.0.2/os/ext/CMSIS/include/core_cmFunc.h" 1
 579 033a 83F31188 		MSR basepri, r3
 580              	@ 0 "" 2
 581              		.thumb
 582              	.LBE85:
 583              	.LBE84:
 584              	.LBE83:
 585              	.LBE82:
 586              	.LBE81:
 587              	.LBE74:
 588              	.LBE73:
 589              		.loc 1 280 0
 590 033e 6260     		str	r2, [r4, #4]
 591              		.loc 1 281 0
 592 0340 02A9     		add	r1, sp, #8
 593 0342 06A8     		add	r0, sp, #24
 594 0344 FFF7FEFF 		bl	buffer_get_int32
 595              	.LVL58:
 596 0348 07EE900A 		fmsr	s15, r0	@ int
 597 034c F8EEE77A 		fsitos	s15, s15
 598              		.loc 1 282 0
 599 0350 02A9     		add	r1, sp, #8
 600              		.loc 1 281 0
 601 0352 C4ED027A 		fsts	s15, [r4, #8]
 602              		.loc 1 282 0
 603 0356 06A8     		add	r0, sp, #24
 604 0358 FFF7FEFF 		bl	buffer_get_int16
 605              	.LVL59:
 606 035c 07EE900A 		fmsr	s15, r0	@ int
 607 0360 F8EEE77A 		fsitos	s15, s15
 608 0364 B2EE047A 		fconsts	s14, #36
 609 0368 C7EE877A 		fdivs	s15, s15, s14
 610              		.loc 1 283 0
 611 036c 06A8     		add	r0, sp, #24
 612 036e 02A9     		add	r1, sp, #8
 613              		.loc 1 282 0
 614 0370 C4ED037A 		fsts	s15, [r4, #12]
 615              		.loc 1 283 0
 616 0374 FFF7FEFF 		bl	buffer_get_int16
 617              	.LVL60:
 618 0378 07EE900A 		fmsr	s15, r0	@ int
 619 037c F8EEE77A 		fsitos	s15, s15
 620 0380 D5F800E0 		ldr	lr, [r5]
 621 0384 C7EE887A 		fdivs	s15, s15, s16
 622 0388 C4ED047A 		fsts	s15, [r4, #16]
 623              		.loc 1 284 0
 624 038c 94E6     		b	.L4
 625              	.LVL61:
 626              	.L23:
 627              	.LBE89:
ARM GAS  /var/folders/47/g7cdn6zj55s1hhv4njp6x8_h0000gn/T//ccvNwyLg.s 			page 12


 628              	.LBB90:
 629              		.loc 1 263 0
 630 038e 0B48     		ldr	r0, .L44
 631 0390 FFF7FEFF 		bl	commands_set_send_func
 632              	.LVL62:
 633              		.loc 1 264 0
 634 0394 0299     		ldr	r1, [sp, #8]
 635 0396 9DF81030 		ldrb	r3, [sp, #16]	@ zero_extendqisi2
 636 039a 03AA     		add	r2, sp, #12
 637 039c 5018     		adds	r0, r2, r1
 638 039e 03F00F03 		and	r3, r3, #15
 639 03a2 0C30     		adds	r0, r0, #12
 640 03a4 591A     		subs	r1, r3, r1
 641 03a6 FFF7FEFF 		bl	commands_process_packet
 642              	.LVL63:
 643 03aa 83E6     		b	.L20
 644              	.LVL64:
 645              	.L22:
 646              		.loc 1 249 0
 647 03ac 0348     		ldr	r0, .L44
 648 03ae FFF7FEFF 		bl	commands_set_send_func
 649              	.LVL65:
 650              		.loc 1 250 0
 651 03b2 2146     		mov	r1, r4
 652 03b4 0248     		ldr	r0, .L44+4
 653 03b6 FFF7FEFF 		bl	commands_process_packet
 654              	.LVL66:
 655 03ba 7BE6     		b	.L20
 656              	.L45:
 657              		.align	2
 658              	.L44:
 659 03bc 00000000 		.word	send_packet_wrapper
 660 03c0 00000000 		.word	.LANCHOR4
 661              	.LBE90:
 662              	.LBE93:
 663              	.LBE95:
 664              		.cfi_endproc
 665              	.LFE258:
 666              		.size	cancom_process_thread, .-cancom_process_thread
 667              		.section	.text.cancom_read_thread,"ax",%progbits
 668              		.align	2
 669              		.p2align 4,,15
 670              		.thumb
 671              		.thumb_func
 672              		.type	cancom_read_thread, %function
 673              	cancom_read_thread:
 674              	.LFB257:
 675              		.loc 1 106 0
 676              		.cfi_startproc
 677              		@ args = 0, pretend = 0, frame = 40
 678              		@ frame_needed = 0, uses_anonymous_args = 0
 679              	.LVL67:
 680 0000 2DE9F043 		push	{r4, r5, r6, r7, r8, r9, lr}
 681              		.cfi_def_cfa_offset 28
 682              		.cfi_offset 4, -28
 683              		.cfi_offset 5, -24
 684              		.cfi_offset 6, -20
ARM GAS  /var/folders/47/g7cdn6zj55s1hhv4njp6x8_h0000gn/T//ccvNwyLg.s 			page 13


 685              		.cfi_offset 7, -16
 686              		.cfi_offset 8, -12
 687              		.cfi_offset 9, -8
 688              		.cfi_offset 14, -4
 689              	.LBB96:
 690              	.LBB97:
 691              		.loc 2 135 0
 692 0004 DFF8B880 		ldr	r8, .L60+20
 693 0008 284A     		ldr	r2, .L60
 694 000a D8F81830 		ldr	r3, [r8, #24]
 695              	.LBE97:
 696              	.LBE96:
 697              	.LBB99:
 698              	.LBB100:
 699              	.LBB101:
 700              		.file 5 "ChibiOS_3.0.2/os/rt/include/chevents.h"
 701              		.loc 5 193 0
 702 000e 2848     		ldr	r0, .L60+4
 703              	.LVL68:
 704              	.LBE101:
 705              	.LBE100:
 706              	.LBE99:
 707              	.LBB104:
 708              	.LBB98:
 709              		.loc 2 135 0
 710 0010 9A61     		str	r2, [r3, #24]
 711              	.LVL69:
 712              	.LBE98:
 713              	.LBE104:
 714              		.loc 1 106 0
 715 0012 8BB0     		sub	sp, sp, #44
 716              		.cfi_def_cfa_offset 72
 717              	.LVL70:
 718              	.LBB105:
 719              	.LBB103:
 720              	.LBB102:
 721              		.loc 5 193 0
 722 0014 6946     		mov	r1, sp
 723 0016 0122     		movs	r2, #1
 724 0018 4FF0FF33 		mov	r3, #-1
 725 001c FFF7FEFF 		bl	chEvtRegisterMaskWithFlags
 726              	.LVL71:
 727 0020 DFF8A090 		ldr	r9, .L60+24
 728              	.L48:
 729              	.LBE102:
 730              	.LBE103:
 731              	.LBE105:
 732              	.LBB106:
 733              	.LBB107:
 734              		.file 6 "ChibiOS_3.0.2/os/rt/include/chthreads.h"
 735              		.loc 6 233 0
 736 0024 D8F81830 		ldr	r3, [r8, #24]
 737 0028 5B7F     		ldrb	r3, [r3, #29]	@ zero_extendqisi2
 738 002a 03F00403 		and	r3, r3, #4
 739              	.LBE107:
 740              	.LBE106:
 741              		.loc 1 115 0
ARM GAS  /var/folders/47/g7cdn6zj55s1hhv4njp6x8_h0000gn/T//ccvNwyLg.s 			page 14


 742 002e 03F0FF04 		and	r4, r3, #255
 743 0032 002B     		cmp	r3, #0
 744 0034 33D1     		bne	.L59
 745              	.LBB108:
 746              		.loc 1 116 0
 747 0036 4FF0FF30 		mov	r0, #-1
 748 003a 6421     		movs	r1, #100
 749 003c FFF7FEFF 		bl	chEvtWaitAnyTimeout
 750              	.LVL72:
 751 0040 0028     		cmp	r0, #0
 752 0042 EFD0     		beq	.L48
 753              		.loc 1 120 0
 754 0044 05AA     		add	r2, sp, #20
 755 0046 1B48     		ldr	r0, .L60+8
 756 0048 2146     		mov	r1, r4
 757 004a 2346     		mov	r3, r4
 758 004c FFF7FEFF 		bl	canReceive
 759              	.LVL73:
 760              		.loc 1 122 0
 761 0050 0028     		cmp	r0, #0
 762 0052 E7D1     		bne	.L48
 763 0054 184F     		ldr	r7, .L60+12
 764 0056 194E     		ldr	r6, .L60+16
 765              	.L49:
 766              	.LVL74:
 767              		.loc 1 123 0
 768 0058 D9F80050 		ldr	r5, [r9]
 769 005c 05AC     		add	r4, sp, #20
 770 005e 0FCC     		ldmia	r4!, {r0, r1, r2, r3}
 771 0060 D4F800E0 		ldr	lr, [r4]
 772 0064 05EB8504 		add	r4, r5, r5, lsl #2
 773 0068 07EB8404 		add	r4, r7, r4, lsl #2
 774 006c 0FC4     		stmia	r4!, {r0, r1, r2, r3}
 775              		.loc 1 128 0
 776 006e 0121     		movs	r1, #1
 777              		.loc 1 123 0
 778 0070 0D44     		add	r5, r5, r1
 779              		.loc 1 124 0
 780 0072 642D     		cmp	r5, #100
 781              		.loc 1 125 0
 782 0074 08BF     		it	eq
 783 0076 0023     		moveq	r3, #0
 784              		.loc 1 128 0
 785 0078 3068     		ldr	r0, [r6]
 786              		.loc 1 123 0
 787 007a C9F80050 		str	r5, [r9]
 788 007e C4F800E0 		str	lr, [r4]
 789              		.loc 1 125 0
 790 0082 08BF     		it	eq
 791 0084 C9F80030 		streq	r3, [r9]
 792              		.loc 1 128 0
 793 0088 FFF7FEFF 		bl	chEvtSignal
 794              	.LVL75:
 795              		.loc 1 130 0
 796 008c 0021     		movs	r1, #0
 797 008e 0B46     		mov	r3, r1
 798 0090 0848     		ldr	r0, .L60+8
ARM GAS  /var/folders/47/g7cdn6zj55s1hhv4njp6x8_h0000gn/T//ccvNwyLg.s 			page 15


 799 0092 05AA     		add	r2, sp, #20
 800 0094 FFF7FEFF 		bl	canReceive
 801              	.LVL76:
 802              		.loc 1 122 0
 803 0098 0028     		cmp	r0, #0
 804 009a DDD0     		beq	.L49
 805 009c C2E7     		b	.L48
 806              	.LVL77:
 807              	.L59:
 808              	.LBE108:
 809              		.loc 1 134 0
 810 009e 6946     		mov	r1, sp
 811 00a0 0348     		ldr	r0, .L60+4
 812              	.LVL78:
 813 00a2 FFF7FEFF 		bl	chEvtUnregister
 814              	.LVL79:
 815              		.loc 1 135 0
 816 00a6 0BB0     		add	sp, sp, #44
 817              		.cfi_def_cfa_offset 28
 818              	.LVL80:
 819              		@ sp needed
 820 00a8 BDE8F083 		pop	{r4, r5, r6, r7, r8, r9, pc}
 821              	.LVL81:
 822              	.L61:
 823              		.align	2
 824              	.L60:
 825 00ac 10000000 		.word	.LC1
 826 00b0 18000000 		.word	CAND1+24
 827 00b4 00000000 		.word	CAND1
 828 00b8 00000000 		.word	.LANCHOR3
 829 00bc 00000000 		.word	.LANCHOR0
 830 00c0 00000000 		.word	ch
 831 00c4 00000000 		.word	.LANCHOR2
 832              		.cfi_endproc
 833              	.LFE257:
 834              		.size	cancom_read_thread, .-cancom_read_thread
 835              		.section	.text.comm_can_init,"ax",%progbits
 836              		.align	2
 837              		.p2align 4,,15
 838              		.global	comm_can_init
 839              		.thumb
 840              		.thumb_func
 841              		.type	comm_can_init, %function
 842              	comm_can_init:
 843              	.LFB256:
 844              		.loc 1 77 0
 845              		.cfi_startproc
 846              		@ args = 0, pretend = 0, frame = 0
 847              		@ frame_needed = 0, uses_anonymous_args = 0
 848              	.LVL82:
 849 0000 1E49     		ldr	r1, .L66
 850 0002 0023     		movs	r3, #0
 851              	.LBB109:
 852              		.loc 1 79 0
 853 0004 4FF0FF32 		mov	r2, #-1
 854              	.LVL83:
 855              	.L63:
ARM GAS  /var/folders/47/g7cdn6zj55s1hhv4njp6x8_h0000gn/T//ccvNwyLg.s 			page 16


 856              		.loc 1 79 0 is_stmt 0 discriminator 3
 857 0008 CA50     		str	r2, [r1, r3]
 858 000a 1433     		adds	r3, r3, #20
 859              		.loc 1 78 0 is_stmt 1 discriminator 3
 860 000c C82B     		cmp	r3, #200
 861 000e FBD1     		bne	.L63
 862              	.LBE109:
 863              		.loc 1 77 0
 864 0010 10B5     		push	{r4, lr}
 865              		.cfi_def_cfa_offset 8
 866              		.cfi_offset 4, -8
 867              		.cfi_offset 14, -4
 868              		.loc 1 83 0
 869 0012 1B4B     		ldr	r3, .L66+4
 870              		.loc 1 82 0
 871 0014 1B4A     		ldr	r2, .L66+8
 872              		.loc 1 85 0
 873 0016 1C48     		ldr	r0, .L66+12
 874              		.loc 1 77 0
 875 0018 82B0     		sub	sp, sp, #8
 876              		.cfi_def_cfa_offset 16
 877              		.loc 1 82 0
 878 001a 0024     		movs	r4, #0
 879              		.loc 1 83 0
 880 001c 1C60     		str	r4, [r3]
 881              		.loc 1 82 0
 882 001e 1460     		str	r4, [r2]
 883              		.loc 1 85 0
 884 0020 FFF7FEFF 		bl	chMtxObjectInit
 885              	.LVL84:
 886              		.loc 1 87 0
 887 0024 1948     		ldr	r0, .L66+16
 888 0026 4FF48071 		mov	r1, #256
 889 002a 40F28A42 		movw	r2, #1162
 890 002e FFF7FEFF 		bl	_pal_lld_setgroupmode
 891              	.LVL85:
 892              		.loc 1 91 0
 893 0032 40F28A42 		movw	r2, #1162
 894 0036 1548     		ldr	r0, .L66+16
 895 0038 4FF40071 		mov	r1, #512
 896 003c FFF7FEFF 		bl	_pal_lld_setgroupmode
 897              	.LVL86:
 898              		.loc 1 96 0
 899 0040 1348     		ldr	r0, .L66+20
 900 0042 1449     		ldr	r1, .L66+24
 901 0044 FFF7FEFF 		bl	canStart
 902              	.LVL87:
 903              		.loc 1 98 0
 904 0048 0094     		str	r4, [sp]
 905 004a 134B     		ldr	r3, .L66+28
 906 004c 1348     		ldr	r0, .L66+32
 907 004e 4FF46671 		mov	r1, #920
 908 0052 4122     		movs	r2, #65
 909 0054 FFF7FEFF 		bl	chThdCreateStatic
 910              	.LVL88:
 911              		.loc 1 100 0
 912 0058 0094     		str	r4, [sp]
ARM GAS  /var/folders/47/g7cdn6zj55s1hhv4njp6x8_h0000gn/T//ccvNwyLg.s 			page 17


 913 005a 114B     		ldr	r3, .L66+36
 914 005c 1148     		ldr	r0, .L66+40
 915 005e 4FF4B361 		mov	r1, #1432
 916 0062 4022     		movs	r2, #64
 917 0064 FFF7FEFF 		bl	chThdCreateStatic
 918              	.LVL89:
 919              		.loc 1 102 0
 920 0068 0094     		str	r4, [sp]
 921 006a 0F4B     		ldr	r3, .L66+44
 922 006c 0F48     		ldr	r0, .L66+48
 923 006e 41F29811 		movw	r1, #4504
 924 0072 4022     		movs	r2, #64
 925 0074 FFF7FEFF 		bl	chThdCreateStatic
 926              	.LVL90:
 927              		.loc 1 104 0
 928 0078 02B0     		add	sp, sp, #8
 929              		.cfi_def_cfa_offset 8
 930              		@ sp needed
 931 007a 10BD     		pop	{r4, pc}
 932              	.L67:
 933              		.align	2
 934              	.L66:
 935 007c 00000000 		.word	.LANCHOR6
 936 0080 00000000 		.word	.LANCHOR2
 937 0084 00000000 		.word	.LANCHOR1
 938 0088 00000000 		.word	.LANCHOR7
 939 008c 00040240 		.word	1073873920
 940 0090 00000000 		.word	CAND1
 941 0094 00000000 		.word	.LANCHOR8
 942 0098 00000000 		.word	cancom_read_thread
 943 009c 00000000 		.word	.LANCHOR9
 944 00a0 00000000 		.word	cancom_status_thread
 945 00a4 00000000 		.word	.LANCHOR10
 946 00a8 00000000 		.word	cancom_process_thread
 947 00ac 00000000 		.word	.LANCHOR11
 948              		.cfi_endproc
 949              	.LFE256:
 950              		.size	comm_can_init, .-comm_can_init
 951              		.section	.text.comm_can_transmit,"ax",%progbits
 952              		.align	2
 953              		.p2align 4,,15
 954              		.global	comm_can_transmit
 955              		.thumb
 956              		.thumb_func
 957              		.type	comm_can_transmit, %function
 958              	comm_can_transmit:
 959              	.LFB260:
 960              		.loc 1 340 0
 961              		.cfi_startproc
 962              		@ args = 0, pretend = 0, frame = 16
 963              		@ frame_needed = 0, uses_anonymous_args = 0
 964              	.LVL91:
 965 0000 70B5     		push	{r4, r5, r6, lr}
 966              		.cfi_def_cfa_offset 16
 967              		.cfi_offset 4, -16
 968              		.cfi_offset 5, -12
 969              		.cfi_offset 6, -8
ARM GAS  /var/folders/47/g7cdn6zj55s1hhv4njp6x8_h0000gn/T//ccvNwyLg.s 			page 18


 970              		.cfi_offset 14, -4
 971 0002 84B0     		sub	sp, sp, #16
 972              		.cfi_def_cfa_offset 32
 973              		.loc 1 346 0
 974 0004 04AC     		add	r4, sp, #16
 975              		.loc 1 343 0
 976 0006 9DF80030 		ldrb	r3, [sp]	@ zero_extendqisi2
 977              		.loc 1 344 0
 978 000a 019E     		ldr	r6, [sp, #4]
 979              		.loc 1 349 0
 980 000c 0E4D     		ldr	r5, .L70
 981              		.loc 1 345 0
 982 000e 43F02003 		orr	r3, r3, #32
 983              		.loc 1 346 0
 984 0012 03F0EF03 		and	r3, r3, #239
 985 0016 62F30303 		bfi	r3, r2, #0, #4
 986 001a 04F8103D 		strb	r3, [r4, #-16]!
 987              		.loc 1 344 0
 988 001e 60F31C06 		bfi	r6, r0, #0, #29
 989              		.loc 1 347 0
 990 0022 02A8     		add	r0, sp, #8
 991              	.LVL92:
 992              		.loc 1 344 0
 993 0024 0196     		str	r6, [sp, #4]
 994              		.loc 1 347 0
 995 0026 FFF7FEFF 		bl	memcpy
 996              	.LVL93:
 997              		.loc 1 349 0
 998 002a 2846     		mov	r0, r5
 999 002c FFF7FEFF 		bl	chMtxLock
 1000              	.LVL94:
 1001              		.loc 1 350 0
 1002 0030 2246     		mov	r2, r4
 1003 0032 0021     		movs	r1, #0
 1004 0034 C823     		movs	r3, #200
 1005 0036 0548     		ldr	r0, .L70+4
 1006 0038 FFF7FEFF 		bl	canTransmit
 1007              	.LVL95:
 1008              		.loc 1 351 0
 1009 003c 2846     		mov	r0, r5
 1010 003e FFF7FEFF 		bl	chMtxUnlock
 1011              	.LVL96:
 1012              		.loc 1 358 0
 1013 0042 04B0     		add	sp, sp, #16
 1014              		.cfi_def_cfa_offset 16
 1015              		@ sp needed
 1016 0044 70BD     		pop	{r4, r5, r6, pc}
 1017              	.L71:
 1018 0046 00BF     		.align	2
 1019              	.L70:
 1020 0048 00000000 		.word	.LANCHOR7
 1021 004c 00000000 		.word	CAND1
 1022              		.cfi_endproc
 1023              	.LFE260:
 1024              		.size	comm_can_transmit, .-comm_can_transmit
 1025              		.section	.text.cancom_status_thread,"ax",%progbits
 1026              		.align	2
ARM GAS  /var/folders/47/g7cdn6zj55s1hhv4njp6x8_h0000gn/T//ccvNwyLg.s 			page 19


 1027              		.p2align 4,,15
 1028              		.thumb
 1029              		.thumb_func
 1030              		.type	cancom_status_thread, %function
 1031              	cancom_status_thread:
 1032              	.LFB259:
 1033              		.loc 1 301 0
 1034              		.cfi_startproc
 1035              		@ args = 0, pretend = 0, frame = 8
 1036              		@ frame_needed = 0, uses_anonymous_args = 0
 1037              	.LVL97:
 1038 0000 30B5     		push	{r4, r5, lr}
 1039              		.cfi_def_cfa_offset 12
 1040              		.cfi_offset 4, -12
 1041              		.cfi_offset 5, -8
 1042              		.cfi_offset 14, -4
 1043              	.LBB110:
 1044              	.LBB111:
 1045              		.loc 2 135 0
 1046 0002 1A4B     		ldr	r3, .L80
 1047 0004 1A4A     		ldr	r2, .L80+4
 1048 0006 9B69     		ldr	r3, [r3, #24]
 1049              	.LBE111:
 1050              	.LBE110:
 1051              		.loc 1 301 0
 1052 0008 2DED028B 		fstmfdd	sp!, {d8}
 1053              		.cfi_def_cfa_offset 20
 1054              		.cfi_offset 80, -20
 1055              		.cfi_offset 81, -16
 1056              	.LBB113:
 1057              	.LBB114:
 1058              		.loc 1 308 0
 1059 000c 0025     		movs	r5, #0
 1060              	.LBE114:
 1061              	.LBE113:
 1062              		.loc 1 301 0
 1063 000e 83B0     		sub	sp, sp, #12
 1064              		.cfi_def_cfa_offset 32
 1065              	.LBB117:
 1066              	.LBB115:
 1067              		.loc 1 312 0
 1068 0010 9FED188A 		flds	s16, .L80+8
 1069              	.LBE115:
 1070              	.LBE117:
 1071              	.LBB118:
 1072              	.LBB112:
 1073              		.loc 2 135 0
 1074 0014 9A61     		str	r2, [r3, #24]
 1075              	.LBE112:
 1076              	.LBE118:
 1077              	.LBB119:
 1078              		.loc 1 321 0
 1079 0016 42F21074 		movw	r4, #10000
 1080 001a 09E0     		b	.L75
 1081              	.LVL98:
 1082              	.L73:
 1083 001c FFF7FEFF 		bl	app_get_configuration
ARM GAS  /var/folders/47/g7cdn6zj55s1hhv4njp6x8_h0000gn/T//ccvNwyLg.s 			page 20


 1084              	.LVL99:
 1085 0020 0069     		ldr	r0, [r0, #16]
 1086 0022 B4FBF0F0 		udiv	r0, r4, r0
 1087              	.LVL100:
 1088              		.loc 1 333 0
 1089 0026 0028     		cmp	r0, #0
 1090              	.LVL101:
 1091              		.loc 1 336 0
 1092 0028 08BF     		it	eq
 1093 002a 0120     		moveq	r0, #1
 1094              	.LVL102:
 1095 002c FFF7FEFF 		bl	chThdSleep
 1096              	.LVL103:
 1097              	.L75:
 1098              		.loc 1 306 0
 1099 0030 FFF7FEFF 		bl	app_get_configuration
 1100              	.LVL104:
 1101 0034 037B     		ldrb	r3, [r0, #12]	@ zero_extendqisi2
 1102 0036 002B     		cmp	r3, #0
 1103 0038 F0D0     		beq	.L73
 1104              	.LBB116:
 1105              		.loc 1 308 0
 1106 003a 0095     		str	r5, [sp]
 1107              		.loc 1 312 0
 1108 003c FFF7FEFF 		bl	encoder_read_deg
 1109              	.LVL105:
 1110 0040 20EE080A 		fmuls	s0, s0, s16
 1111 0044 6A46     		mov	r2, sp
 1112 0046 FDEEC07A 		ftosizs	s15, s0
 1113 004a 01A8     		add	r0, sp, #4
 1114 004c 17EE901A 		fmrs	r1, s15	@ int
 1115 0050 FFF7FEFF 		bl	buffer_append_int32
 1116              	.LVL106:
 1117              		.loc 1 318 0
 1118 0054 FFF7FEFF 		bl	app_get_configuration
 1119              	.LVL107:
 1120 0058 0078     		ldrb	r0, [r0]	@ zero_extendqisi2
 1121 005a 9DF80020 		ldrb	r2, [sp]	@ zero_extendqisi2
 1122 005e 40F41060 		orr	r0, r0, #2304
 1123 0062 01A9     		add	r1, sp, #4
 1124 0064 FFF7FEFF 		bl	comm_can_transmit
 1125              	.LVL108:
 1126 0068 D8E7     		b	.L73
 1127              	.L81:
 1128 006a 00BF     		.align	2
 1129              	.L80:
 1130 006c 00000000 		.word	ch
 1131 0070 14000000 		.word	.LC2
 1132 0074 0050C347 		.word	1203982336
 1133              	.LBE116:
 1134              	.LBE119:
 1135              		.cfi_endproc
 1136              	.LFE259:
 1137              		.size	cancom_status_thread, .-cancom_status_thread
 1138              		.section	.text.comm_can_send_buffer,"ax",%progbits
 1139              		.align	2
 1140              		.p2align 4,,15
ARM GAS  /var/folders/47/g7cdn6zj55s1hhv4njp6x8_h0000gn/T//ccvNwyLg.s 			page 21


 1141              		.global	comm_can_send_buffer
 1142              		.thumb
 1143              		.thumb_func
 1144              		.type	comm_can_send_buffer, %function
 1145              	comm_can_send_buffer:
 1146              	.LFB261:
 1147              		.loc 1 378 0
 1148              		.cfi_startproc
 1149              		@ args = 0, pretend = 0, frame = 24
 1150              		@ frame_needed = 0, uses_anonymous_args = 0
 1151              	.LVL109:
 1152 0000 2DE9F04F 		push	{r4, r5, r6, r7, r8, r9, r10, fp, lr}
 1153              		.cfi_def_cfa_offset 36
 1154              		.cfi_offset 4, -36
 1155              		.cfi_offset 5, -32
 1156              		.cfi_offset 6, -28
 1157              		.cfi_offset 7, -24
 1158              		.cfi_offset 8, -20
 1159              		.cfi_offset 9, -16
 1160              		.cfi_offset 10, -12
 1161              		.cfi_offset 11, -8
 1162              		.cfi_offset 14, -4
 1163 0004 87B0     		sub	sp, sp, #28
 1164              		.cfi_def_cfa_offset 64
 1165              		.loc 1 381 0
 1166 0006 062A     		cmp	r2, #6
 1167              		.loc 1 378 0
 1168 0008 1546     		mov	r5, r2
 1169 000a 8246     		mov	r10, r0
 1170 000c 0191     		str	r1, [sp, #4]
 1171 000e 0293     		str	r3, [sp, #8]
 1172              		.loc 1 381 0
 1173 0010 7FD9     		bls	.L83
 1174 0012 4FF0000B 		mov	fp, #0
 1175 0016 D3B2     		uxtb	r3, r2
 1176              	.LVL110:
 1177 0018 5C46     		mov	r4, fp
 1178 001a 40F4A066 		orr	r6, r0, #1280
 1179 001e 0393     		str	r3, [sp, #12]
 1180 0020 8846     		mov	r8, r1
 1181              	.LBB120:
 1182              	.LBB121:
 1183              	.LBB122:
 1184              		.loc 1 391 0
 1185 0022 40F20317 		movw	r7, #259
 1186 0026 01E0     		b	.L84
 1187              	.LVL111:
 1188              	.L89:
 1189 0028 BC42     		cmp	r4, r7
 1190 002a 41D0     		beq	.L86
 1191              	.LVL112:
 1192              	.L84:
 1193              		.loc 1 395 0
 1194 002c 0734     		adds	r4, r4, #7
 1195              	.LVL113:
 1196              		.loc 1 398 0
 1197 002e 5FFA8BF3 		uxtb	r3, fp
ARM GAS  /var/folders/47/g7cdn6zj55s1hhv4njp6x8_h0000gn/T//ccvNwyLg.s 			page 22


 1198              		.loc 1 400 0
 1199 0032 A542     		cmp	r5, r4
 1200              		.loc 1 398 0
 1201 0034 8DF81030 		strb	r3, [sp, #16]
 1202              		.loc 1 400 0
 1203 0038 C0F08480 		bcc	.L87
 1204              		.loc 1 401 0
 1205 003c D8F80030 		ldr	r3, [r8]	@ unaligned
 1206 0040 B8F80420 		ldrh	r2, [r8, #4]	@ unaligned
 1207 0044 CDF81130 		str	r3, [sp, #17]	@ unaligned
 1208 0048 98F80630 		ldrb	r3, [r8, #6]	@ zero_extendqisi2
 1209 004c ADF81520 		strh	r2, [sp, #21]	@ unaligned
 1210 0050 8DF81730 		strb	r3, [sp, #23]
 1211 0054 0822     		movs	r2, #8
 1212              	.LVL114:
 1213              	.L88:
 1214              		.loc 1 407 0 discriminator 2
 1215 0056 3046     		mov	r0, r6
 1216 0058 04A9     		add	r1, sp, #16
 1217 005a FFF7FEFF 		bl	comm_can_transmit
 1218              	.LVL115:
 1219              	.LBE122:
 1220              		.loc 1 390 0 discriminator 2
 1221 005e A542     		cmp	r5, r4
 1222 0060 0BF1070B 		add	fp, fp, #7
 1223 0064 08F10708 		add	r8, r8, #7
 1224 0068 DED8     		bhi	.L89
 1225              	.LVL116:
 1226              	.L93:
 1227              	.LBE121:
 1228              		.loc 1 426 0
 1229 006a FFF7FEFF 		bl	app_get_configuration
 1230              	.LVL117:
 1231 006e 0278     		ldrb	r2, [r0]	@ zero_extendqisi2
 1232 0070 8DF81020 		strb	r2, [sp, #16]
 1233              	.LVL118:
 1234              		.loc 1 427 0
 1235 0074 9DF80820 		ldrb	r2, [sp, #8]	@ zero_extendqisi2
 1236 0078 8DF81120 		strb	r2, [sp, #17]
 1237              	.LVL119:
 1238              		.loc 1 428 0
 1239 007c 2B0A     		lsrs	r3, r5, #8
 1240              		.loc 1 429 0
 1241 007e 9DF80C20 		ldrb	r2, [sp, #12]	@ zero_extendqisi2
 1242              		.loc 1 430 0
 1243 0082 0198     		ldr	r0, [sp, #4]
 1244              		.loc 1 429 0
 1245 0084 8DF81320 		strb	r2, [sp, #19]
 1246              		.loc 1 430 0
 1247 0088 2946     		mov	r1, r5
 1248              		.loc 1 428 0
 1249 008a 8DF81230 		strb	r3, [sp, #18]
 1250              	.LVL120:
 1251              		.loc 1 430 0
 1252 008e FFF7FEFF 		bl	crc16
 1253              	.LVL121:
 1254              		.loc 1 434 0
ARM GAS  /var/folders/47/g7cdn6zj55s1hhv4njp6x8_h0000gn/T//ccvNwyLg.s 			page 23


 1255 0092 04A9     		add	r1, sp, #16
 1256              		.loc 1 430 0
 1257 0094 0346     		mov	r3, r0
 1258              	.LVL122:
 1259              		.loc 1 431 0
 1260 0096 040A     		lsrs	r4, r0, #8
 1261              		.loc 1 434 0
 1262 0098 0622     		movs	r2, #6
 1263 009a 4AF4E060 		orr	r0, r10, #1792
 1264              	.LVL123:
 1265              		.loc 1 432 0
 1266 009e 8DF81530 		strb	r3, [sp, #21]
 1267              		.loc 1 431 0
 1268 00a2 8DF81440 		strb	r4, [sp, #20]
 1269              	.LVL124:
 1270              		.loc 1 434 0
 1271 00a6 FFF7FEFF 		bl	comm_can_transmit
 1272              	.LVL125:
 1273              	.LBE120:
 1274              		.loc 1 436 0
 1275 00aa 07B0     		add	sp, sp, #28
 1276              		.cfi_remember_state
 1277              		.cfi_def_cfa_offset 36
 1278              		@ sp needed
 1279 00ac BDE8F08F 		pop	{r4, r5, r6, r7, r8, r9, r10, fp, pc}
 1280              	.LVL126:
 1281              	.L86:
 1282              		.cfi_restore_state
 1283 00b0 019B     		ldr	r3, [sp, #4]
 1284 00b2 03F2031B 		addw	fp, r3, #259
 1285 00b6 039B     		ldr	r3, [sp, #12]
 1286 00b8 4AF4C067 		orr	r7, r10, #1536
 1287 00bc 9E1D     		adds	r6, r3, #6
 1288 00be 03F10808 		add	r8, r3, #8
 1289 00c2 10E0     		b	.L92
 1290              	.LVL127:
 1291              	.L96:
 1292              	.LBB128:
 1293              	.LBB124:
 1294              	.LBB125:
 1295              		.loc 1 416 0
 1296 00c4 DBF80020 		ldr	r2, [fp]	@ unaligned
 1297 00c8 BBF80430 		ldrh	r3, [fp, #4]	@ unaligned
 1298 00cc CDF81220 		str	r2, [sp, #18]	@ unaligned
 1299 00d0 ADF81630 		strh	r3, [sp, #22]	@ unaligned
 1300 00d4 0822     		movs	r2, #8
 1301              	.L91:
 1302              		.loc 1 422 0 discriminator 2
 1303 00d6 3846     		mov	r0, r7
 1304 00d8 04A9     		add	r1, sp, #16
 1305 00da FFF7FEFF 		bl	comm_can_transmit
 1306              	.LVL128:
 1307              	.LBE125:
 1308              		.loc 1 410 0 discriminator 2
 1309 00de A542     		cmp	r5, r4
 1310 00e0 0BF1060B 		add	fp, fp, #6
 1311 00e4 C1D9     		bls	.L93
ARM GAS  /var/folders/47/g7cdn6zj55s1hhv4njp6x8_h0000gn/T//ccvNwyLg.s 			page 24


 1312              	.LVL129:
 1313              	.L92:
 1314              	.LBB126:
 1315              		.loc 1 412 0
 1316 00e6 230A     		lsrs	r3, r4, #8
 1317              		.loc 1 413 0
 1318 00e8 8DF81140 		strb	r4, [sp, #17]
 1319              		.loc 1 415 0
 1320 00ec 0634     		adds	r4, r4, #6
 1321              	.LVL130:
 1322 00ee 5FFA84F9 		uxtb	r9, r4
 1323              	.LVL131:
 1324 00f2 A542     		cmp	r5, r4
 1325              		.loc 1 412 0
 1326 00f4 8DF81030 		strb	r3, [sp, #16]
 1327 00f8 C9EB0602 		rsb	r2, r9, r6
 1328              		.loc 1 415 0
 1329 00fc E2D2     		bcs	.L96
 1330              		.loc 1 419 0
 1331 00fe D2B2     		uxtb	r2, r2
 1332 0100 0DF11200 		add	r0, sp, #18
 1333 0104 5946     		mov	r1, fp
 1334 0106 FFF7FEFF 		bl	memcpy
 1335              	.LVL132:
 1336 010a C9EB0802 		rsb	r2, r9, r8
 1337 010e D2B2     		uxtb	r2, r2
 1338 0110 E1E7     		b	.L91
 1339              	.LVL133:
 1340              	.L83:
 1341              	.LBE126:
 1342              	.LBE124:
 1343              	.LBE128:
 1344              	.LBB129:
 1345              		.loc 1 383 0
 1346 0112 FFF7FEFF 		bl	app_get_configuration
 1347              	.LVL134:
 1348 0116 0378     		ldrb	r3, [r0]	@ zero_extendqisi2
 1349              		.loc 1 385 0
 1350 0118 0199     		ldr	r1, [sp, #4]
 1351              		.loc 1 383 0
 1352 011a 8DF81030 		strb	r3, [sp, #16]
 1353              	.LVL135:
 1354              		.loc 1 385 0
 1355 011e 2A46     		mov	r2, r5
 1356              		.loc 1 384 0
 1357 0120 9DF80830 		ldrb	r3, [sp, #8]	@ zero_extendqisi2
 1358 0124 8DF81130 		strb	r3, [sp, #17]
 1359              		.loc 1 385 0
 1360 0128 0DF11200 		add	r0, sp, #18
 1361 012c FFF7FEFF 		bl	memcpy
 1362              	.LVL136:
 1363              		.loc 1 386 0
 1364 0130 AA1C     		adds	r2, r5, #2
 1365              	.LVL137:
 1366              		.loc 1 387 0
 1367 0132 D2B2     		uxtb	r2, r2
 1368              	.LVL138:
ARM GAS  /var/folders/47/g7cdn6zj55s1hhv4njp6x8_h0000gn/T//ccvNwyLg.s 			page 25


 1369 0134 4AF40060 		orr	r0, r10, #2048
 1370 0138 04A9     		add	r1, sp, #16
 1371 013a FFF7FEFF 		bl	comm_can_transmit
 1372              	.LVL139:
 1373              	.LBE129:
 1374              		.loc 1 436 0
 1375 013e 07B0     		add	sp, sp, #28
 1376              		.cfi_remember_state
 1377              		.cfi_def_cfa_offset 36
 1378              		@ sp needed
 1379 0140 BDE8F08F 		pop	{r4, r5, r6, r7, r8, r9, r10, fp, pc}
 1380              	.LVL140:
 1381              	.L87:
 1382              		.cfi_restore_state
 1383 0144 EA1A     		subs	r2, r5, r3
 1384              	.LBB130:
 1385              	.LBB127:
 1386              	.LBB123:
 1387              		.loc 1 404 0
 1388 0146 D2B2     		uxtb	r2, r2
 1389 0148 0DF11100 		add	r0, sp, #17
 1390 014c 4146     		mov	r1, r8
 1391 014e FFF7FEFF 		bl	memcpy
 1392              	.LVL141:
 1393 0152 039B     		ldr	r3, [sp, #12]
 1394 0154 C4F10802 		rsb	r2, r4, #8
 1395 0158 1A44     		add	r2, r2, r3
 1396 015a D2B2     		uxtb	r2, r2
 1397 015c 7BE7     		b	.L88
 1398              	.LBE123:
 1399              	.LBE127:
 1400              	.LBE130:
 1401              		.cfi_endproc
 1402              	.LFE261:
 1403              		.size	comm_can_send_buffer, .-comm_can_send_buffer
 1404 015e 00BF     		.section	.text.send_packet_wrapper,"ax",%progbits
 1405              		.align	2
 1406              		.p2align 4,,15
 1407              		.thumb
 1408              		.thumb_func
 1409              		.type	send_packet_wrapper, %function
 1410              	send_packet_wrapper:
 1411              	.LFB269:
 1412              		.loc 1 509 0
 1413              		.cfi_startproc
 1414              		@ args = 0, pretend = 0, frame = 0
 1415              		@ frame_needed = 0, uses_anonymous_args = 0
 1416              		@ link register save eliminated.
 1417              	.LVL142:
 1418              		.loc 1 510 0
 1419 0000 034B     		ldr	r3, .L98
 1420              		.loc 1 509 0
 1421 0002 0A46     		mov	r2, r1
 1422              		.loc 1 510 0
 1423 0004 0146     		mov	r1, r0
 1424              	.LVL143:
 1425 0006 1878     		ldrb	r0, [r3]	@ zero_extendqisi2
ARM GAS  /var/folders/47/g7cdn6zj55s1hhv4njp6x8_h0000gn/T//ccvNwyLg.s 			page 26


 1426              	.LVL144:
 1427 0008 0123     		movs	r3, #1
 1428 000a FFF7FEBF 		b	comm_can_send_buffer
 1429              	.LVL145:
 1430              	.L99:
 1431 000e 00BF     		.align	2
 1432              	.L98:
 1433 0010 00000000 		.word	.LANCHOR5
 1434              		.cfi_endproc
 1435              	.LFE269:
 1436              		.size	send_packet_wrapper, .-send_packet_wrapper
 1437              		.section	.text.comm_can_set_duty,"ax",%progbits
 1438              		.align	2
 1439              		.p2align 4,,15
 1440              		.global	comm_can_set_duty
 1441              		.thumb
 1442              		.thumb_func
 1443              		.type	comm_can_set_duty, %function
 1444              	comm_can_set_duty:
 1445              	.LFB262:
 1446              		.loc 1 438 0
 1447              		.cfi_startproc
 1448              		@ args = 0, pretend = 0, frame = 8
 1449              		@ frame_needed = 0, uses_anonymous_args = 0
 1450              	.LVL146:
 1451 0000 10B5     		push	{r4, lr}
 1452              		.cfi_def_cfa_offset 8
 1453              		.cfi_offset 4, -8
 1454              		.cfi_offset 14, -4
 1455              		.loc 1 441 0
 1456 0002 DFED0C7A 		flds	s15, .L102
 1457 0006 20EE270A 		fmuls	s0, s0, s15
 1458              	.LVL147:
 1459              		.loc 1 438 0
 1460 000a 82B0     		sub	sp, sp, #8
 1461              		.cfi_def_cfa_offset 16
 1462              		.loc 1 441 0
 1463 000c FDEEC07A 		ftosizs	s15, s0
 1464              		.loc 1 439 0
 1465 0010 0023     		movs	r3, #0
 1466              		.loc 1 441 0
 1467 0012 17EE901A 		fmrs	r1, s15	@ int
 1468              		.loc 1 438 0
 1469 0016 0446     		mov	r4, r0
 1470              		.loc 1 441 0
 1471 0018 6A46     		mov	r2, sp
 1472 001a 01A8     		add	r0, sp, #4
 1473              	.LVL148:
 1474              		.loc 1 439 0
 1475 001c 0093     		str	r3, [sp]
 1476              		.loc 1 441 0
 1477 001e FFF7FEFF 		bl	buffer_append_int32
 1478              	.LVL149:
 1479              		.loc 1 442 0
 1480 0022 2046     		mov	r0, r4
 1481 0024 01A9     		add	r1, sp, #4
 1482 0026 9DF80020 		ldrb	r2, [sp]	@ zero_extendqisi2
ARM GAS  /var/folders/47/g7cdn6zj55s1hhv4njp6x8_h0000gn/T//ccvNwyLg.s 			page 27


 1483 002a FFF7FEFF 		bl	comm_can_transmit
 1484              	.LVL150:
 1485              		.loc 1 443 0
 1486 002e 02B0     		add	sp, sp, #8
 1487              		.cfi_def_cfa_offset 8
 1488              		@ sp needed
 1489 0030 10BD     		pop	{r4, pc}
 1490              	.L103:
 1491 0032 00BF     		.align	2
 1492              	.L102:
 1493 0034 0050C347 		.word	1203982336
 1494              		.cfi_endproc
 1495              	.LFE262:
 1496              		.size	comm_can_set_duty, .-comm_can_set_duty
 1497              		.section	.text.comm_can_set_current,"ax",%progbits
 1498              		.align	2
 1499              		.p2align 4,,15
 1500              		.global	comm_can_set_current
 1501              		.thumb
 1502              		.thumb_func
 1503              		.type	comm_can_set_current, %function
 1504              	comm_can_set_current:
 1505              	.LFB263:
 1506              		.loc 1 445 0
 1507              		.cfi_startproc
 1508              		@ args = 0, pretend = 0, frame = 8
 1509              		@ frame_needed = 0, uses_anonymous_args = 0
 1510              	.LVL151:
 1511 0000 10B5     		push	{r4, lr}
 1512              		.cfi_def_cfa_offset 8
 1513              		.cfi_offset 4, -8
 1514              		.cfi_offset 14, -4
 1515              		.loc 1 448 0
 1516 0002 DFED0C7A 		flds	s15, .L106
 1517 0006 20EE270A 		fmuls	s0, s0, s15
 1518              	.LVL152:
 1519              		.loc 1 445 0
 1520 000a 82B0     		sub	sp, sp, #8
 1521              		.cfi_def_cfa_offset 16
 1522              		.loc 1 448 0
 1523 000c FDEEC07A 		ftosizs	s15, s0
 1524              		.loc 1 446 0
 1525 0010 0023     		movs	r3, #0
 1526              		.loc 1 448 0
 1527 0012 17EE901A 		fmrs	r1, s15	@ int
 1528              		.loc 1 445 0
 1529 0016 0446     		mov	r4, r0
 1530              		.loc 1 448 0
 1531 0018 6A46     		mov	r2, sp
 1532 001a 01A8     		add	r0, sp, #4
 1533              	.LVL153:
 1534              		.loc 1 446 0
 1535 001c 0093     		str	r3, [sp]
 1536              		.loc 1 448 0
 1537 001e FFF7FEFF 		bl	buffer_append_int32
 1538              	.LVL154:
 1539              		.loc 1 449 0
ARM GAS  /var/folders/47/g7cdn6zj55s1hhv4njp6x8_h0000gn/T//ccvNwyLg.s 			page 28


 1540 0022 44F48070 		orr	r0, r4, #256
 1541 0026 01A9     		add	r1, sp, #4
 1542 0028 9DF80020 		ldrb	r2, [sp]	@ zero_extendqisi2
 1543 002c FFF7FEFF 		bl	comm_can_transmit
 1544              	.LVL155:
 1545              		.loc 1 450 0
 1546 0030 02B0     		add	sp, sp, #8
 1547              		.cfi_def_cfa_offset 8
 1548              		@ sp needed
 1549 0032 10BD     		pop	{r4, pc}
 1550              	.L107:
 1551              		.align	2
 1552              	.L106:
 1553 0034 00007A44 		.word	1148846080
 1554              		.cfi_endproc
 1555              	.LFE263:
 1556              		.size	comm_can_set_current, .-comm_can_set_current
 1557              		.section	.text.comm_can_set_current_brake,"ax",%progbits
 1558              		.align	2
 1559              		.p2align 4,,15
 1560              		.global	comm_can_set_current_brake
 1561              		.thumb
 1562              		.thumb_func
 1563              		.type	comm_can_set_current_brake, %function
 1564              	comm_can_set_current_brake:
 1565              	.LFB264:
 1566              		.loc 1 452 0
 1567              		.cfi_startproc
 1568              		@ args = 0, pretend = 0, frame = 8
 1569              		@ frame_needed = 0, uses_anonymous_args = 0
 1570              	.LVL156:
 1571 0000 10B5     		push	{r4, lr}
 1572              		.cfi_def_cfa_offset 8
 1573              		.cfi_offset 4, -8
 1574              		.cfi_offset 14, -4
 1575              		.loc 1 455 0
 1576 0002 DFED0C7A 		flds	s15, .L110
 1577 0006 20EE270A 		fmuls	s0, s0, s15
 1578              	.LVL157:
 1579              		.loc 1 452 0
 1580 000a 82B0     		sub	sp, sp, #8
 1581              		.cfi_def_cfa_offset 16
 1582              		.loc 1 455 0
 1583 000c FDEEC07A 		ftosizs	s15, s0
 1584              		.loc 1 453 0
 1585 0010 0023     		movs	r3, #0
 1586              		.loc 1 455 0
 1587 0012 17EE901A 		fmrs	r1, s15	@ int
 1588              		.loc 1 452 0
 1589 0016 0446     		mov	r4, r0
 1590              		.loc 1 455 0
 1591 0018 6A46     		mov	r2, sp
 1592 001a 01A8     		add	r0, sp, #4
 1593              	.LVL158:
 1594              		.loc 1 453 0
 1595 001c 0093     		str	r3, [sp]
 1596              		.loc 1 455 0
ARM GAS  /var/folders/47/g7cdn6zj55s1hhv4njp6x8_h0000gn/T//ccvNwyLg.s 			page 29


 1597 001e FFF7FEFF 		bl	buffer_append_int32
 1598              	.LVL159:
 1599              		.loc 1 456 0
 1600 0022 44F40070 		orr	r0, r4, #512
 1601 0026 01A9     		add	r1, sp, #4
 1602 0028 9DF80020 		ldrb	r2, [sp]	@ zero_extendqisi2
 1603 002c FFF7FEFF 		bl	comm_can_transmit
 1604              	.LVL160:
 1605              		.loc 1 457 0
 1606 0030 02B0     		add	sp, sp, #8
 1607              		.cfi_def_cfa_offset 8
 1608              		@ sp needed
 1609 0032 10BD     		pop	{r4, pc}
 1610              	.L111:
 1611              		.align	2
 1612              	.L110:
 1613 0034 00007A44 		.word	1148846080
 1614              		.cfi_endproc
 1615              	.LFE264:
 1616              		.size	comm_can_set_current_brake, .-comm_can_set_current_brake
 1617              		.section	.text.comm_can_set_rpm,"ax",%progbits
 1618              		.align	2
 1619              		.p2align 4,,15
 1620              		.global	comm_can_set_rpm
 1621              		.thumb
 1622              		.thumb_func
 1623              		.type	comm_can_set_rpm, %function
 1624              	comm_can_set_rpm:
 1625              	.LFB265:
 1626              		.loc 1 459 0
 1627              		.cfi_startproc
 1628              		@ args = 0, pretend = 0, frame = 8
 1629              		@ frame_needed = 0, uses_anonymous_args = 0
 1630              	.LVL161:
 1631 0000 10B5     		push	{r4, lr}
 1632              		.cfi_def_cfa_offset 8
 1633              		.cfi_offset 4, -8
 1634              		.cfi_offset 14, -4
 1635              		.loc 1 462 0
 1636 0002 FDEEC07A 		ftosizs	s15, s0
 1637              		.loc 1 459 0
 1638 0006 82B0     		sub	sp, sp, #8
 1639              		.cfi_def_cfa_offset 16
 1640              		.loc 1 460 0
 1641 0008 0023     		movs	r3, #0
 1642              		.loc 1 462 0
 1643 000a 17EE901A 		fmrs	r1, s15	@ int
 1644              		.loc 1 459 0
 1645 000e 0446     		mov	r4, r0
 1646              		.loc 1 462 0
 1647 0010 6A46     		mov	r2, sp
 1648 0012 01A8     		add	r0, sp, #4
 1649              	.LVL162:
 1650              		.loc 1 460 0
 1651 0014 0093     		str	r3, [sp]
 1652              		.loc 1 462 0
 1653 0016 FFF7FEFF 		bl	buffer_append_int32
ARM GAS  /var/folders/47/g7cdn6zj55s1hhv4njp6x8_h0000gn/T//ccvNwyLg.s 			page 30


 1654              	.LVL163:
 1655              		.loc 1 463 0
 1656 001a 44F44070 		orr	r0, r4, #768
 1657 001e 01A9     		add	r1, sp, #4
 1658 0020 9DF80020 		ldrb	r2, [sp]	@ zero_extendqisi2
 1659 0024 FFF7FEFF 		bl	comm_can_transmit
 1660              	.LVL164:
 1661              		.loc 1 464 0
 1662 0028 02B0     		add	sp, sp, #8
 1663              		.cfi_def_cfa_offset 8
 1664              		@ sp needed
 1665 002a 10BD     		pop	{r4, pc}
 1666              		.cfi_endproc
 1667              	.LFE265:
 1668              		.size	comm_can_set_rpm, .-comm_can_set_rpm
 1669              		.section	.text.comm_can_set_pos,"ax",%progbits
 1670              		.align	2
 1671              		.p2align 4,,15
 1672              		.global	comm_can_set_pos
 1673              		.thumb
 1674              		.thumb_func
 1675              		.type	comm_can_set_pos, %function
 1676              	comm_can_set_pos:
 1677              	.LFB266:
 1678              		.loc 1 466 0
 1679              		.cfi_startproc
 1680              		@ args = 0, pretend = 0, frame = 8
 1681              		@ frame_needed = 0, uses_anonymous_args = 0
 1682              	.LVL165:
 1683 0000 10B5     		push	{r4, lr}
 1684              		.cfi_def_cfa_offset 8
 1685              		.cfi_offset 4, -8
 1686              		.cfi_offset 14, -4
 1687              		.loc 1 469 0
 1688 0002 DFED0C7A 		flds	s15, .L116
 1689 0006 20EE270A 		fmuls	s0, s0, s15
 1690              	.LVL166:
 1691              		.loc 1 466 0
 1692 000a 82B0     		sub	sp, sp, #8
 1693              		.cfi_def_cfa_offset 16
 1694              		.loc 1 469 0
 1695 000c FDEEC07A 		ftosizs	s15, s0
 1696              		.loc 1 467 0
 1697 0010 0023     		movs	r3, #0
 1698              		.loc 1 469 0
 1699 0012 17EE901A 		fmrs	r1, s15	@ int
 1700              		.loc 1 466 0
 1701 0016 0446     		mov	r4, r0
 1702              		.loc 1 469 0
 1703 0018 6A46     		mov	r2, sp
 1704 001a 01A8     		add	r0, sp, #4
 1705              	.LVL167:
 1706              		.loc 1 467 0
 1707 001c 0093     		str	r3, [sp]
 1708              		.loc 1 469 0
 1709 001e FFF7FEFF 		bl	buffer_append_int32
 1710              	.LVL168:
ARM GAS  /var/folders/47/g7cdn6zj55s1hhv4njp6x8_h0000gn/T//ccvNwyLg.s 			page 31


 1711              		.loc 1 470 0
 1712 0022 44F48060 		orr	r0, r4, #1024
 1713 0026 01A9     		add	r1, sp, #4
 1714 0028 9DF80020 		ldrb	r2, [sp]	@ zero_extendqisi2
 1715 002c FFF7FEFF 		bl	comm_can_transmit
 1716              	.LVL169:
 1717              		.loc 1 471 0
 1718 0030 02B0     		add	sp, sp, #8
 1719              		.cfi_def_cfa_offset 8
 1720              		@ sp needed
 1721 0032 10BD     		pop	{r4, pc}
 1722              	.L117:
 1723              		.align	2
 1724              	.L116:
 1725 0034 00247449 		.word	1232348160
 1726              		.cfi_endproc
 1727              	.LFE266:
 1728              		.size	comm_can_set_pos, .-comm_can_set_pos
 1729              		.section	.text.comm_can_get_status_msg_index,"ax",%progbits
 1730              		.align	2
 1731              		.p2align 4,,15
 1732              		.global	comm_can_get_status_msg_index
 1733              		.thumb
 1734              		.thumb_func
 1735              		.type	comm_can_get_status_msg_index, %function
 1736              	comm_can_get_status_msg_index:
 1737              	.LFB267:
 1738              		.loc 1 482 0
 1739              		.cfi_startproc
 1740              		@ args = 0, pretend = 0, frame = 0
 1741              		@ frame_needed = 0, uses_anonymous_args = 0
 1742              		@ link register save eliminated.
 1743              	.LVL170:
 1744              		.loc 1 483 0
 1745 0000 0928     		cmp	r0, #9
 1746              		.loc 1 484 0
 1747 0002 DDBF     		ittte	le
 1748 0004 034B     		ldrle	r3, .L121
 1749 0006 00EB8000 		addle	r0, r0, r0, lsl #2
 1750              	.LVL171:
 1751 000a 03EB8000 		addle	r0, r3, r0, lsl #2
 1752              		.loc 1 486 0
 1753 000e 0020     		movgt	r0, #0
 1754              		.loc 1 488 0
 1755 0010 7047     		bx	lr
 1756              	.L122:
 1757 0012 00BF     		.align	2
 1758              	.L121:
 1759 0014 00000000 		.word	.LANCHOR6
 1760              		.cfi_endproc
 1761              	.LFE267:
 1762              		.size	comm_can_get_status_msg_index, .-comm_can_get_status_msg_index
 1763              		.section	.text.comm_can_get_status_msg_id,"ax",%progbits
 1764              		.align	2
 1765              		.p2align 4,,15
 1766              		.global	comm_can_get_status_msg_id
 1767              		.thumb
ARM GAS  /var/folders/47/g7cdn6zj55s1hhv4njp6x8_h0000gn/T//ccvNwyLg.s 			page 32


 1768              		.thumb_func
 1769              		.type	comm_can_get_status_msg_id, %function
 1770              	comm_can_get_status_msg_id:
 1771              	.LFB268:
 1772              		.loc 1 499 0
 1773              		.cfi_startproc
 1774              		@ args = 0, pretend = 0, frame = 0
 1775              		@ frame_needed = 0, uses_anonymous_args = 0
 1776              		@ link register save eliminated.
 1777              	.LVL172:
 1778 0000 30B4     		push	{r4, r5}
 1779              		.cfi_def_cfa_offset 8
 1780              		.cfi_offset 4, -8
 1781              		.cfi_offset 5, -4
 1782              		.loc 1 499 0
 1783 0002 0023     		movs	r3, #0
 1784 0004 094D     		ldr	r5, .L130
 1785              	.LBB131:
 1786              		.loc 1 500 0
 1787 0006 1A46     		mov	r2, r3
 1788              	.LVL173:
 1789              	.L126:
 1790              		.loc 1 501 0
 1791 0008 E958     		ldr	r1, [r5, r3]
 1792 000a 084C     		ldr	r4, .L130
 1793 000c 8142     		cmp	r1, r0
 1794 000e 03F11403 		add	r3, r3, #20
 1795 0012 05D0     		beq	.L129
 1796              		.loc 1 500 0 discriminator 2
 1797 0014 0132     		adds	r2, r2, #1
 1798              	.LVL174:
 1799 0016 0A2A     		cmp	r2, #10
 1800 0018 F6D1     		bne	.L126
 1801              	.LBE131:
 1802              		.loc 1 506 0
 1803 001a 0020     		movs	r0, #0
 1804              	.LVL175:
 1805              		.loc 1 507 0
 1806 001c 30BC     		pop	{r4, r5}
 1807              		.cfi_remember_state
 1808              		.cfi_restore 5
 1809              		.cfi_restore 4
 1810              		.cfi_def_cfa_offset 0
 1811 001e 7047     		bx	lr
 1812              	.LVL176:
 1813              	.L129:
 1814              		.cfi_restore_state
 1815              	.LBB132:
 1816              		.loc 1 502 0
 1817 0020 02EB8202 		add	r2, r2, r2, lsl #2
 1818              	.LVL177:
 1819 0024 04EB8200 		add	r0, r4, r2, lsl #2
 1820              	.LVL178:
 1821              	.LBE132:
 1822              		.loc 1 507 0
 1823 0028 30BC     		pop	{r4, r5}
 1824              		.cfi_restore 4
ARM GAS  /var/folders/47/g7cdn6zj55s1hhv4njp6x8_h0000gn/T//ccvNwyLg.s 			page 33


 1825              		.cfi_restore 5
 1826              		.cfi_def_cfa_offset 0
 1827 002a 7047     		bx	lr
 1828              	.L131:
 1829              		.align	2
 1830              	.L130:
 1831 002c 00000000 		.word	.LANCHOR6
 1832              		.cfi_endproc
 1833              	.LFE268:
 1834              		.size	comm_can_get_status_msg_id, .-comm_can_get_status_msg_id
 1835              		.section	.bss.cancom_process_thread_wa,"aw",%nobits
 1836              		.align	3
 1837              		.set	.LANCHOR11,. + 0
 1838              		.type	cancom_process_thread_wa, %object
 1839              		.size	cancom_process_thread_wa, 4504
 1840              	cancom_process_thread_wa:
 1841 0000 00000000 		.space	4504
 1841      00000000 
 1841      00000000 
 1841      00000000 
 1841      00000000 
 1842              		.section	.bss.rx_frame_read,"aw",%nobits
 1843              		.align	2
 1844              		.set	.LANCHOR1,. + 0
 1845              		.type	rx_frame_read, %object
 1846              		.size	rx_frame_read, 4
 1847              	rx_frame_read:
 1848 0000 00000000 		.space	4
 1849              		.section	.rodata.cancfg,"a",%progbits
 1850              		.align	2
 1851              		.set	.LANCHOR8,. + 0
 1852              		.type	cancfg, %object
 1853              		.size	cancfg, 8
 1854              	cancfg:
 1855 0000 64000000 		.word	100
 1856 0004 06001800 		.word	1572870
 1857              		.section	.bss.rx_buffer,"aw",%nobits
 1858              		.align	2
 1859              		.set	.LANCHOR4,. + 0
 1860              		.type	rx_buffer, %object
 1861              		.size	rx_buffer, 1024
 1862              	rx_buffer:
 1863 0000 00000000 		.space	1024
 1863      00000000 
 1863      00000000 
 1863      00000000 
 1863      00000000 
 1864              		.section	.bss.cancom_status_thread_wa,"aw",%nobits
 1865              		.align	3
 1866              		.set	.LANCHOR10,. + 0
 1867              		.type	cancom_status_thread_wa, %object
 1868              		.size	cancom_status_thread_wa, 1432
 1869              	cancom_status_thread_wa:
 1870 0000 00000000 		.space	1432
 1870      00000000 
 1870      00000000 
 1870      00000000 
ARM GAS  /var/folders/47/g7cdn6zj55s1hhv4njp6x8_h0000gn/T//ccvNwyLg.s 			page 34


 1870      00000000 
 1871              		.section	.bss.stat_msgs,"aw",%nobits
 1872              		.align	2
 1873              		.set	.LANCHOR6,. + 0
 1874              		.type	stat_msgs, %object
 1875              		.size	stat_msgs, 200
 1876              	stat_msgs:
 1877 0000 00000000 		.space	200
 1877      00000000 
 1877      00000000 
 1877      00000000 
 1877      00000000 
 1878              		.section	.bss.rx_frames,"aw",%nobits
 1879              		.align	2
 1880              		.set	.LANCHOR3,. + 0
 1881              		.type	rx_frames, %object
 1882              		.size	rx_frames, 2000
 1883              	rx_frames:
 1884 0000 00000000 		.space	2000
 1884      00000000 
 1884      00000000 
 1884      00000000 
 1884      00000000 
 1885              		.section	.rodata.str1.4,"aMS",%progbits,1
 1886              		.align	2
 1887              	.LC0:
 1888 0000 43616E63 		.ascii	"Cancom process\000"
 1888      6F6D2070 
 1888      726F6365 
 1888      737300
 1889 000f 00       		.space	1
 1890              	.LC1:
 1891 0010 43414E00 		.ascii	"CAN\000"
 1892              	.LC2:
 1893 0014 43414E20 		.ascii	"CAN status\000"
 1893      73746174 
 1893      757300
 1894              		.section	.bss.can_mtx,"aw",%nobits
 1895              		.align	2
 1896              		.set	.LANCHOR7,. + 0
 1897              		.type	can_mtx, %object
 1898              		.size	can_mtx, 16
 1899              	can_mtx:
 1900 0000 00000000 		.space	16
 1900      00000000 
 1900      00000000 
 1900      00000000 
 1901              		.section	.bss.cancom_read_thread_wa,"aw",%nobits
 1902              		.align	3
 1903              		.set	.LANCHOR9,. + 0
 1904              		.type	cancom_read_thread_wa, %object
 1905              		.size	cancom_read_thread_wa, 920
 1906              	cancom_read_thread_wa:
 1907 0000 00000000 		.space	920
 1907      00000000 
 1907      00000000 
 1907      00000000 
ARM GAS  /var/folders/47/g7cdn6zj55s1hhv4njp6x8_h0000gn/T//ccvNwyLg.s 			page 35


 1907      00000000 
 1908              		.section	.bss.process_tp,"aw",%nobits
 1909              		.align	2
 1910              		.set	.LANCHOR0,. + 0
 1911              		.type	process_tp, %object
 1912              		.size	process_tp, 4
 1913              	process_tp:
 1914 0000 00000000 		.space	4
 1915              		.section	.bss.rx_buffer_last_id,"aw",%nobits
 1916              		.align	2
 1917              		.set	.LANCHOR5,. + 0
 1918              		.type	rx_buffer_last_id, %object
 1919              		.size	rx_buffer_last_id, 4
 1920              	rx_buffer_last_id:
 1921 0000 00000000 		.space	4
 1922              		.section	.bss.rx_frame_write,"aw",%nobits
 1923              		.align	2
 1924              		.set	.LANCHOR2,. + 0
 1925              		.type	rx_frame_write, %object
 1926              		.size	rx_frame_write, 4
 1927              	rx_frame_write:
 1928 0000 00000000 		.space	4
 1929              		.text
 1930              	.Letext0:
 1931              		.file 7 "/usr/local/Cellar/arm-none-eabi-gcc/20150921/lib/gcc/arm-none-eabi/4.9.3/include/stddef.h
 1932              		.file 8 "/usr/local/Cellar/arm-none-eabi-gcc/20150921/arm-none-eabi/include/machine/_default_types
 1933              		.file 9 "/usr/local/Cellar/arm-none-eabi-gcc/20150921/arm-none-eabi/include/sys/_stdint.h"
 1934              		.file 10 "ChibiOS_3.0.2/os/rt/ports/ARMCMx/compilers/GCC/chtypes.h"
 1935              		.file 11 "ChibiOS_3.0.2/os/rt/include/chsystypes.h"
 1936              		.file 12 "ChibiOS_3.0.2/os/rt/include/chschd.h"
 1937              		.file 13 "ChibiOS_3.0.2/os/ext/CMSIS/ST/stm32f407xx.h"
 1938              		.file 14 "ChibiOS_3.0.2/os/rt/ports/ARMCMx/chcore.h"
 1939              		.file 15 "ChibiOS_3.0.2/os/rt/ports/ARMCMx/chcore_v7m.h"
 1940              		.file 16 "ChibiOS_3.0.2/os/rt/include/chtm.h"
 1941              		.file 17 "ChibiOS_3.0.2/os/rt/include/chsem.h"
 1942              		.file 18 "ChibiOS_3.0.2/os/rt/include/chmtx.h"
 1943              		.file 19 "datatypes.h"
 1944              		.file 20 "ChibiOS_3.0.2/os/hal/ports/STM32/LLD/GPIOv2/pal_lld.h"
 1945              		.file 21 "ChibiOS_3.0.2/os/hal/include/can.h"
 1946              		.file 22 "ChibiOS_3.0.2/os/hal/ports/STM32/LLD/can_lld.h"
 1947              		.file 23 "ChibiOS_3.0.2/os/rt/include/chsys.h"
 1948              		.file 24 "ChibiOS_3.0.2/os/ext/CMSIS/include/core_cm4.h"
 1949              		.file 25 "buffer.h"
 1950              		.file 26 "mc_interface.h"
 1951              		.file 27 "commands.h"
 1952              		.file 28 "crc.h"
 1953              		.file 29 "applications/app.h"
 1954              		.file 30 "encoder.h"
 1955              		.file 31 "timeout.h"