ARM GAS  /var/folders/47/g7cdn6zj55s1hhv4njp6x8_h0000gn/T//ccP9klwe.s 			page 1


   1              		.syntax unified
   2              		.cpu cortex-m4
   3              		.eabi_attribute 27, 1
   4              		.eabi_attribute 28, 1
   5              		.fpu fpv4-sp-d16
   6              		.eabi_attribute 20, 1
   7              		.eabi_attribute 21, 1
   8              		.eabi_attribute 23, 3
   9              		.eabi_attribute 24, 1
  10              		.eabi_attribute 25, 1
  11              		.eabi_attribute 26, 1
  12              		.eabi_attribute 30, 2
  13              		.eabi_attribute 34, 1
  14              		.eabi_attribute 18, 4
  15              		.thumb
  16              		.file	"main.c"
  17              		.text
  18              	.Ltext0:
  19              		.cfi_sections	.debug_frame
  20              		.section	.text.timer_thread,"ax",%progbits
  21              		.align	2
  22              		.p2align 4,,15
  23              		.thumb
  24              		.thumb_func
  25              		.type	timer_thread, %function
  26              	timer_thread:
  27              	.LFB257:
  28              		.file 1 "main.c"
  29              		.loc 1 146 0
  30              		.cfi_startproc
  31              		@ Volatile: function does not return.
  32              		@ args = 0, pretend = 0, frame = 0
  33              		@ frame_needed = 0, uses_anonymous_args = 0
  34              	.LVL0:
  35 0000 08B5     		push	{r3, lr}
  36              		.cfi_def_cfa_offset 8
  37              		.cfi_offset 3, -8
  38              		.cfi_offset 14, -4
  39              	.LBB8:
  40              	.LBB9:
  41              		.file 2 "ChibiOS_3.0.2/os/rt/include/chregistry.h"
  42              		.loc 2 135 0
  43 0002 054B     		ldr	r3, .L5
  44 0004 054A     		ldr	r2, .L5+4
  45 0006 9B69     		ldr	r3, [r3, #24]
  46 0008 9A61     		str	r2, [r3, #24]
  47              	.LVL1:
  48              	.L2:
  49              	.LBE9:
  50              	.LBE8:
  51              		.loc 1 152 0 discriminator 1
  52 000a FFF7FEFF 		bl	packet_timerfunc
  53              	.LVL2:
  54              		.loc 1 153 0 discriminator 1
  55 000e 0A20     		movs	r0, #10
  56 0010 FFF7FEFF 		bl	chThdSleep
  57              	.LVL3:
ARM GAS  /var/folders/47/g7cdn6zj55s1hhv4njp6x8_h0000gn/T//ccP9klwe.s 			page 2


  58              		.loc 1 154 0 discriminator 1
  59 0014 F9E7     		b	.L2
  60              	.L6:
  61 0016 00BF     		.align	2
  62              	.L5:
  63 0018 00000000 		.word	ch
  64 001c 00000000 		.word	.LC0
  65              		.cfi_endproc
  66              	.LFE257:
  67              		.size	timer_thread, .-timer_thread
  68              		.section	.text.periodic_thread,"ax",%progbits
  69              		.align	2
  70              		.p2align 4,,15
  71              		.thumb
  72              		.thumb_func
  73              		.type	periodic_thread, %function
  74              	periodic_thread:
  75              	.LFB256:
  76              		.loc 1 76 0
  77              		.cfi_startproc
  78              		@ args = 0, pretend = 0, frame = 0
  79              		@ frame_needed = 0, uses_anonymous_args = 0
  80              	.LVL4:
  81 0000 38B5     		push	{r3, r4, r5, lr}
  82              		.cfi_def_cfa_offset 16
  83              		.cfi_offset 3, -16
  84              		.cfi_offset 4, -12
  85              		.cfi_offset 5, -8
  86              		.cfi_offset 14, -4
  87              	.LBB10:
  88              	.LBB11:
  89              		.loc 2 135 0
  90 0002 464B     		ldr	r3, .L37
  91 0004 464A     		ldr	r2, .L37+4
  92 0006 9B69     		ldr	r3, [r3, #24]
  93              	.LBE11:
  94              	.LBE10:
  95              		.loc 1 76 0
  96 0008 2DED028B 		fstmfdd	sp!, {d8}
  97              		.cfi_def_cfa_offset 24
  98              		.cfi_offset 80, -24
  99              		.cfi_offset 81, -20
 100              	.LBB13:
 101              	.LBB12:
 102              		.loc 2 135 0
 103 000c 9A61     		str	r2, [r3, #24]
 104              	.LVL5:
 105              	.L22:
 106              	.LBE12:
 107              	.LBE13:
 108              	.LBB14:
 109              		.loc 1 82 0
 110 000e FFF7FEFF 		bl	mc_interface_get_state
 111              	.LVL6:
 112 0012 0228     		cmp	r0, #2
 113              		.loc 1 83 0
 114 0014 08BF     		it	eq
ARM GAS  /var/folders/47/g7cdn6zj55s1hhv4njp6x8_h0000gn/T//ccP9klwe.s 			page 3


 115 0016 B7EE000A 		fconstseq	s0, #112
 116 001a 4FF00000 		mov	r0, #0
 117              		.loc 1 85 0
 118 001e 18BF     		it	ne
 119 0020 9FED400A 		fldsne	s0, .L37+8
 120 0024 FFF7FEFF 		bl	ledpwm_set_intensity
 121              	.LVL7:
 122              		.loc 1 88 0
 123 0028 FFF7FEFF 		bl	mc_interface_get_fault
 124              	.LVL8:
 125              		.loc 1 89 0
 126 002c 0546     		mov	r5, r0
 127 002e 78B3     		cbz	r0, .L32
 128              	.LVL9:
 129              	.LBB15:
 130              		.loc 1 90 0
 131 0030 0024     		movs	r4, #0
 132              	.LVL10:
 133              	.L11:
 134              		.loc 1 91 0 discriminator 3
 135 0032 B7EE000A 		fconsts	s0, #112
 136 0036 0120     		movs	r0, #1
 137 0038 FFF7FEFF 		bl	ledpwm_set_intensity
 138              	.LVL11:
 139              		.loc 1 92 0 discriminator 3
 140 003c 40F6C410 		movw	r0, #2500
 141 0040 FFF7FEFF 		bl	chThdSleep
 142              	.LVL12:
 143              		.loc 1 93 0 discriminator 3
 144 0044 0120     		movs	r0, #1
 145 0046 9FED380A 		flds	s0, .L37+12
 146              		.loc 1 90 0 discriminator 3
 147 004a 0444     		add	r4, r4, r0
 148              	.LVL13:
 149              		.loc 1 93 0 discriminator 3
 150 004c FFF7FEFF 		bl	ledpwm_set_intensity
 151              	.LVL14:
 152              		.loc 1 94 0 discriminator 3
 153 0050 40F6C410 		movw	r0, #2500
 154 0054 FFF7FEFF 		bl	chThdSleep
 155              	.LVL15:
 156              		.loc 1 90 0 discriminator 3
 157 0058 AC42     		cmp	r4, r5
 158 005a EAD1     		bne	.L11
 159              	.LBE15:
 160              		.loc 1 97 0
 161 005c 41F28830 		movw	r0, #5000
 162 0060 FFF7FEFF 		bl	chThdSleep
 163              	.LVL16:
 164              		.loc 1 102 0
 165 0064 FFF7FEFF 		bl	mc_interface_get_state
 166              	.LVL17:
 167 0068 0128     		cmp	r0, #1
 168 006a 1AD0     		beq	.L33
 169              	.LVL18:
 170              	.L13:
 171              		.loc 1 106 0
ARM GAS  /var/folders/47/g7cdn6zj55s1hhv4njp6x8_h0000gn/T//ccP9klwe.s 			page 4


 172 006c FFF7FEFF 		bl	commands_get_disp_pos_mode
 173              	.LVL19:
 174              		.loc 1 108 0
 175 0070 0428     		cmp	r0, #4
 176              		.loc 1 106 0
 177 0072 0446     		mov	r4, r0
 178              	.LVL20:
 179              		.loc 1 108 0
 180 0074 1ED0     		beq	.L15
 181              	.L36:
 182 0076 0528     		cmp	r0, #5
 183 0078 3CD0     		beq	.L16
 184 007a 0328     		cmp	r0, #3
 185 007c 32D0     		beq	.L34
 186              		.loc 1 127 0
 187 007e FFF7FEFF 		bl	mc_interface_get_configuration
 188              	.LVL21:
 189 0082 8378     		ldrb	r3, [r0, #2]	@ zero_extendqisi2
 190 0084 022B     		cmp	r3, #2
 191 0086 1AD0     		beq	.L35
 192              	.L19:
 193              		.loc 1 142 0
 194 0088 6420     		movs	r0, #100
 195 008a FFF7FEFF 		bl	chThdSleep
 196              	.LVL22:
 197              	.LBE14:
 198              		.loc 1 143 0
 199 008e BEE7     		b	.L22
 200              	.LVL23:
 201              	.L32:
 202              	.LBB16:
 203              		.loc 1 99 0
 204 0090 0120     		movs	r0, #1
 205              	.LVL24:
 206 0092 9FED250A 		flds	s0, .L37+12
 207 0096 FFF7FEFF 		bl	ledpwm_set_intensity
 208              	.LVL25:
 209              		.loc 1 102 0
 210 009a FFF7FEFF 		bl	mc_interface_get_state
 211              	.LVL26:
 212 009e 0128     		cmp	r0, #1
 213 00a0 E4D1     		bne	.L13
 214              	.L33:
 215              		.loc 1 103 0
 216 00a2 FFF7FEFF 		bl	mcpwm_get_detect_pos
 217              	.LVL27:
 218 00a6 FFF7FEFF 		bl	commands_send_rotor_pos
 219              	.LVL28:
 220              		.loc 1 106 0
 221 00aa FFF7FEFF 		bl	commands_get_disp_pos_mode
 222              	.LVL29:
 223              		.loc 1 108 0
 224 00ae 0428     		cmp	r0, #4
 225              		.loc 1 106 0
 226 00b0 0446     		mov	r4, r0
 227              	.LVL30:
 228              		.loc 1 108 0
ARM GAS  /var/folders/47/g7cdn6zj55s1hhv4njp6x8_h0000gn/T//ccP9klwe.s 			page 5


 229 00b2 E0D1     		bne	.L36
 230              	.L15:
 231              		.loc 1 116 0
 232 00b4 FFF7FEFF 		bl	mc_interface_get_pid_pos_set
 233              	.LVL31:
 234 00b8 FFF7FEFF 		bl	commands_send_rotor_pos
 235              	.LVL32:
 236              		.loc 1 117 0
 237 00bc 16E0     		b	.L18
 238              	.L35:
 239              		.loc 1 128 0
 240 00be 022C     		cmp	r4, #2
 241 00c0 27D0     		beq	.L20
 242 00c2 062C     		cmp	r4, #6
 243 00c4 E0D1     		bne	.L19
 244              		.loc 1 134 0
 245 00c6 FFF7FEFF 		bl	mcpwm_foc_get_phase_observer
 246              	.LVL33:
 247 00ca B0EE408A 		fcpys	s16, s0
 248 00ce FFF7FEFF 		bl	mcpwm_foc_get_phase_encoder
 249              	.LVL34:
 250 00d2 F0EE400A 		fcpys	s1, s0
 251 00d6 B0EE480A 		fcpys	s0, s16
 252 00da FFF7FEFF 		bl	utils_angle_difference
 253              	.LVL35:
 254 00de FFF7FEFF 		bl	commands_send_rotor_pos
 255              	.LVL36:
 256              		.loc 1 135 0
 257 00e2 D1E7     		b	.L19
 258              	.LVL37:
 259              	.L34:
 260              		.loc 1 110 0
 261 00e4 FFF7FEFF 		bl	encoder_read_deg
 262              	.LVL38:
 263 00e8 FFF7FEFF 		bl	commands_send_rotor_pos
 264              	.LVL39:
 265              	.L18:
 266              		.loc 1 127 0
 267 00ec FFF7FEFF 		bl	mc_interface_get_configuration
 268              	.LVL40:
 269 00f0 8378     		ldrb	r3, [r0, #2]	@ zero_extendqisi2
 270 00f2 C9E7     		b	.L19
 271              	.LVL41:
 272              	.L16:
 273              		.loc 1 120 0
 274 00f4 FFF7FEFF 		bl	mc_interface_get_pid_pos_set
 275              	.LVL42:
 276 00f8 B0EE408A 		fcpys	s16, s0
 277 00fc FFF7FEFF 		bl	mc_interface_get_pid_pos_now
 278              	.LVL43:
 279 0100 F0EE400A 		fcpys	s1, s0
 280 0104 B0EE480A 		fcpys	s0, s16
 281 0108 FFF7FEFF 		bl	utils_angle_difference
 282              	.LVL44:
 283 010c FFF7FEFF 		bl	commands_send_rotor_pos
 284              	.LVL45:
 285              		.loc 1 121 0
ARM GAS  /var/folders/47/g7cdn6zj55s1hhv4njp6x8_h0000gn/T//ccP9klwe.s 			page 6


 286 0110 ECE7     		b	.L18
 287              	.L20:
 288              		.loc 1 130 0
 289 0112 FFF7FEFF 		bl	mcpwm_foc_get_phase_observer
 290              	.LVL46:
 291 0116 FFF7FEFF 		bl	commands_send_rotor_pos
 292              	.LVL47:
 293              		.loc 1 131 0
 294 011a B5E7     		b	.L19
 295              	.L38:
 296              		.align	2
 297              	.L37:
 298 011c 00000000 		.word	ch
 299 0120 0C000000 		.word	.LC1
 300 0124 CDCC4C3E 		.word	1045220557
 301 0128 00000000 		.word	0
 302              	.LBE16:
 303              		.cfi_endproc
 304              	.LFE256:
 305              		.size	periodic_thread, .-periodic_thread
 306              		.section	.text.startup.main,"ax",%progbits
 307              		.align	2
 308              		.p2align 4,,15
 309              		.global	main
 310              		.thumb
 311              		.thumb_func
 312              		.type	main, %function
 313              	main:
 314              	.LFB258:
 315              		.loc 1 157 0
 316              		.cfi_startproc
 317              		@ args = 0, pretend = 0, frame = 472
 318              		@ frame_needed = 0, uses_anonymous_args = 0
 319 0000 10B5     		push	{r4, lr}
 320              		.cfi_def_cfa_offset 8
 321              		.cfi_offset 4, -8
 322              		.cfi_offset 14, -4
 323 0002 F8B0     		sub	sp, sp, #480
 324              		.cfi_def_cfa_offset 488
 325              		.loc 1 158 0
 326 0004 FFF7FEFF 		bl	halInit
 327              	.LVL48:
 328              		.loc 1 159 0
 329 0008 FFF7FEFF 		bl	chSysInit
 330              	.LVL49:
 331              		.loc 1 161 0
 332 000c 42F21070 		movw	r0, #10000
 333 0010 FFF7FEFF 		bl	chThdSleep
 334              	.LVL50:
 335              		.loc 1 163 0
 336 0014 FFF7FEFF 		bl	hw_init_gpio
 337              	.LVL51:
 338              		.loc 1 164 0
 339 0018 1F4B     		ldr	r3, .L45
 340 001a 2021     		movs	r1, #32
 341              		.loc 1 165 0
 342 001c 1022     		movs	r2, #16
ARM GAS  /var/folders/47/g7cdn6zj55s1hhv4njp6x8_h0000gn/T//ccP9klwe.s 			page 7


 343              		.loc 1 164 0
 344 001e 5983     		strh	r1, [r3, #26]	@ movhi
 345              		.loc 1 165 0
 346 0020 5A83     		strh	r2, [r3, #26]	@ movhi
 347              		.loc 1 167 0
 348 0022 FFF7FEFF 		bl	conf_general_init
 349              	.LVL52:
 350              		.loc 1 168 0
 351 0026 FFF7FEFF 		bl	ledpwm_init
 352              	.LVL53:
 353              		.loc 1 171 0
 354 002a 2BA8     		add	r0, sp, #172
 355 002c FFF7FEFF 		bl	conf_general_read_mc_configuration
 356              	.LVL54:
 357              		.loc 1 172 0
 358 0030 2BA8     		add	r0, sp, #172
 359 0032 FFF7FEFF 		bl	mc_interface_init
 360              	.LVL55:
 361              		.loc 1 174 0
 362 0036 FFF7FEFF 		bl	commands_init
 363              	.LVL56:
 364              		.loc 1 175 0
 365 003a FFF7FEFF 		bl	comm_usb_init
 366              	.LVL57:
 367              		.loc 1 178 0
 368 003e 03A8     		add	r0, sp, #12
 369 0040 FFF7FEFF 		bl	conf_general_read_app_configuration
 370              	.LVL58:
 371              		.loc 1 179 0
 372 0044 03A8     		add	r0, sp, #12
 373 0046 FFF7FEFF 		bl	app_init
 374              	.LVL59:
 375              		.loc 1 202 0
 376 004a 0024     		movs	r4, #0
 377              		.loc 1 181 0
 378 004c FFF7FEFF 		bl	timeout_init
 379              	.LVL60:
 380              		.loc 1 182 0
 381 0050 0498     		ldr	r0, [sp, #16]
 382 0052 9DED050A 		flds	s0, [sp, #20]
 383 0056 FFF7FEFF 		bl	timeout_configure
 384              	.LVL61:
 385              		.loc 1 185 0
 386 005a FFF7FEFF 		bl	comm_can_init
 387              	.LVL62:
 388              		.loc 1 202 0
 389 005e 0F4B     		ldr	r3, .L45+4
 390 0060 0094     		str	r4, [sp]
 391 0062 4FF4B361 		mov	r1, #1432
 392 0066 4022     		movs	r2, #64
 393 0068 0D48     		ldr	r0, .L45+8
 394 006a FFF7FEFF 		bl	chThdCreateStatic
 395              	.LVL63:
 396              		.loc 1 203 0
 397 006e 0094     		str	r4, [sp]
 398 0070 0C48     		ldr	r0, .L45+12
 399 0072 0D4B     		ldr	r3, .L45+16
ARM GAS  /var/folders/47/g7cdn6zj55s1hhv4njp6x8_h0000gn/T//ccP9klwe.s 			page 8


 400 0074 4FF40671 		mov	r1, #536
 401 0078 4022     		movs	r2, #64
 402 007a FFF7FEFF 		bl	chThdCreateStatic
 403              	.LVL64:
 404              	.L40:
 405              	.LBB17:
 406              		.loc 1 211 0
 407 007e 0520     		movs	r0, #5
 408 0080 FFF7FEFF 		bl	chThdSleep
 409              	.LVL65:
 410              		.loc 1 213 0
 411 0084 FFF7FEFF 		bl	encoder_is_configured
 412              	.LVL66:
 413 0088 0028     		cmp	r0, #0
 414 008a F8D0     		beq	.L40
 415              		.loc 1 215 0
 416 008c FFF7FEFF 		bl	encoder_read_deg
 417              	.LVL67:
 418 0090 FFF7FEFF 		bl	commands_send_rotor_pos
 419              	.LVL68:
 420 0094 F3E7     		b	.L40
 421              	.L46:
 422 0096 00BF     		.align	2
 423              	.L45:
 424 0098 00080240 		.word	1073874944
 425 009c 00000000 		.word	periodic_thread
 426 00a0 00000000 		.word	.LANCHOR0
 427 00a4 00000000 		.word	.LANCHOR1
 428 00a8 00000000 		.word	timer_thread
 429              	.LBE17:
 430              		.cfi_endproc
 431              	.LFE258:
 432              		.size	main, .-main
 433              		.section	.bss.timer_thread_wa,"aw",%nobits
 434              		.align	3
 435              		.set	.LANCHOR1,. + 0
 436              		.type	timer_thread_wa, %object
 437              		.size	timer_thread_wa, 536
 438              	timer_thread_wa:
 439 0000 00000000 		.space	536
 439      00000000 
 439      00000000 
 439      00000000 
 439      00000000 
 440              		.section	.rodata.str1.4,"aMS",%progbits,1
 441              		.align	2
 442              	.LC0:
 443 0000 6D736563 		.ascii	"msec_timer\000"
 443      5F74696D 
 443      657200
 444 000b 00       		.space	1
 445              	.LC1:
 446 000c 4D61696E 		.ascii	"Main periodic\000"
 446      20706572 
 446      696F6469 
 446      6300
 447              		.section	.bss.periodic_thread_wa,"aw",%nobits
ARM GAS  /var/folders/47/g7cdn6zj55s1hhv4njp6x8_h0000gn/T//ccP9klwe.s 			page 9


 448              		.align	3
 449              		.set	.LANCHOR0,. + 0
 450              		.type	periodic_thread_wa, %object
 451              		.size	periodic_thread_wa, 1432
 452              	periodic_thread_wa:
 453 0000 00000000 		.space	1432
 453      00000000 
 453      00000000 
 453      00000000 
 453      00000000 
 454              		.text
 455              	.Letext0:
 456              		.file 3 "/usr/local/Cellar/arm-none-eabi-gcc/20150921/lib/gcc/arm-none-eabi/4.9.3/include/stddef.h
 457              		.file 4 "/usr/local/Cellar/arm-none-eabi-gcc/20150921/arm-none-eabi/include/machine/_default_types
 458              		.file 5 "/usr/local/Cellar/arm-none-eabi-gcc/20150921/arm-none-eabi/include/sys/_stdint.h"
 459              		.file 6 "ChibiOS_3.0.2/os/rt/ports/ARMCMx/compilers/GCC/chtypes.h"
 460              		.file 7 "ChibiOS_3.0.2/os/rt/include/chsystypes.h"
 461              		.file 8 "ChibiOS_3.0.2/os/rt/include/chschd.h"
 462              		.file 9 "ChibiOS_3.0.2/os/rt/ports/ARMCMx/chcore.h"
 463              		.file 10 "ChibiOS_3.0.2/os/rt/ports/ARMCMx/chcore_v7m.h"
 464              		.file 11 "ChibiOS_3.0.2/os/rt/include/chtm.h"
 465              		.file 12 "ChibiOS_3.0.2/os/rt/include/chsem.h"
 466              		.file 13 "ChibiOS_3.0.2/os/rt/include/chmtx.h"
 467              		.file 14 "ChibiOS_3.0.2/os/rt/include/chthreads.h"
 468              		.file 15 "ChibiOS_3.0.2/os/hal/ports/STM32/LLD/GPIOv2/pal_lld.h"
 469              		.file 16 "datatypes.h"
 470              		.file 17 "ledpwm.h"
 471              		.file 18 "mc_interface.h"
 472              		.file 19 "commands.h"
 473              		.file 20 "mcpwm.h"
 474              		.file 21 "mcpwm_foc.h"
 475              		.file 22 "encoder.h"
 476              		.file 23 "packet.h"
 477              		.file 24 "ChibiOS_3.0.2/os/hal/include/hal.h"
 478              		.file 25 "ChibiOS_3.0.2/os/rt/include/chsys.h"
 479              		.file 26 "hwconf/hw.h"
 480              		.file 27 "conf_general.h"
 481              		.file 28 "comm_usb.h"
 482              		.file 29 "applications/app.h"
 483              		.file 30 "timeout.h"
 484              		.file 31 "comm_can.h"
 485              		.file 32 "ChibiOS_3.0.2/os/ext/CMSIS/include/core_cm4.h"
 486              		.file 33 "utils.h"