ARM GAS  /var/folders/47/g7cdn6zj55s1hhv4njp6x8_h0000gn/T//cc224n80.s 			page 1


   1              		.syntax unified
   2              		.cpu cortex-m4
   3              		.eabi_attribute 27, 1
   4              		.eabi_attribute 28, 1
   5              		.fpu fpv4-sp-d16
   6              		.eabi_attribute 20, 1
   7              		.eabi_attribute 21, 1
   8              		.eabi_attribute 23, 3
   9              		.eabi_attribute 24, 1
  10              		.eabi_attribute 25, 1
  11              		.eabi_attribute 26, 1
  12              		.eabi_attribute 30, 2
  13              		.eabi_attribute 34, 1
  14              		.eabi_attribute 18, 4
  15              		.thumb
  16              		.file	"mc_interface.c"
  17              		.text
  18              	.Ltext0:
  19              		.cfi_sections	.debug_frame
  20              		.section	.text.sample_send_thread,"ax",%progbits
  21              		.align	2
  22              		.p2align 4,,15
  23              		.thumb
  24              		.thumb_func
  25              		.type	sample_send_thread, %function
  26              	sample_send_thread:
  27              	.LFB305:
  28              		.file 1 "mc_interface.c"
  29              		.loc 1 1142 0
  30              		.cfi_startproc
  31              		@ args = 0, pretend = 0, frame = 32
  32              		@ frame_needed = 0, uses_anonymous_args = 0
  33              	.LVL0:
  34 0000 2DE9F04F 		push	{r4, r5, r6, r7, r8, r9, r10, fp, lr}
  35              		.cfi_def_cfa_offset 36
  36              		.cfi_offset 4, -36
  37              		.cfi_offset 5, -32
  38              		.cfi_offset 6, -28
  39              		.cfi_offset 7, -24
  40              		.cfi_offset 8, -20
  41              		.cfi_offset 9, -16
  42              		.cfi_offset 10, -12
  43              		.cfi_offset 11, -8
  44              		.cfi_offset 14, -4
  45              	.LBB65:
  46              	.LBB66:
  47              		.file 2 "ChibiOS_3.0.2/os/rt/include/chregistry.h"
  48              		.loc 2 135 0
  49 0004 3D4B     		ldr	r3, .L9
  50              	.LBE66:
  51              	.LBE65:
  52              		.loc 1 1147 0
  53 0006 3E4A     		ldr	r2, .L9+4
  54              	.LBB68:
  55              	.LBB67:
  56              		.loc 2 135 0
  57 0008 9B69     		ldr	r3, [r3, #24]
ARM GAS  /var/folders/47/g7cdn6zj55s1hhv4njp6x8_h0000gn/T//cc224n80.s 			page 2


  58 000a 3E49     		ldr	r1, .L9+8
  59 000c DFF810B1 		ldr	fp, .L9+36
  60 0010 DFF810A1 		ldr	r10, .L9+40
  61 0014 DFF81091 		ldr	r9, .L9+44
  62 0018 DFF81081 		ldr	r8, .L9+48
  63 001c 3A4F     		ldr	r7, .L9+12
  64 001e 3B4E     		ldr	r6, .L9+16
  65 0020 3B4D     		ldr	r5, .L9+20
  66 0022 3C4C     		ldr	r4, .L9+24
  67 0024 9961     		str	r1, [r3, #24]
  68              	.LBE67:
  69              	.LBE68:
  70              		.loc 1 1142 0
  71 0026 89B0     		sub	sp, sp, #36
  72              		.cfi_def_cfa_offset 72
  73              		.loc 1 1147 0
  74 0028 1360     		str	r3, [r2]
  75              	.LVL1:
  76              	.L3:
  77              		.loc 1 1150 0
  78 002a 0120     		movs	r0, #1
  79 002c FFF7FEFF 		bl	chEvtWaitAny
  80              	.LVL2:
  81              	.LBB69:
  82              		.loc 1 1152 0
  83 0030 394B     		ldr	r3, .L9+28
  84 0032 1B68     		ldr	r3, [r3]
  85 0034 002B     		cmp	r3, #0
  86 0036 F8DD     		ble	.L3
  87 0038 0023     		movs	r3, #0
  88              	.LVL3:
  89              	.L2:
  90              	.LBB70:
  91              		.loc 1 1156 0 discriminator 3
  92 003a 3BF81300 		ldrh	r0, [fp, r3, lsl #1]
  93              		.loc 1 1157 0 discriminator 3
  94 003e 3BF81320 		ldrh	r2, [fp, r3, lsl #1]
  95 0042 8DF80D20 		strb	r2, [sp, #13]
  96              		.loc 1 1158 0 discriminator 3
  97 0046 3AF81310 		ldrh	r1, [r10, r3, lsl #1]
  98              		.loc 1 1159 0 discriminator 3
  99 004a 3AF813E0 		ldrh	lr, [r10, r3, lsl #1]
 100              		.loc 1 1160 0 discriminator 3
 101 004e 39F81320 		ldrh	r2, [r9, r3, lsl #1]
 102              		.loc 1 1159 0 discriminator 3
 103 0052 8DF80FE0 		strb	lr, [sp, #15]
 104              		.loc 1 1161 0 discriminator 3
 105 0056 39F813E0 		ldrh	lr, [r9, r3, lsl #1]
 106 005a 8DF811E0 		strb	lr, [sp, #17]
 107              		.loc 1 1160 0 discriminator 3
 108 005e 42F30722 		sbfx	r2, r2, #8, #8
 109              		.loc 1 1162 0 discriminator 3
 110 0062 38F813E0 		ldrh	lr, [r8, r3, lsl #1]
 111              		.loc 1 1160 0 discriminator 3
 112 0066 8DF81020 		strb	r2, [sp, #16]
 113              		.loc 1 1168 0 discriminator 3
 114 006a 2C4A     		ldr	r2, .L9+32
ARM GAS  /var/folders/47/g7cdn6zj55s1hhv4njp6x8_h0000gn/T//cc224n80.s 			page 3


 115              		.loc 1 1163 0 discriminator 3
 116 006c 38F813C0 		ldrh	ip, [r8, r3, lsl #1]
 117 0070 8DF813C0 		strb	ip, [sp, #19]
 118              		.loc 1 1156 0 discriminator 3
 119 0074 40F30720 		sbfx	r0, r0, #8, #8
 120              		.loc 1 1158 0 discriminator 3
 121 0078 41F30721 		sbfx	r1, r1, #8, #8
 122              		.loc 1 1162 0 discriminator 3
 123 007c 4EF3072E 		sbfx	lr, lr, #8, #8
 124              		.loc 1 1156 0 discriminator 3
 125 0080 8DF80C00 		strb	r0, [sp, #12]
 126              	.LVL4:
 127              		.loc 1 1158 0 discriminator 3
 128 0084 8DF80E10 		strb	r1, [sp, #14]
 129              	.LVL5:
 130              		.loc 1 1164 0 discriminator 3
 131 0088 37F81300 		ldrh	r0, [r7, r3, lsl #1]
 132              		.loc 1 1162 0 discriminator 3
 133 008c 8DF812E0 		strb	lr, [sp, #18]
 134              	.LVL6:
 135              		.loc 1 1165 0 discriminator 3
 136 0090 37F81310 		ldrh	r1, [r7, r3, lsl #1]
 137              		.loc 1 1166 0 discriminator 3
 138 0094 36F813C0 		ldrh	ip, [r6, r3, lsl #1]
 139              		.loc 1 1167 0 discriminator 3
 140 0098 36F813E0 		ldrh	lr, [r6, r3, lsl #1]
 141              		.loc 1 1168 0 discriminator 3
 142 009c D25C     		ldrb	r2, [r2, r3]	@ zero_extendqisi2
 143              		.loc 1 1165 0 discriminator 3
 144 009e 8DF81510 		strb	r1, [sp, #21]
 145              		.loc 1 1168 0 discriminator 3
 146 00a2 8DF81820 		strb	r2, [sp, #24]
 147              		.loc 1 1169 0 discriminator 3
 148 00a6 35F81310 		ldrh	r1, [r5, r3, lsl #1]
 149              		.loc 1 1170 0 discriminator 3
 150 00aa 35F81320 		ldrh	r2, [r5, r3, lsl #1]
 151 00ae 8DF81A20 		strb	r2, [sp, #26]
 152              		.loc 1 1171 0 discriminator 3
 153 00b2 34F81320 		ldrh	r2, [r4, r3, lsl #1]
 154              		.loc 1 1167 0 discriminator 3
 155 00b6 8DF817E0 		strb	lr, [sp, #23]
 156              		.loc 1 1164 0 discriminator 3
 157 00ba 40F30720 		sbfx	r0, r0, #8, #8
 158              		.loc 1 1169 0 discriminator 3
 159 00be 41F30721 		sbfx	r1, r1, #8, #8
 160              		.loc 1 1172 0 discriminator 3
 161 00c2 34F813E0 		ldrh	lr, [r4, r3, lsl #1]
 162              		.loc 1 1164 0 discriminator 3
 163 00c6 8DF81400 		strb	r0, [sp, #20]
 164              	.LVL7:
 165              		.loc 1 1171 0 discriminator 3
 166 00ca 42F30722 		sbfx	r2, r2, #8, #8
 167              		.loc 1 1166 0 discriminator 3
 168 00ce 4CF3072C 		sbfx	ip, ip, #8, #8
 169              		.loc 1 1169 0 discriminator 3
 170 00d2 8DF81910 		strb	r1, [sp, #25]
 171              		.loc 1 1174 0 discriminator 3
ARM GAS  /var/folders/47/g7cdn6zj55s1hhv4njp6x8_h0000gn/T//cc224n80.s 			page 4


 172 00d6 03A8     		add	r0, sp, #12
 173 00d8 1121     		movs	r1, #17
 174              		.loc 1 1172 0 discriminator 3
 175 00da 0193     		str	r3, [sp, #4]
 176              		.loc 1 1166 0 discriminator 3
 177 00dc 8DF816C0 		strb	ip, [sp, #22]
 178              	.LVL8:
 179              		.loc 1 1171 0 discriminator 3
 180 00e0 8DF81B20 		strb	r2, [sp, #27]
 181              	.LVL9:
 182              		.loc 1 1172 0 discriminator 3
 183 00e4 8DF81CE0 		strb	lr, [sp, #28]
 184              		.loc 1 1174 0 discriminator 3
 185 00e8 FFF7FEFF 		bl	commands_send_samples
 186              	.LVL10:
 187              	.LBE70:
 188              		.loc 1 1152 0 discriminator 3
 189 00ec 0A4B     		ldr	r3, .L9+28
 190 00ee 1A68     		ldr	r2, [r3]
 191 00f0 019B     		ldr	r3, [sp, #4]
 192 00f2 0133     		adds	r3, r3, #1
 193              	.LVL11:
 194 00f4 9A42     		cmp	r2, r3
 195 00f6 A0DC     		bgt	.L2
 196 00f8 97E7     		b	.L3
 197              	.L10:
 198 00fa 00BF     		.align	2
 199              	.L9:
 200 00fc 00000000 		.word	ch
 201 0100 00000000 		.word	.LANCHOR0
 202 0104 00000000 		.word	.LC0
 203 0108 00000000 		.word	.LANCHOR6
 204 010c 00000000 		.word	.LANCHOR7
 205 0110 00000000 		.word	.LANCHOR9
 206 0114 00000000 		.word	.LANCHOR10
 207 0118 00000000 		.word	.LANCHOR1
 208 011c 00000000 		.word	.LANCHOR8
 209 0120 00000000 		.word	.LANCHOR2
 210 0124 00000000 		.word	.LANCHOR3
 211 0128 00000000 		.word	.LANCHOR4
 212 012c 00000000 		.word	.LANCHOR5
 213              	.LBE69:
 214              		.cfi_endproc
 215              	.LFE305:
 216              		.size	sample_send_thread, .-sample_send_thread
 217              		.section	.text.mc_interface_init,"ax",%progbits
 218              		.align	2
 219              		.p2align 4,,15
 220              		.global	mc_interface_init
 221              		.thumb
 222              		.thumb_func
 223              		.type	mc_interface_init, %function
 224              	mc_interface_init:
 225              	.LFB256:
 226              		.loc 1 92 0
 227              		.cfi_startproc
 228              		@ args = 0, pretend = 0, frame = 0
ARM GAS  /var/folders/47/g7cdn6zj55s1hhv4njp6x8_h0000gn/T//cc224n80.s 			page 5


 229              		@ frame_needed = 0, uses_anonymous_args = 0
 230              	.LVL12:
 231 0000 2DE9F04F 		push	{r4, r5, r6, r7, r8, r9, r10, fp, lr}
 232              		.cfi_def_cfa_offset 36
 233              		.cfi_offset 4, -36
 234              		.cfi_offset 5, -32
 235              		.cfi_offset 6, -28
 236              		.cfi_offset 7, -24
 237              		.cfi_offset 8, -20
 238              		.cfi_offset 9, -16
 239              		.cfi_offset 10, -12
 240              		.cfi_offset 11, -8
 241              		.cfi_offset 14, -4
 242              		.loc 1 93 0
 243 0004 424D     		ldr	r5, .L23
 244              		.loc 1 96 0
 245 0006 434E     		ldr	r6, .L23+4
 246              		.loc 1 99 0
 247 0008 DFF83CB1 		ldr	fp, .L23+56
 248              		.loc 1 100 0
 249 000c DFF83C91 		ldr	r9, .L23+60
 250              		.loc 1 103 0
 251 0010 DFF83CA1 		ldr	r10, .L23+64
 252              		.loc 1 104 0
 253 0014 DFF83C81 		ldr	r8, .L23+68
 254              		.loc 1 105 0
 255 0018 3F4F     		ldr	r7, .L23+8
 256              		.loc 1 92 0
 257 001a 83B0     		sub	sp, sp, #12
 258              		.cfi_def_cfa_offset 48
 259              		.loc 1 92 0
 260 001c 0146     		mov	r1, r0
 261              		.loc 1 93 0
 262 001e 4FF49A72 		mov	r2, #308
 263 0022 2846     		mov	r0, r5
 264              	.LVL13:
 265 0024 FFF7FEFF 		bl	memcpy
 266              	.LVL14:
 267              		.loc 1 94 0
 268 0028 0024     		movs	r4, #0
 269              		.loc 1 97 0
 270 002a 3C48     		ldr	r0, .L23+12
 271              		.loc 1 98 0
 272 002c 3C4A     		ldr	r2, .L23+16
 273              		.loc 1 101 0
 274 002e DFF828C1 		ldr	ip, .L23+72
 275              		.loc 1 102 0
 276 0032 DFF828E1 		ldr	lr, .L23+76
 277              		.loc 1 118 0
 278 0036 0094     		str	r4, [sp]
 279              		.loc 1 99 0
 280 0038 0023     		movs	r3, #0
 281              		.loc 1 96 0
 282 003a 3460     		str	r4, [r6]
 283              		.loc 1 106 0
 284 003c 3949     		ldr	r1, .L23+20
 285              		.loc 1 107 0
ARM GAS  /var/folders/47/g7cdn6zj55s1hhv4njp6x8_h0000gn/T//cc224n80.s 			page 6


 286 003e 3A4E     		ldr	r6, .L23+24
 287              		.loc 1 97 0
 288 0040 0470     		strb	r4, [r0]
 289              		.loc 1 98 0
 290 0042 1470     		strb	r4, [r2]
 291              		.loc 1 108 0
 292 0044 3948     		ldr	r0, .L23+28
 293              		.loc 1 99 0
 294 0046 CBF80030 		str	r3, [fp]	@ float
 295              		.loc 1 110 0
 296 004a 394A     		ldr	r2, .L23+32
 297              		.loc 1 100 0
 298 004c C9F80030 		str	r3, [r9]	@ float
 299              		.loc 1 111 0
 300 0050 DFF80CB1 		ldr	fp, .L23+80
 301              		.loc 1 101 0
 302 0054 CCF80030 		str	r3, [ip]	@ float
 303              		.loc 1 112 0
 304 0058 DFF80891 		ldr	r9, .L23+84
 305              		.loc 1 102 0
 306 005c CEF80030 		str	r3, [lr]	@ float
 307              		.loc 1 113 0
 308 0060 DFF804C1 		ldr	ip, .L23+88
 309              		.loc 1 103 0
 310 0064 CAF80030 		str	r3, [r10]	@ float
 311              		.loc 1 114 0
 312 0068 DFF800E1 		ldr	lr, .L23+92
 313              		.loc 1 104 0
 314 006c C8F80030 		str	r3, [r8]	@ float
 315              		.loc 1 94 0
 316 0070 DFF8FCA0 		ldr	r10, .L23+96
 317              		.loc 1 105 0
 318 0074 3B60     		str	r3, [r7]	@ float
 319              		.loc 1 95 0
 320 0076 DFF8FC80 		ldr	r8, .L23+100
 321              		.loc 1 115 0
 322 007a 2E4F     		ldr	r7, .L23+36
 323              		.loc 1 106 0
 324 007c 0B60     		str	r3, [r1]	@ float
 325              		.loc 1 107 0
 326 007e 3360     		str	r3, [r6]	@ float
 327              		.loc 1 110 0
 328 0080 4FF47A71 		mov	r1, #1000
 329              		.loc 1 111 0
 330 0084 0126     		movs	r6, #1
 331              		.loc 1 108 0
 332 0086 0360     		str	r3, [r0]	@ float
 333              		.loc 1 94 0
 334 0088 8AF80040 		strb	r4, [r10]
 335              		.loc 1 110 0
 336 008c 1160     		str	r1, [r2]
 337              		.loc 1 118 0
 338 008e 2A4B     		ldr	r3, .L23+40
 339              		.loc 1 111 0
 340 0090 CBF80060 		str	r6, [fp]
 341              		.loc 1 118 0
 342 0094 4FF4B361 		mov	r1, #1432
ARM GAS  /var/folders/47/g7cdn6zj55s1hhv4njp6x8_h0000gn/T//cc224n80.s 			page 7


 343              		.loc 1 112 0
 344 0098 C9F80060 		str	r6, [r9]
 345              		.loc 1 118 0
 346 009c 4022     		movs	r2, #64
 347              		.loc 1 113 0
 348 009e CCF80040 		str	r4, [ip]
 349              		.loc 1 118 0
 350 00a2 2648     		ldr	r0, .L23+44
 351              		.loc 1 114 0
 352 00a4 CEF80040 		str	r4, [lr]
 353              		.loc 1 95 0
 354 00a8 C8F80040 		str	r4, [r8]
 355              		.loc 1 115 0
 356 00ac 3C60     		str	r4, [r7]
 357              		.loc 1 118 0
 358 00ae FFF7FEFF 		bl	chThdCreateStatic
 359              	.LVL15:
 360              		.loc 1 119 0
 361 00b2 234B     		ldr	r3, .L23+48
 362 00b4 0094     		str	r4, [sp]
 363 00b6 2348     		ldr	r0, .L23+52
 364 00b8 4FF4B361 		mov	r1, #1432
 365 00bc 3F22     		movs	r2, #63
 366 00be FFF7FEFF 		bl	chThdCreateStatic
 367              	.LVL16:
 368              		.loc 1 123 0
 369 00c2 95F83031 		ldrb	r3, [r5, #304]	@ zero_extendqisi2
 370 00c6 DBB2     		uxtb	r3, r3
 371 00c8 B342     		cmp	r3, r6
 372 00ca 1CD0     		beq	.L13
 373 00cc 022B     		cmp	r3, #2
 374 00ce 0BD0     		beq	.L14
 375              	.L12:
 376              		.loc 1 138 0
 377 00d0 AB78     		ldrb	r3, [r5, #2]	@ zero_extendqisi2
 378 00d2 DBB2     		uxtb	r3, r3
 379 00d4 012B     		cmp	r3, #1
 380 00d6 0DD9     		bls	.L16
 381              	.L22:
 382 00d8 022B     		cmp	r3, #2
 383 00da 11D1     		bne	.L21
 384              		.loc 1 145 0
 385 00dc 0C48     		ldr	r0, .L23
 386              		.loc 1 151 0
 387 00de 03B0     		add	sp, sp, #12
 388              		.cfi_remember_state
 389              		.cfi_def_cfa_offset 36
 390              		@ sp needed
 391 00e0 BDE8F04F 		pop	{r4, r5, r6, r7, r8, r9, r10, fp, lr}
 392              		.cfi_restore 14
 393              		.cfi_restore 11
 394              		.cfi_restore 10
 395              		.cfi_restore 9
 396              		.cfi_restore 8
 397              		.cfi_restore 7
 398              		.cfi_restore 6
 399              		.cfi_restore 5
ARM GAS  /var/folders/47/g7cdn6zj55s1hhv4njp6x8_h0000gn/T//cc224n80.s 			page 8


 400              		.cfi_restore 4
 401              		.cfi_def_cfa_offset 0
 402              		.loc 1 145 0
 403 00e4 FFF7FEBF 		b	mcpwm_foc_init
 404              	.LVL17:
 405              	.L14:
 406              		.cfi_restore_state
 407              		.loc 1 129 0
 408 00e8 FFF7FEFF 		bl	encoder_init_as5047p_spi
 409              	.LVL18:
 410              		.loc 1 138 0
 411 00ec AB78     		ldrb	r3, [r5, #2]	@ zero_extendqisi2
 412 00ee DBB2     		uxtb	r3, r3
 413 00f0 012B     		cmp	r3, #1
 414 00f2 F1D8     		bhi	.L22
 415              	.L16:
 416              		.loc 1 141 0
 417 00f4 0648     		ldr	r0, .L23
 418              		.loc 1 151 0
 419 00f6 03B0     		add	sp, sp, #12
 420              		.cfi_remember_state
 421              		.cfi_def_cfa_offset 36
 422              		@ sp needed
 423 00f8 BDE8F04F 		pop	{r4, r5, r6, r7, r8, r9, r10, fp, lr}
 424              		.cfi_restore 14
 425              		.cfi_restore 11
 426              		.cfi_restore 10
 427              		.cfi_restore 9
 428              		.cfi_restore 8
 429              		.cfi_restore 7
 430              		.cfi_restore 6
 431              		.cfi_restore 5
 432              		.cfi_restore 4
 433              		.cfi_def_cfa_offset 0
 434              		.loc 1 141 0
 435 00fc FFF7FEBF 		b	mcpwm_init
 436              	.LVL19:
 437              	.L21:
 438              		.cfi_restore_state
 439              		.loc 1 151 0
 440 0100 03B0     		add	sp, sp, #12
 441              		.cfi_remember_state
 442              		.cfi_def_cfa_offset 36
 443              		@ sp needed
 444 0102 BDE8F08F 		pop	{r4, r5, r6, r7, r8, r9, r10, fp, pc}
 445              	.L13:
 446              		.cfi_restore_state
 447              		.loc 1 125 0
 448 0106 D5F82C01 		ldr	r0, [r5, #300]
 449 010a FFF7FEFF 		bl	encoder_init_abi
 450              	.LVL20:
 451              		.loc 1 126 0
 452 010e DFE7     		b	.L12
 453              	.L24:
 454              		.align	2
 455              	.L23:
 456 0110 00000000 		.word	.LANCHOR11
ARM GAS  /var/folders/47/g7cdn6zj55s1hhv4njp6x8_h0000gn/T//cc224n80.s 			page 9


 457 0114 00000000 		.word	.LANCHOR14
 458 0118 00000000 		.word	.LANCHOR23
 459 011c 00000000 		.word	.LANCHOR15
 460 0120 00000000 		.word	.LANCHOR16
 461 0124 00000000 		.word	.LANCHOR24
 462 0128 00000000 		.word	.LANCHOR25
 463 012c 00000000 		.word	.LANCHOR26
 464 0130 00000000 		.word	.LANCHOR1
 465 0134 00000000 		.word	.LANCHOR31
 466 0138 00000000 		.word	timer_thread
 467 013c 00000000 		.word	.LANCHOR32
 468 0140 00000000 		.word	sample_send_thread
 469 0144 00000000 		.word	.LANCHOR33
 470 0148 00000000 		.word	.LANCHOR17
 471 014c 00000000 		.word	.LANCHOR18
 472 0150 00000000 		.word	.LANCHOR21
 473 0154 00000000 		.word	.LANCHOR22
 474 0158 00000000 		.word	.LANCHOR19
 475 015c 00000000 		.word	.LANCHOR20
 476 0160 00000000 		.word	.LANCHOR27
 477 0164 00000000 		.word	.LANCHOR28
 478 0168 00000000 		.word	.LANCHOR29
 479 016c 00000000 		.word	.LANCHOR30
 480 0170 00000000 		.word	.LANCHOR12
 481 0174 00000000 		.word	.LANCHOR13
 482              		.cfi_endproc
 483              	.LFE256:
 484              		.size	mc_interface_init, .-mc_interface_init
 485              		.section	.text.mc_interface_get_configuration,"ax",%progbits
 486              		.align	2
 487              		.p2align 4,,15
 488              		.global	mc_interface_get_configuration
 489              		.thumb
 490              		.thumb_func
 491              		.type	mc_interface_get_configuration, %function
 492              	mc_interface_get_configuration:
 493              	.LFB257:
 494              		.loc 1 153 0
 495              		.cfi_startproc
 496              		@ args = 0, pretend = 0, frame = 0
 497              		@ frame_needed = 0, uses_anonymous_args = 0
 498              		@ link register save eliminated.
 499              		.loc 1 155 0
 500 0000 0048     		ldr	r0, .L26
 501 0002 7047     		bx	lr
 502              	.L27:
 503              		.align	2
 504              	.L26:
 505 0004 00000000 		.word	.LANCHOR11
 506              		.cfi_endproc
 507              	.LFE257:
 508              		.size	mc_interface_get_configuration, .-mc_interface_get_configuration
 509              		.section	.text.mc_interface_dccal_done,"ax",%progbits
 510              		.align	2
 511              		.p2align 4,,15
 512              		.global	mc_interface_dccal_done
 513              		.thumb
ARM GAS  /var/folders/47/g7cdn6zj55s1hhv4njp6x8_h0000gn/T//cc224n80.s 			page 10


 514              		.thumb_func
 515              		.type	mc_interface_dccal_done, %function
 516              	mc_interface_dccal_done:
 517              	.LFB259:
 518              		.loc 1 211 0
 519              		.cfi_startproc
 520              		@ args = 0, pretend = 0, frame = 0
 521              		@ frame_needed = 0, uses_anonymous_args = 0
 522              		@ link register save eliminated.
 523              	.LVL21:
 524              		.loc 1 213 0
 525 0000 064B     		ldr	r3, .L35
 526 0002 9B78     		ldrb	r3, [r3, #2]	@ zero_extendqisi2
 527 0004 DBB2     		uxtb	r3, r3
 528 0006 012B     		cmp	r3, #1
 529 0008 05D9     		bls	.L30
 530 000a 022B     		cmp	r3, #2
 531 000c 01D1     		bne	.L34
 532              		.loc 1 220 0
 533 000e FFF7FEBF 		b	mcpwm_foc_is_dccal_done
 534              	.LVL22:
 535              	.L34:
 536              		.loc 1 228 0
 537 0012 0020     		movs	r0, #0
 538 0014 7047     		bx	lr
 539              	.L30:
 540              		.loc 1 216 0
 541 0016 FFF7FEBF 		b	mcpwm_is_dccal_done
 542              	.LVL23:
 543              	.L36:
 544 001a 00BF     		.align	2
 545              	.L35:
 546 001c 00000000 		.word	.LANCHOR11
 547              		.cfi_endproc
 548              	.LFE259:
 549              		.size	mc_interface_dccal_done, .-mc_interface_dccal_done
 550              		.section	.text.mc_interface_set_pwm_callback,"ax",%progbits
 551              		.align	2
 552              		.p2align 4,,15
 553              		.global	mc_interface_set_pwm_callback
 554              		.thumb
 555              		.thumb_func
 556              		.type	mc_interface_set_pwm_callback, %function
 557              	mc_interface_set_pwm_callback:
 558              	.LFB260:
 559              		.loc 1 236 0
 560              		.cfi_startproc
 561              		@ args = 0, pretend = 0, frame = 0
 562              		@ frame_needed = 0, uses_anonymous_args = 0
 563              		@ link register save eliminated.
 564              	.LVL24:
 565              		.loc 1 237 0
 566 0000 014B     		ldr	r3, .L38
 567 0002 1860     		str	r0, [r3]
 568 0004 7047     		bx	lr
 569              	.L39:
 570 0006 00BF     		.align	2
ARM GAS  /var/folders/47/g7cdn6zj55s1hhv4njp6x8_h0000gn/T//cc224n80.s 			page 11


 571              	.L38:
 572 0008 00000000 		.word	.LANCHOR34
 573              		.cfi_endproc
 574              	.LFE260:
 575              		.size	mc_interface_set_pwm_callback, .-mc_interface_set_pwm_callback
 576              		.section	.text.mc_interface_lock,"ax",%progbits
 577              		.align	2
 578              		.p2align 4,,15
 579              		.global	mc_interface_lock
 580              		.thumb
 581              		.thumb_func
 582              		.type	mc_interface_lock, %function
 583              	mc_interface_lock:
 584              	.LFB261:
 585              		.loc 1 243 0
 586              		.cfi_startproc
 587              		@ args = 0, pretend = 0, frame = 0
 588              		@ frame_needed = 0, uses_anonymous_args = 0
 589              		@ link register save eliminated.
 590              		.loc 1 244 0
 591 0000 014B     		ldr	r3, .L41
 592 0002 0122     		movs	r2, #1
 593 0004 1A70     		strb	r2, [r3]
 594 0006 7047     		bx	lr
 595              	.L42:
 596              		.align	2
 597              	.L41:
 598 0008 00000000 		.word	.LANCHOR15
 599              		.cfi_endproc
 600              	.LFE261:
 601              		.size	mc_interface_lock, .-mc_interface_lock
 602              		.section	.text.mc_interface_unlock,"ax",%progbits
 603              		.align	2
 604              		.p2align 4,,15
 605              		.global	mc_interface_unlock
 606              		.thumb
 607              		.thumb_func
 608              		.type	mc_interface_unlock, %function
 609              	mc_interface_unlock:
 610              	.LFB262:
 611              		.loc 1 250 0
 612              		.cfi_startproc
 613              		@ args = 0, pretend = 0, frame = 0
 614              		@ frame_needed = 0, uses_anonymous_args = 0
 615              		@ link register save eliminated.
 616              		.loc 1 251 0
 617 0000 014B     		ldr	r3, .L44
 618 0002 0022     		movs	r2, #0
 619 0004 1A70     		strb	r2, [r3]
 620 0006 7047     		bx	lr
 621              	.L45:
 622              		.align	2
 623              	.L44:
 624 0008 00000000 		.word	.LANCHOR15
 625              		.cfi_endproc
 626              	.LFE262:
 627              		.size	mc_interface_unlock, .-mc_interface_unlock
ARM GAS  /var/folders/47/g7cdn6zj55s1hhv4njp6x8_h0000gn/T//cc224n80.s 			page 12


 628              		.section	.text.mc_interface_lock_override_once,"ax",%progbits
 629              		.align	2
 630              		.p2align 4,,15
 631              		.global	mc_interface_lock_override_once
 632              		.thumb
 633              		.thumb_func
 634              		.type	mc_interface_lock_override_once, %function
 635              	mc_interface_lock_override_once:
 636              	.LFB263:
 637              		.loc 1 257 0
 638              		.cfi_startproc
 639              		@ args = 0, pretend = 0, frame = 0
 640              		@ frame_needed = 0, uses_anonymous_args = 0
 641              		@ link register save eliminated.
 642              		.loc 1 258 0
 643 0000 014B     		ldr	r3, .L47
 644 0002 0122     		movs	r2, #1
 645 0004 1A70     		strb	r2, [r3]
 646 0006 7047     		bx	lr
 647              	.L48:
 648              		.align	2
 649              	.L47:
 650 0008 00000000 		.word	.LANCHOR16
 651              		.cfi_endproc
 652              	.LFE263:
 653              		.size	mc_interface_lock_override_once, .-mc_interface_lock_override_once
 654              		.section	.text.mc_interface_get_fault,"ax",%progbits
 655              		.align	2
 656              		.p2align 4,,15
 657              		.global	mc_interface_get_fault
 658              		.thumb
 659              		.thumb_func
 660              		.type	mc_interface_get_fault, %function
 661              	mc_interface_get_fault:
 662              	.LFB264:
 663              		.loc 1 261 0
 664              		.cfi_startproc
 665              		@ args = 0, pretend = 0, frame = 0
 666              		@ frame_needed = 0, uses_anonymous_args = 0
 667              		@ link register save eliminated.
 668              		.loc 1 262 0
 669 0000 014B     		ldr	r3, .L50
 670              		.loc 1 263 0
 671 0002 1878     		ldrb	r0, [r3]	@ zero_extendqisi2
 672 0004 7047     		bx	lr
 673              	.L51:
 674 0006 00BF     		.align	2
 675              	.L50:
 676 0008 00000000 		.word	.LANCHOR12
 677              		.cfi_endproc
 678              	.LFE264:
 679              		.size	mc_interface_get_fault, .-mc_interface_get_fault
 680              		.section	.text.mc_interface_fault_to_string,"ax",%progbits
 681              		.align	2
 682              		.p2align 4,,15
 683              		.global	mc_interface_fault_to_string
 684              		.thumb
ARM GAS  /var/folders/47/g7cdn6zj55s1hhv4njp6x8_h0000gn/T//cc224n80.s 			page 13


 685              		.thumb_func
 686              		.type	mc_interface_fault_to_string, %function
 687              	mc_interface_fault_to_string:
 688              	.LFB265:
 689              		.loc 1 265 0
 690              		.cfi_startproc
 691              		@ args = 0, pretend = 0, frame = 0
 692              		@ frame_needed = 0, uses_anonymous_args = 0
 693              		@ link register save eliminated.
 694              	.LVL25:
 695 0000 0628     		cmp	r0, #6
 696 0002 9ABF     		itte	ls
 697 0004 024B     		ldrls	r3, .L55
 698 0006 53F82000 		ldrls	r0, [r3, r0, lsl #2]
 699              	.LVL26:
 700              		.loc 1 265 0
 701 000a 0248     		ldrhi	r0, .L55+4
 702              		.loc 1 276 0
 703 000c 7047     		bx	lr
 704              	.L56:
 705 000e 00BF     		.align	2
 706              	.L55:
 707 0010 00000000 		.word	.LANCHOR35
 708 0014 10000000 		.word	.LC1
 709              		.cfi_endproc
 710              	.LFE265:
 711              		.size	mc_interface_fault_to_string, .-mc_interface_fault_to_string
 712              		.section	.text.mc_interface_get_state,"ax",%progbits
 713              		.align	2
 714              		.p2align 4,,15
 715              		.global	mc_interface_get_state
 716              		.thumb
 717              		.thumb_func
 718              		.type	mc_interface_get_state, %function
 719              	mc_interface_get_state:
 720              	.LFB266:
 721              		.loc 1 278 0
 722              		.cfi_startproc
 723              		@ args = 0, pretend = 0, frame = 0
 724              		@ frame_needed = 0, uses_anonymous_args = 0
 725              		@ link register save eliminated.
 726              	.LVL27:
 727              		.loc 1 280 0
 728 0000 064B     		ldr	r3, .L64
 729 0002 9B78     		ldrb	r3, [r3, #2]	@ zero_extendqisi2
 730 0004 DBB2     		uxtb	r3, r3
 731 0006 012B     		cmp	r3, #1
 732 0008 05D9     		bls	.L59
 733 000a 022B     		cmp	r3, #2
 734 000c 01D1     		bne	.L63
 735              		.loc 1 287 0
 736 000e FFF7FEBF 		b	mcpwm_foc_get_state
 737              	.LVL28:
 738              	.L63:
 739              		.loc 1 295 0
 740 0012 0020     		movs	r0, #0
 741 0014 7047     		bx	lr
ARM GAS  /var/folders/47/g7cdn6zj55s1hhv4njp6x8_h0000gn/T//cc224n80.s 			page 14


 742              	.L59:
 743              		.loc 1 283 0
 744 0016 FFF7FEBF 		b	mcpwm_get_state
 745              	.LVL29:
 746              	.L65:
 747 001a 00BF     		.align	2
 748              	.L64:
 749 001c 00000000 		.word	.LANCHOR11
 750              		.cfi_endproc
 751              	.LFE266:
 752              		.size	mc_interface_get_state, .-mc_interface_get_state
 753              		.section	.text.mc_interface_set_position_pid_constants,"ax",%progbits
 754              		.align	2
 755              		.p2align 4,,15
 756              		.global	mc_interface_set_position_pid_constants
 757              		.thumb
 758              		.thumb_func
 759              		.type	mc_interface_set_position_pid_constants, %function
 760              	mc_interface_set_position_pid_constants:
 761              	.LFB270:
 762              		.loc 1 359 0
 763              		.cfi_startproc
 764              		@ args = 0, pretend = 0, frame = 0
 765              		@ frame_needed = 0, uses_anonymous_args = 0
 766              		@ link register save eliminated.
 767              	.LVL30:
 768              		.loc 1 360 0
 769 0000 064B     		ldr	r3, .L71
 770 0002 9A78     		ldrb	r2, [r3, #2]	@ zero_extendqisi2
 771 0004 022A     		cmp	r2, #2
 772 0006 00D0     		beq	.L70
 773 0008 7047     		bx	lr
 774              	.L70:
 775              		.loc 1 366 0
 776 000a 83ED3F0A 		fsts	s0, [r3, #252]
 777              		.loc 1 367 0
 778 000e C3ED400A 		fsts	s1, [r3, #256]
 779              		.loc 1 368 0
 780 0012 83ED411A 		fsts	s2, [r3, #260]
 781              		.loc 1 370 0
 782 0016 FFF7FEBF 		b	mcpwm_foc_set_position_pid_constants
 783              	.LVL31:
 784              	.L72:
 785 001a 00BF     		.align	2
 786              	.L71:
 787 001c 00000000 		.word	.LANCHOR11
 788              		.cfi_endproc
 789              	.LFE270:
 790              		.size	mc_interface_set_position_pid_constants, .-mc_interface_set_position_pid_constants
 791              		.section	.text.mc_interface_get_duty_cycle_set,"ax",%progbits
 792              		.align	2
 793              		.p2align 4,,15
 794              		.global	mc_interface_get_duty_cycle_set
 795              		.thumb
 796              		.thumb_func
 797              		.type	mc_interface_get_duty_cycle_set, %function
 798              	mc_interface_get_duty_cycle_set:
ARM GAS  /var/folders/47/g7cdn6zj55s1hhv4njp6x8_h0000gn/T//cc224n80.s 			page 15


 799              	.LFB276:
 800              		.loc 1 451 0
 801              		.cfi_startproc
 802              		@ args = 0, pretend = 0, frame = 0
 803              		@ frame_needed = 0, uses_anonymous_args = 0
 804              		@ link register save eliminated.
 805              	.LVL32:
 806              		.loc 1 454 0
 807 0000 064B     		ldr	r3, .L80
 808 0002 9B78     		ldrb	r3, [r3, #2]	@ zero_extendqisi2
 809 0004 DBB2     		uxtb	r3, r3
 810 0006 012B     		cmp	r3, #1
 811 0008 06D9     		bls	.L75
 812 000a 022B     		cmp	r3, #2
 813 000c 01D1     		bne	.L79
 814              		.loc 1 461 0
 815 000e FFF7FEBF 		b	mcpwm_foc_get_duty_cycle_set
 816              	.LVL33:
 817              	.L79:
 818              		.loc 1 469 0
 819 0012 9FED030A 		flds	s0, .L80+4
 820 0016 7047     		bx	lr
 821              	.L75:
 822              		.loc 1 457 0
 823 0018 FFF7FEBF 		b	mcpwm_get_duty_cycle_set
 824              	.LVL34:
 825              	.L81:
 826              		.align	2
 827              	.L80:
 828 001c 00000000 		.word	.LANCHOR11
 829 0020 00000000 		.word	0
 830              		.cfi_endproc
 831              	.LFE276:
 832              		.size	mc_interface_get_duty_cycle_set, .-mc_interface_get_duty_cycle_set
 833              		.section	.text.mc_interface_get_duty_cycle_now,"ax",%progbits
 834              		.align	2
 835              		.p2align 4,,15
 836              		.global	mc_interface_get_duty_cycle_now
 837              		.thumb
 838              		.thumb_func
 839              		.type	mc_interface_get_duty_cycle_now, %function
 840              	mc_interface_get_duty_cycle_now:
 841              	.LFB277:
 842              		.loc 1 471 0
 843              		.cfi_startproc
 844              		@ args = 0, pretend = 0, frame = 0
 845              		@ frame_needed = 0, uses_anonymous_args = 0
 846              		@ link register save eliminated.
 847              	.LVL35:
 848              		.loc 1 474 0
 849 0000 064B     		ldr	r3, .L89
 850 0002 9B78     		ldrb	r3, [r3, #2]	@ zero_extendqisi2
 851 0004 DBB2     		uxtb	r3, r3
 852 0006 012B     		cmp	r3, #1
 853 0008 06D9     		bls	.L84
 854 000a 022B     		cmp	r3, #2
 855 000c 01D1     		bne	.L88
ARM GAS  /var/folders/47/g7cdn6zj55s1hhv4njp6x8_h0000gn/T//cc224n80.s 			page 16


 856              		.loc 1 481 0
 857 000e FFF7FEBF 		b	mcpwm_foc_get_duty_cycle_now
 858              	.LVL36:
 859              	.L88:
 860              		.loc 1 489 0
 861 0012 9FED030A 		flds	s0, .L89+4
 862 0016 7047     		bx	lr
 863              	.L84:
 864              		.loc 1 477 0
 865 0018 FFF7FEBF 		b	mcpwm_get_duty_cycle_now
 866              	.LVL37:
 867              	.L90:
 868              		.align	2
 869              	.L89:
 870 001c 00000000 		.word	.LANCHOR11
 871 0020 00000000 		.word	0
 872              		.cfi_endproc
 873              	.LFE277:
 874              		.size	mc_interface_get_duty_cycle_now, .-mc_interface_get_duty_cycle_now
 875              		.section	.text.mc_interface_get_sampling_frequency_now,"ax",%progbits
 876              		.align	2
 877              		.p2align 4,,15
 878              		.global	mc_interface_get_sampling_frequency_now
 879              		.thumb
 880              		.thumb_func
 881              		.type	mc_interface_get_sampling_frequency_now, %function
 882              	mc_interface_get_sampling_frequency_now:
 883              	.LFB278:
 884              		.loc 1 491 0
 885              		.cfi_startproc
 886              		@ args = 0, pretend = 0, frame = 0
 887              		@ frame_needed = 0, uses_anonymous_args = 0
 888              	.LVL38:
 889 0000 08B5     		push	{r3, lr}
 890              		.cfi_def_cfa_offset 8
 891              		.cfi_offset 3, -8
 892              		.cfi_offset 14, -4
 893              		.loc 1 494 0
 894 0002 0A4B     		ldr	r3, .L100
 895 0004 9B78     		ldrb	r3, [r3, #2]	@ zero_extendqisi2
 896 0006 DBB2     		uxtb	r3, r3
 897 0008 012B     		cmp	r3, #1
 898 000a 0BD9     		bls	.L93
 899 000c 022B     		cmp	r3, #2
 900 000e 06D1     		bne	.L99
 901              	.LBB73:
 902              	.LBB74:
 903              		.loc 1 501 0
 904 0010 FFF7FEFF 		bl	mcpwm_foc_get_switching_frequency_now
 905              	.LVL39:
 906 0014 F6EE007A 		fconsts	s15, #96
 907 0018 20EE270A 		fmuls	s0, s0, s15
 908              	.LVL40:
 909 001c 08BD     		pop	{r3, pc}
 910              	.LVL41:
 911              	.L99:
 912              	.LBE74:
ARM GAS  /var/folders/47/g7cdn6zj55s1hhv4njp6x8_h0000gn/T//cc224n80.s 			page 17


 913              	.LBE73:
 914              		.loc 1 492 0
 915 001e 9FED040A 		flds	s0, .L100+4
 916              	.LVL42:
 917              		.loc 1 509 0
 918 0022 08BD     		pop	{r3, pc}
 919              	.LVL43:
 920              	.L93:
 921 0024 BDE80840 		pop	{r3, lr}
 922              		.cfi_restore 14
 923              		.cfi_restore 3
 924              		.cfi_def_cfa_offset 0
 925              		.loc 1 497 0
 926 0028 FFF7FEBF 		b	mcpwm_get_switching_frequency_now
 927              	.LVL44:
 928              	.L101:
 929              		.align	2
 930              	.L100:
 931 002c 00000000 		.word	.LANCHOR11
 932 0030 00000000 		.word	0
 933              		.cfi_endproc
 934              	.LFE278:
 935              		.size	mc_interface_get_sampling_frequency_now, .-mc_interface_get_sampling_frequency_now
 936              		.section	.text.mc_interface_get_rpm,"ax",%progbits
 937              		.align	2
 938              		.p2align 4,,15
 939              		.global	mc_interface_get_rpm
 940              		.thumb
 941              		.thumb_func
 942              		.type	mc_interface_get_rpm, %function
 943              	mc_interface_get_rpm:
 944              	.LFB279:
 945              		.loc 1 511 0
 946              		.cfi_startproc
 947              		@ args = 0, pretend = 0, frame = 0
 948              		@ frame_needed = 0, uses_anonymous_args = 0
 949              		@ link register save eliminated.
 950              	.LVL45:
 951              		.loc 1 514 0
 952 0000 064B     		ldr	r3, .L109
 953 0002 9B78     		ldrb	r3, [r3, #2]	@ zero_extendqisi2
 954 0004 DBB2     		uxtb	r3, r3
 955 0006 012B     		cmp	r3, #1
 956 0008 06D9     		bls	.L104
 957 000a 022B     		cmp	r3, #2
 958 000c 01D1     		bne	.L108
 959              		.loc 1 521 0
 960 000e FFF7FEBF 		b	mcpwm_foc_get_rpm
 961              	.LVL46:
 962              	.L108:
 963              		.loc 1 529 0
 964 0012 9FED030A 		flds	s0, .L109+4
 965 0016 7047     		bx	lr
 966              	.L104:
 967              		.loc 1 517 0
 968 0018 FFF7FEBF 		b	mcpwm_get_rpm
 969              	.LVL47:
ARM GAS  /var/folders/47/g7cdn6zj55s1hhv4njp6x8_h0000gn/T//cc224n80.s 			page 18


 970              	.L110:
 971              		.align	2
 972              	.L109:
 973 001c 00000000 		.word	.LANCHOR11
 974 0020 00000000 		.word	0
 975              		.cfi_endproc
 976              	.LFE279:
 977              		.size	mc_interface_get_rpm, .-mc_interface_get_rpm
 978              		.section	.text.mc_interface_get_amp_hours,"ax",%progbits
 979              		.align	2
 980              		.p2align 4,,15
 981              		.global	mc_interface_get_amp_hours
 982              		.thumb
 983              		.thumb_func
 984              		.type	mc_interface_get_amp_hours, %function
 985              	mc_interface_get_amp_hours:
 986              	.LFB280:
 987              		.loc 1 540 0
 988              		.cfi_startproc
 989              		@ args = 0, pretend = 0, frame = 0
 990              		@ frame_needed = 0, uses_anonymous_args = 0
 991              		@ link register save eliminated.
 992              	.LVL48:
 993              		.loc 1 541 0
 994 0000 054B     		ldr	r3, .L116
 995 0002 9FED060A 		flds	s0, .L116+4
 996 0006 D3ED007A 		flds	s15, [r3]
 997 000a 87EE800A 		fdivs	s0, s15, s0
 998              	.LVL49:
 999              		.loc 1 543 0
 1000 000e 08B1     		cbz	r0, .L112
 1001              		.loc 1 544 0
 1002 0010 0022     		movs	r2, #0
 1003 0012 1A60     		str	r2, [r3]	@ float
 1004              	.L112:
 1005              		.loc 1 548 0
 1006 0014 7047     		bx	lr
 1007              	.L117:
 1008 0016 00BF     		.align	2
 1009              	.L116:
 1010 0018 00000000 		.word	.LANCHOR21
 1011 001c 00006145 		.word	1163984896
 1012              		.cfi_endproc
 1013              	.LFE280:
 1014              		.size	mc_interface_get_amp_hours, .-mc_interface_get_amp_hours
 1015              		.section	.text.mc_interface_get_amp_hours_charged,"ax",%progbits
 1016              		.align	2
 1017              		.p2align 4,,15
 1018              		.global	mc_interface_get_amp_hours_charged
 1019              		.thumb
 1020              		.thumb_func
 1021              		.type	mc_interface_get_amp_hours_charged, %function
 1022              	mc_interface_get_amp_hours_charged:
 1023              	.LFB281:
 1024              		.loc 1 559 0
 1025              		.cfi_startproc
 1026              		@ args = 0, pretend = 0, frame = 0
ARM GAS  /var/folders/47/g7cdn6zj55s1hhv4njp6x8_h0000gn/T//cc224n80.s 			page 19


 1027              		@ frame_needed = 0, uses_anonymous_args = 0
 1028              		@ link register save eliminated.
 1029              	.LVL50:
 1030              		.loc 1 560 0
 1031 0000 054B     		ldr	r3, .L123
 1032 0002 9FED060A 		flds	s0, .L123+4
 1033 0006 D3ED007A 		flds	s15, [r3]
 1034 000a 87EE800A 		fdivs	s0, s15, s0
 1035              	.LVL51:
 1036              		.loc 1 562 0
 1037 000e 08B1     		cbz	r0, .L119
 1038              		.loc 1 563 0
 1039 0010 0022     		movs	r2, #0
 1040 0012 1A60     		str	r2, [r3]	@ float
 1041              	.L119:
 1042              		.loc 1 567 0
 1043 0014 7047     		bx	lr
 1044              	.L124:
 1045 0016 00BF     		.align	2
 1046              	.L123:
 1047 0018 00000000 		.word	.LANCHOR22
 1048 001c 00006145 		.word	1163984896
 1049              		.cfi_endproc
 1050              	.LFE281:
 1051              		.size	mc_interface_get_amp_hours_charged, .-mc_interface_get_amp_hours_charged
 1052              		.section	.text.mc_interface_get_watt_hours,"ax",%progbits
 1053              		.align	2
 1054              		.p2align 4,,15
 1055              		.global	mc_interface_get_watt_hours
 1056              		.thumb
 1057              		.thumb_func
 1058              		.type	mc_interface_get_watt_hours, %function
 1059              	mc_interface_get_watt_hours:
 1060              	.LFB282:
 1061              		.loc 1 578 0
 1062              		.cfi_startproc
 1063              		@ args = 0, pretend = 0, frame = 0
 1064              		@ frame_needed = 0, uses_anonymous_args = 0
 1065              		@ link register save eliminated.
 1066              	.LVL52:
 1067              		.loc 1 579 0
 1068 0000 054B     		ldr	r3, .L130
 1069 0002 9FED060A 		flds	s0, .L130+4
 1070 0006 D3ED007A 		flds	s15, [r3]
 1071 000a 87EE800A 		fdivs	s0, s15, s0
 1072              	.LVL53:
 1073              		.loc 1 581 0
 1074 000e 10B1     		cbz	r0, .L126
 1075              		.loc 1 582 0
 1076 0010 034B     		ldr	r3, .L130+8
 1077 0012 0022     		movs	r2, #0
 1078 0014 1A60     		str	r2, [r3]	@ float
 1079              	.L126:
 1080              		.loc 1 586 0
 1081 0016 7047     		bx	lr
 1082              	.L131:
 1083              		.align	2
ARM GAS  /var/folders/47/g7cdn6zj55s1hhv4njp6x8_h0000gn/T//cc224n80.s 			page 20


 1084              	.L130:
 1085 0018 00000000 		.word	.LANCHOR23
 1086 001c 00006145 		.word	1163984896
 1087 0020 00000000 		.word	.LANCHOR21
 1088              		.cfi_endproc
 1089              	.LFE282:
 1090              		.size	mc_interface_get_watt_hours, .-mc_interface_get_watt_hours
 1091              		.section	.text.mc_interface_get_watt_hours_charged,"ax",%progbits
 1092              		.align	2
 1093              		.p2align 4,,15
 1094              		.global	mc_interface_get_watt_hours_charged
 1095              		.thumb
 1096              		.thumb_func
 1097              		.type	mc_interface_get_watt_hours_charged, %function
 1098              	mc_interface_get_watt_hours_charged:
 1099              	.LFB283:
 1100              		.loc 1 597 0
 1101              		.cfi_startproc
 1102              		@ args = 0, pretend = 0, frame = 0
 1103              		@ frame_needed = 0, uses_anonymous_args = 0
 1104              		@ link register save eliminated.
 1105              	.LVL54:
 1106              		.loc 1 598 0
 1107 0000 054B     		ldr	r3, .L137
 1108 0002 9FED060A 		flds	s0, .L137+4
 1109 0006 D3ED007A 		flds	s15, [r3]
 1110 000a 87EE800A 		fdivs	s0, s15, s0
 1111              	.LVL55:
 1112              		.loc 1 600 0
 1113 000e 08B1     		cbz	r0, .L133
 1114              		.loc 1 601 0
 1115 0010 0022     		movs	r2, #0
 1116 0012 1A60     		str	r2, [r3]	@ float
 1117              	.L133:
 1118              		.loc 1 605 0
 1119 0014 7047     		bx	lr
 1120              	.L138:
 1121 0016 00BF     		.align	2
 1122              	.L137:
 1123 0018 00000000 		.word	.LANCHOR24
 1124 001c 00006145 		.word	1163984896
 1125              		.cfi_endproc
 1126              	.LFE283:
 1127              		.size	mc_interface_get_watt_hours_charged, .-mc_interface_get_watt_hours_charged
 1128              		.section	.text.mc_interface_get_tot_current,"ax",%progbits
 1129              		.align	2
 1130              		.p2align 4,,15
 1131              		.global	mc_interface_get_tot_current
 1132              		.thumb
 1133              		.thumb_func
 1134              		.type	mc_interface_get_tot_current, %function
 1135              	mc_interface_get_tot_current:
 1136              	.LFB284:
 1137              		.loc 1 607 0
 1138              		.cfi_startproc
 1139              		@ args = 0, pretend = 0, frame = 0
 1140              		@ frame_needed = 0, uses_anonymous_args = 0
ARM GAS  /var/folders/47/g7cdn6zj55s1hhv4njp6x8_h0000gn/T//cc224n80.s 			page 21


 1141              		@ link register save eliminated.
 1142              	.LVL56:
 1143              		.loc 1 610 0
 1144 0000 064B     		ldr	r3, .L146
 1145 0002 9B78     		ldrb	r3, [r3, #2]	@ zero_extendqisi2
 1146 0004 DBB2     		uxtb	r3, r3
 1147 0006 012B     		cmp	r3, #1
 1148 0008 06D9     		bls	.L141
 1149 000a 022B     		cmp	r3, #2
 1150 000c 01D1     		bne	.L145
 1151              		.loc 1 617 0
 1152 000e FFF7FEBF 		b	mcpwm_foc_get_tot_current
 1153              	.LVL57:
 1154              	.L145:
 1155              		.loc 1 625 0
 1156 0012 9FED030A 		flds	s0, .L146+4
 1157 0016 7047     		bx	lr
 1158              	.L141:
 1159              		.loc 1 613 0
 1160 0018 FFF7FEBF 		b	mcpwm_get_tot_current
 1161              	.LVL58:
 1162              	.L147:
 1163              		.align	2
 1164              	.L146:
 1165 001c 00000000 		.word	.LANCHOR11
 1166 0020 00000000 		.word	0
 1167              		.cfi_endproc
 1168              	.LFE284:
 1169              		.size	mc_interface_get_tot_current, .-mc_interface_get_tot_current
 1170              		.section	.text.mc_interface_get_tot_current_filtered,"ax",%progbits
 1171              		.align	2
 1172              		.p2align 4,,15
 1173              		.global	mc_interface_get_tot_current_filtered
 1174              		.thumb
 1175              		.thumb_func
 1176              		.type	mc_interface_get_tot_current_filtered, %function
 1177              	mc_interface_get_tot_current_filtered:
 1178              	.LFB285:
 1179              		.loc 1 627 0
 1180              		.cfi_startproc
 1181              		@ args = 0, pretend = 0, frame = 0
 1182              		@ frame_needed = 0, uses_anonymous_args = 0
 1183              		@ link register save eliminated.
 1184              	.LVL59:
 1185              		.loc 1 630 0
 1186 0000 064B     		ldr	r3, .L155
 1187 0002 9B78     		ldrb	r3, [r3, #2]	@ zero_extendqisi2
 1188 0004 DBB2     		uxtb	r3, r3
 1189 0006 012B     		cmp	r3, #1
 1190 0008 06D9     		bls	.L150
 1191 000a 022B     		cmp	r3, #2
 1192 000c 01D1     		bne	.L154
 1193              		.loc 1 637 0
 1194 000e FFF7FEBF 		b	mcpwm_foc_get_tot_current_filtered
 1195              	.LVL60:
 1196              	.L154:
 1197              		.loc 1 645 0
ARM GAS  /var/folders/47/g7cdn6zj55s1hhv4njp6x8_h0000gn/T//cc224n80.s 			page 22


 1198 0012 9FED030A 		flds	s0, .L155+4
 1199 0016 7047     		bx	lr
 1200              	.L150:
 1201              		.loc 1 633 0
 1202 0018 FFF7FEBF 		b	mcpwm_get_tot_current_filtered
 1203              	.LVL61:
 1204              	.L156:
 1205              		.align	2
 1206              	.L155:
 1207 001c 00000000 		.word	.LANCHOR11
 1208 0020 00000000 		.word	0
 1209              		.cfi_endproc
 1210              	.LFE285:
 1211              		.size	mc_interface_get_tot_current_filtered, .-mc_interface_get_tot_current_filtered
 1212              		.section	.text.mc_interface_get_tot_current_directional,"ax",%progbits
 1213              		.align	2
 1214              		.p2align 4,,15
 1215              		.global	mc_interface_get_tot_current_directional
 1216              		.thumb
 1217              		.thumb_func
 1218              		.type	mc_interface_get_tot_current_directional, %function
 1219              	mc_interface_get_tot_current_directional:
 1220              	.LFB286:
 1221              		.loc 1 647 0
 1222              		.cfi_startproc
 1223              		@ args = 0, pretend = 0, frame = 0
 1224              		@ frame_needed = 0, uses_anonymous_args = 0
 1225              		@ link register save eliminated.
 1226              	.LVL62:
 1227              		.loc 1 650 0
 1228 0000 064B     		ldr	r3, .L164
 1229 0002 9B78     		ldrb	r3, [r3, #2]	@ zero_extendqisi2
 1230 0004 DBB2     		uxtb	r3, r3
 1231 0006 012B     		cmp	r3, #1
 1232 0008 06D9     		bls	.L159
 1233 000a 022B     		cmp	r3, #2
 1234 000c 01D1     		bne	.L163
 1235              		.loc 1 657 0
 1236 000e FFF7FEBF 		b	mcpwm_foc_get_tot_current_directional
 1237              	.LVL63:
 1238              	.L163:
 1239              		.loc 1 665 0
 1240 0012 9FED030A 		flds	s0, .L164+4
 1241 0016 7047     		bx	lr
 1242              	.L159:
 1243              		.loc 1 653 0
 1244 0018 FFF7FEBF 		b	mcpwm_get_tot_current_directional
 1245              	.LVL64:
 1246              	.L165:
 1247              		.align	2
 1248              	.L164:
 1249 001c 00000000 		.word	.LANCHOR11
 1250 0020 00000000 		.word	0
 1251              		.cfi_endproc
 1252              	.LFE286:
 1253              		.size	mc_interface_get_tot_current_directional, .-mc_interface_get_tot_current_directional
 1254              		.section	.text.mc_interface_get_tot_current_directional_filtered,"ax",%progbits
ARM GAS  /var/folders/47/g7cdn6zj55s1hhv4njp6x8_h0000gn/T//cc224n80.s 			page 23


 1255              		.align	2
 1256              		.p2align 4,,15
 1257              		.global	mc_interface_get_tot_current_directional_filtered
 1258              		.thumb
 1259              		.thumb_func
 1260              		.type	mc_interface_get_tot_current_directional_filtered, %function
 1261              	mc_interface_get_tot_current_directional_filtered:
 1262              	.LFB287:
 1263              		.loc 1 667 0
 1264              		.cfi_startproc
 1265              		@ args = 0, pretend = 0, frame = 0
 1266              		@ frame_needed = 0, uses_anonymous_args = 0
 1267              		@ link register save eliminated.
 1268              	.LVL65:
 1269              		.loc 1 670 0
 1270 0000 064B     		ldr	r3, .L173
 1271 0002 9B78     		ldrb	r3, [r3, #2]	@ zero_extendqisi2
 1272 0004 DBB2     		uxtb	r3, r3
 1273 0006 012B     		cmp	r3, #1
 1274 0008 06D9     		bls	.L168
 1275 000a 022B     		cmp	r3, #2
 1276 000c 01D1     		bne	.L172
 1277              		.loc 1 677 0
 1278 000e FFF7FEBF 		b	mcpwm_foc_get_tot_current_directional_filtered
 1279              	.LVL66:
 1280              	.L172:
 1281              		.loc 1 685 0
 1282 0012 9FED030A 		flds	s0, .L173+4
 1283 0016 7047     		bx	lr
 1284              	.L168:
 1285              		.loc 1 673 0
 1286 0018 FFF7FEBF 		b	mcpwm_get_tot_current_directional_filtered
 1287              	.LVL67:
 1288              	.L174:
 1289              		.align	2
 1290              	.L173:
 1291 001c 00000000 		.word	.LANCHOR11
 1292 0020 00000000 		.word	0
 1293              		.cfi_endproc
 1294              	.LFE287:
 1295              		.size	mc_interface_get_tot_current_directional_filtered, .-mc_interface_get_tot_current_directiona
 1296              		.section	.text.mc_interface_get_tot_current_in,"ax",%progbits
 1297              		.align	2
 1298              		.p2align 4,,15
 1299              		.global	mc_interface_get_tot_current_in
 1300              		.thumb
 1301              		.thumb_func
 1302              		.type	mc_interface_get_tot_current_in, %function
 1303              	mc_interface_get_tot_current_in:
 1304              	.LFB288:
 1305              		.loc 1 687 0
 1306              		.cfi_startproc
 1307              		@ args = 0, pretend = 0, frame = 0
 1308              		@ frame_needed = 0, uses_anonymous_args = 0
 1309              		@ link register save eliminated.
 1310              	.LVL68:
 1311              		.loc 1 690 0
ARM GAS  /var/folders/47/g7cdn6zj55s1hhv4njp6x8_h0000gn/T//cc224n80.s 			page 24


 1312 0000 064B     		ldr	r3, .L182
 1313 0002 9B78     		ldrb	r3, [r3, #2]	@ zero_extendqisi2
 1314 0004 DBB2     		uxtb	r3, r3
 1315 0006 012B     		cmp	r3, #1
 1316 0008 06D9     		bls	.L177
 1317 000a 022B     		cmp	r3, #2
 1318 000c 01D1     		bne	.L181
 1319              		.loc 1 697 0
 1320 000e FFF7FEBF 		b	mcpwm_foc_get_tot_current_in
 1321              	.LVL69:
 1322              	.L181:
 1323              		.loc 1 705 0
 1324 0012 9FED030A 		flds	s0, .L182+4
 1325 0016 7047     		bx	lr
 1326              	.L177:
 1327              		.loc 1 693 0
 1328 0018 FFF7FEBF 		b	mcpwm_get_tot_current_in
 1329              	.LVL70:
 1330              	.L183:
 1331              		.align	2
 1332              	.L182:
 1333 001c 00000000 		.word	.LANCHOR11
 1334 0020 00000000 		.word	0
 1335              		.cfi_endproc
 1336              	.LFE288:
 1337              		.size	mc_interface_get_tot_current_in, .-mc_interface_get_tot_current_in
 1338              		.section	.text.mc_interface_get_tot_current_in_filtered,"ax",%progbits
 1339              		.align	2
 1340              		.p2align 4,,15
 1341              		.global	mc_interface_get_tot_current_in_filtered
 1342              		.thumb
 1343              		.thumb_func
 1344              		.type	mc_interface_get_tot_current_in_filtered, %function
 1345              	mc_interface_get_tot_current_in_filtered:
 1346              	.LFB289:
 1347              		.loc 1 707 0
 1348              		.cfi_startproc
 1349              		@ args = 0, pretend = 0, frame = 0
 1350              		@ frame_needed = 0, uses_anonymous_args = 0
 1351              		@ link register save eliminated.
 1352              	.LVL71:
 1353              		.loc 1 710 0
 1354 0000 064B     		ldr	r3, .L191
 1355 0002 9B78     		ldrb	r3, [r3, #2]	@ zero_extendqisi2
 1356 0004 DBB2     		uxtb	r3, r3
 1357 0006 012B     		cmp	r3, #1
 1358 0008 06D9     		bls	.L186
 1359 000a 022B     		cmp	r3, #2
 1360 000c 01D1     		bne	.L190
 1361              		.loc 1 717 0
 1362 000e FFF7FEBF 		b	mcpwm_foc_get_tot_current_in_filtered
 1363              	.LVL72:
 1364              	.L190:
 1365              		.loc 1 725 0
 1366 0012 9FED030A 		flds	s0, .L191+4
 1367 0016 7047     		bx	lr
 1368              	.L186:
ARM GAS  /var/folders/47/g7cdn6zj55s1hhv4njp6x8_h0000gn/T//cc224n80.s 			page 25


 1369              		.loc 1 713 0
 1370 0018 FFF7FEBF 		b	mcpwm_get_tot_current_in_filtered
 1371              	.LVL73:
 1372              	.L192:
 1373              		.align	2
 1374              	.L191:
 1375 001c 00000000 		.word	.LANCHOR11
 1376 0020 00000000 		.word	0
 1377              		.cfi_endproc
 1378              	.LFE289:
 1379              		.size	mc_interface_get_tot_current_in_filtered, .-mc_interface_get_tot_current_in_filtered
 1380              		.section	.text.mc_interface_get_tachometer_value,"ax",%progbits
 1381              		.align	2
 1382              		.p2align 4,,15
 1383              		.global	mc_interface_get_tachometer_value
 1384              		.thumb
 1385              		.thumb_func
 1386              		.type	mc_interface_get_tachometer_value, %function
 1387              	mc_interface_get_tachometer_value:
 1388              	.LFB290:
 1389              		.loc 1 727 0
 1390              		.cfi_startproc
 1391              		@ args = 0, pretend = 0, frame = 0
 1392              		@ frame_needed = 0, uses_anonymous_args = 0
 1393              		@ link register save eliminated.
 1394              	.LVL74:
 1395              		.loc 1 730 0
 1396 0000 064B     		ldr	r3, .L200
 1397 0002 9B78     		ldrb	r3, [r3, #2]	@ zero_extendqisi2
 1398 0004 DBB2     		uxtb	r3, r3
 1399 0006 012B     		cmp	r3, #1
 1400 0008 05D9     		bls	.L195
 1401 000a 022B     		cmp	r3, #2
 1402 000c 01D1     		bne	.L199
 1403              		.loc 1 737 0
 1404 000e FFF7FEBF 		b	mcpwm_foc_get_tachometer_value
 1405              	.LVL75:
 1406              	.L199:
 1407              		.loc 1 745 0
 1408 0012 0020     		movs	r0, #0
 1409              	.LVL76:
 1410 0014 7047     		bx	lr
 1411              	.LVL77:
 1412              	.L195:
 1413              		.loc 1 733 0
 1414 0016 FFF7FEBF 		b	mcpwm_get_tachometer_value
 1415              	.LVL78:
 1416              	.L201:
 1417 001a 00BF     		.align	2
 1418              	.L200:
 1419 001c 00000000 		.word	.LANCHOR11
 1420              		.cfi_endproc
 1421              	.LFE290:
 1422              		.size	mc_interface_get_tachometer_value, .-mc_interface_get_tachometer_value
 1423              		.section	.text.mc_interface_get_tachometer_abs_value,"ax",%progbits
 1424              		.align	2
 1425              		.p2align 4,,15
ARM GAS  /var/folders/47/g7cdn6zj55s1hhv4njp6x8_h0000gn/T//cc224n80.s 			page 26


 1426              		.global	mc_interface_get_tachometer_abs_value
 1427              		.thumb
 1428              		.thumb_func
 1429              		.type	mc_interface_get_tachometer_abs_value, %function
 1430              	mc_interface_get_tachometer_abs_value:
 1431              	.LFB291:
 1432              		.loc 1 747 0
 1433              		.cfi_startproc
 1434              		@ args = 0, pretend = 0, frame = 0
 1435              		@ frame_needed = 0, uses_anonymous_args = 0
 1436              		@ link register save eliminated.
 1437              	.LVL79:
 1438              		.loc 1 750 0
 1439 0000 064B     		ldr	r3, .L209
 1440 0002 9B78     		ldrb	r3, [r3, #2]	@ zero_extendqisi2
 1441 0004 DBB2     		uxtb	r3, r3
 1442 0006 012B     		cmp	r3, #1
 1443 0008 05D9     		bls	.L204
 1444 000a 022B     		cmp	r3, #2
 1445 000c 01D1     		bne	.L208
 1446              		.loc 1 757 0
 1447 000e FFF7FEBF 		b	mcpwm_foc_get_tachometer_abs_value
 1448              	.LVL80:
 1449              	.L208:
 1450              		.loc 1 765 0
 1451 0012 0020     		movs	r0, #0
 1452              	.LVL81:
 1453 0014 7047     		bx	lr
 1454              	.LVL82:
 1455              	.L204:
 1456              		.loc 1 753 0
 1457 0016 FFF7FEBF 		b	mcpwm_get_tachometer_abs_value
 1458              	.LVL83:
 1459              	.L210:
 1460 001a 00BF     		.align	2
 1461              	.L209:
 1462 001c 00000000 		.word	.LANCHOR11
 1463              		.cfi_endproc
 1464              	.LFE291:
 1465              		.size	mc_interface_get_tachometer_abs_value, .-mc_interface_get_tachometer_abs_value
 1466              		.section	.text.mc_interface_get_last_inj_adc_isr_duration,"ax",%progbits
 1467              		.align	2
 1468              		.p2align 4,,15
 1469              		.global	mc_interface_get_last_inj_adc_isr_duration
 1470              		.thumb
 1471              		.thumb_func
 1472              		.type	mc_interface_get_last_inj_adc_isr_duration, %function
 1473              	mc_interface_get_last_inj_adc_isr_duration:
 1474              	.LFB292:
 1475              		.loc 1 767 0
 1476              		.cfi_startproc
 1477              		@ args = 0, pretend = 0, frame = 0
 1478              		@ frame_needed = 0, uses_anonymous_args = 0
 1479              		@ link register save eliminated.
 1480              	.LVL84:
 1481              		.loc 1 770 0
 1482 0000 064B     		ldr	r3, .L218
ARM GAS  /var/folders/47/g7cdn6zj55s1hhv4njp6x8_h0000gn/T//cc224n80.s 			page 27


 1483 0002 9B78     		ldrb	r3, [r3, #2]	@ zero_extendqisi2
 1484 0004 DBB2     		uxtb	r3, r3
 1485 0006 012B     		cmp	r3, #1
 1486 0008 06D9     		bls	.L213
 1487 000a 022B     		cmp	r3, #2
 1488 000c 01D1     		bne	.L217
 1489              		.loc 1 777 0
 1490 000e FFF7FEBF 		b	mcpwm_foc_get_last_inj_adc_isr_duration
 1491              	.LVL85:
 1492              	.L217:
 1493              		.loc 1 785 0
 1494 0012 9FED030A 		flds	s0, .L218+4
 1495 0016 7047     		bx	lr
 1496              	.L213:
 1497              		.loc 1 773 0
 1498 0018 FFF7FEBF 		b	mcpwm_get_last_inj_adc_isr_duration
 1499              	.LVL86:
 1500              	.L219:
 1501              		.align	2
 1502              	.L218:
 1503 001c 00000000 		.word	.LANCHOR11
 1504 0020 00000000 		.word	0
 1505              		.cfi_endproc
 1506              	.LFE292:
 1507              		.size	mc_interface_get_last_inj_adc_isr_duration, .-mc_interface_get_last_inj_adc_isr_duration
 1508              		.section	.text.mc_interface_read_reset_avg_motor_current,"ax",%progbits
 1509              		.align	2
 1510              		.p2align 4,,15
 1511              		.global	mc_interface_read_reset_avg_motor_current
 1512              		.thumb
 1513              		.thumb_func
 1514              		.type	mc_interface_read_reset_avg_motor_current, %function
 1515              	mc_interface_read_reset_avg_motor_current:
 1516              	.LFB293:
 1517              		.loc 1 787 0
 1518              		.cfi_startproc
 1519              		@ args = 0, pretend = 0, frame = 0
 1520              		@ frame_needed = 0, uses_anonymous_args = 0
 1521              		@ link register save eliminated.
 1522              		.loc 1 788 0
 1523 0000 0549     		ldr	r1, .L221
 1524 0002 064B     		ldr	r3, .L221+4
 1525 0004 91ED000A 		flds	s0, [r1]
 1526 0008 D3ED007A 		flds	s15, [r3]
 1527              	.LVL87:
 1528              		.loc 1 789 0
 1529 000c 0022     		movs	r2, #0
 1530 000e 0A60     		str	r2, [r1]	@ float
 1531              		.loc 1 792 0
 1532 0010 80EE270A 		fdivs	s0, s0, s15
 1533              	.LVL88:
 1534              		.loc 1 790 0
 1535 0014 1A60     		str	r2, [r3]	@ float
 1536              		.loc 1 792 0
 1537 0016 7047     		bx	lr
 1538              	.L222:
 1539              		.align	2
ARM GAS  /var/folders/47/g7cdn6zj55s1hhv4njp6x8_h0000gn/T//cc224n80.s 			page 28


 1540              	.L221:
 1541 0018 00000000 		.word	.LANCHOR17
 1542 001c 00000000 		.word	.LANCHOR19
 1543              		.cfi_endproc
 1544              	.LFE293:
 1545              		.size	mc_interface_read_reset_avg_motor_current, .-mc_interface_read_reset_avg_motor_current
 1546              		.section	.text.mc_interface_read_reset_avg_input_current,"ax",%progbits
 1547              		.align	2
 1548              		.p2align 4,,15
 1549              		.global	mc_interface_read_reset_avg_input_current
 1550              		.thumb
 1551              		.thumb_func
 1552              		.type	mc_interface_read_reset_avg_input_current, %function
 1553              	mc_interface_read_reset_avg_input_current:
 1554              	.LFB294:
 1555              		.loc 1 794 0
 1556              		.cfi_startproc
 1557              		@ args = 0, pretend = 0, frame = 0
 1558              		@ frame_needed = 0, uses_anonymous_args = 0
 1559              		@ link register save eliminated.
 1560              		.loc 1 795 0
 1561 0000 0549     		ldr	r1, .L224
 1562 0002 064B     		ldr	r3, .L224+4
 1563 0004 91ED000A 		flds	s0, [r1]
 1564 0008 D3ED007A 		flds	s15, [r3]
 1565              	.LVL89:
 1566              		.loc 1 796 0
 1567 000c 0022     		movs	r2, #0
 1568 000e 0A60     		str	r2, [r1]	@ float
 1569              		.loc 1 799 0
 1570 0010 80EE270A 		fdivs	s0, s0, s15
 1571              	.LVL90:
 1572              		.loc 1 797 0
 1573 0014 1A60     		str	r2, [r3]	@ float
 1574              		.loc 1 799 0
 1575 0016 7047     		bx	lr
 1576              	.L225:
 1577              		.align	2
 1578              	.L224:
 1579 0018 00000000 		.word	.LANCHOR18
 1580 001c 00000000 		.word	.LANCHOR20
 1581              		.cfi_endproc
 1582              	.LFE294:
 1583              		.size	mc_interface_read_reset_avg_input_current, .-mc_interface_read_reset_avg_input_current
 1584              		.section	.text.mc_interface_get_pid_pos_set,"ax",%progbits
 1585              		.align	2
 1586              		.p2align 4,,15
 1587              		.global	mc_interface_get_pid_pos_set
 1588              		.thumb
 1589              		.thumb_func
 1590              		.type	mc_interface_get_pid_pos_set, %function
 1591              	mc_interface_get_pid_pos_set:
 1592              	.LFB295:
 1593              		.loc 1 801 0
 1594              		.cfi_startproc
 1595              		@ args = 0, pretend = 0, frame = 0
 1596              		@ frame_needed = 0, uses_anonymous_args = 0
ARM GAS  /var/folders/47/g7cdn6zj55s1hhv4njp6x8_h0000gn/T//cc224n80.s 			page 29


 1597              		@ link register save eliminated.
 1598              		.loc 1 802 0
 1599 0000 014B     		ldr	r3, .L227
 1600 0002 93ED000A 		flds	s0, [r3]
 1601              		.loc 1 803 0
 1602 0006 7047     		bx	lr
 1603              	.L228:
 1604              		.align	2
 1605              	.L227:
 1606 0008 00000000 		.word	.LANCHOR25
 1607              		.cfi_endproc
 1608              	.LFE295:
 1609              		.size	mc_interface_get_pid_pos_set, .-mc_interface_get_pid_pos_set
 1610              		.section	.text.mc_interface_get_pid_pos_now,"ax",%progbits
 1611              		.align	2
 1612              		.p2align 4,,15
 1613              		.global	mc_interface_get_pid_pos_now
 1614              		.thumb
 1615              		.thumb_func
 1616              		.type	mc_interface_get_pid_pos_now, %function
 1617              	mc_interface_get_pid_pos_now:
 1618              	.LFB296:
 1619              		.loc 1 805 0
 1620              		.cfi_startproc
 1621              		@ args = 0, pretend = 0, frame = 0
 1622              		@ frame_needed = 0, uses_anonymous_args = 0
 1623              		@ link register save eliminated.
 1624              	.LVL91:
 1625              		.loc 1 808 0
 1626 0000 064B     		ldr	r3, .L236
 1627 0002 9B78     		ldrb	r3, [r3, #2]	@ zero_extendqisi2
 1628 0004 DBB2     		uxtb	r3, r3
 1629 0006 012B     		cmp	r3, #1
 1630 0008 06D9     		bls	.L231
 1631 000a 022B     		cmp	r3, #2
 1632 000c 01D1     		bne	.L235
 1633              		.loc 1 815 0
 1634 000e FFF7FEBF 		b	mcpwm_foc_get_pid_pos_now
 1635              	.LVL92:
 1636              	.L235:
 1637              		.loc 1 823 0
 1638 0012 9FED030A 		flds	s0, .L236+4
 1639 0016 7047     		bx	lr
 1640              	.L231:
 1641              		.loc 1 811 0
 1642 0018 FFF7FEBF 		b	encoder_read_deg
 1643              	.LVL93:
 1644              	.L237:
 1645              		.align	2
 1646              	.L236:
 1647 001c 00000000 		.word	.LANCHOR11
 1648 0020 00000000 		.word	0
 1649              		.cfi_endproc
 1650              	.LFE296:
 1651              		.size	mc_interface_get_pid_pos_now, .-mc_interface_get_pid_pos_now
 1652              		.section	.text.mc_interface_get_last_sample_adc_isr_duration,"ax",%progbits
 1653              		.align	2
ARM GAS  /var/folders/47/g7cdn6zj55s1hhv4njp6x8_h0000gn/T//cc224n80.s 			page 30


 1654              		.p2align 4,,15
 1655              		.global	mc_interface_get_last_sample_adc_isr_duration
 1656              		.thumb
 1657              		.thumb_func
 1658              		.type	mc_interface_get_last_sample_adc_isr_duration, %function
 1659              	mc_interface_get_last_sample_adc_isr_duration:
 1660              	.LFB297:
 1661              		.loc 1 825 0
 1662              		.cfi_startproc
 1663              		@ args = 0, pretend = 0, frame = 0
 1664              		@ frame_needed = 0, uses_anonymous_args = 0
 1665              		@ link register save eliminated.
 1666              		.loc 1 826 0
 1667 0000 014B     		ldr	r3, .L239
 1668 0002 93ED000A 		flds	s0, [r3]
 1669              		.loc 1 827 0
 1670 0006 7047     		bx	lr
 1671              	.L240:
 1672              		.align	2
 1673              	.L239:
 1674 0008 00000000 		.word	.LANCHOR26
 1675              		.cfi_endproc
 1676              	.LFE297:
 1677              		.size	mc_interface_get_last_sample_adc_isr_duration, .-mc_interface_get_last_sample_adc_isr_durati
 1678              		.section	.text.mc_interface_sample_print_data,"ax",%progbits
 1679              		.align	2
 1680              		.p2align 4,,15
 1681              		.global	mc_interface_sample_print_data
 1682              		.thumb
 1683              		.thumb_func
 1684              		.type	mc_interface_sample_print_data, %function
 1685              	mc_interface_sample_print_data:
 1686              	.LFB298:
 1687              		.loc 1 829 0
 1688              		.cfi_startproc
 1689              		@ args = 0, pretend = 0, frame = 0
 1690              		@ frame_needed = 0, uses_anonymous_args = 0
 1691              	.LVL94:
 1692 0000 10B5     		push	{r4, lr}
 1693              		.cfi_def_cfa_offset 8
 1694              		.cfi_offset 4, -8
 1695              		.cfi_offset 14, -4
 1696              		.loc 1 835 0
 1697 0002 0B4B     		ldr	r3, .L246
 1698              		.loc 1 834 0
 1699 0004 0B4C     		ldr	r4, .L246+4
 1700 0006 B1F5FA6F 		cmp	r1, #2000
 1701 000a 28BF     		it	cs
 1702 000c 4FF4FA61 		movcs	r1, #2000
 1703              	.LVL95:
 1704 0010 2160     		str	r1, [r4]
 1705              		.loc 1 835 0
 1706 0012 1A60     		str	r2, [r3]
 1707              		.loc 1 837 0
 1708 0014 20B9     		cbnz	r0, .L245
 1709              		.loc 1 841 0
 1710 0016 084A     		ldr	r2, .L246+8
ARM GAS  /var/folders/47/g7cdn6zj55s1hhv4njp6x8_h0000gn/T//cc224n80.s 			page 31


 1711              	.LVL96:
 1712              		.loc 1 842 0
 1713 0018 084B     		ldr	r3, .L246+12
 1714              		.loc 1 841 0
 1715 001a 1060     		str	r0, [r2]
 1716              		.loc 1 842 0
 1717 001c 1860     		str	r0, [r3]
 1718 001e 10BD     		pop	{r4, pc}
 1719              	.LVL97:
 1720              	.L245:
 1721              		.loc 1 838 0
 1722 0020 074B     		ldr	r3, .L246+16
 1723 0022 0122     		movs	r2, #1
 1724              	.LVL98:
 1725 0024 1A60     		str	r2, [r3]
 1726              		.loc 1 839 0
 1727 0026 FFF7FEFF 		bl	mcpwm_get_comm_step
 1728              	.LVL99:
 1729 002a 064B     		ldr	r3, .L246+20
 1730 002c 1860     		str	r0, [r3]
 1731 002e 10BD     		pop	{r4, pc}
 1732              	.L247:
 1733              		.align	2
 1734              	.L246:
 1735 0030 00000000 		.word	.LANCHOR27
 1736 0034 00000000 		.word	.LANCHOR1
 1737 0038 00000000 		.word	.LANCHOR29
 1738 003c 00000000 		.word	.LANCHOR28
 1739 0040 00000000 		.word	.LANCHOR30
 1740 0044 00000000 		.word	.LANCHOR31
 1741              		.cfi_endproc
 1742              	.LFE298:
 1743              		.size	mc_interface_sample_print_data, .-mc_interface_sample_print_data
 1744              		.section	.text.mc_interface_try_input,"ax",%progbits
 1745              		.align	2
 1746              		.p2align 4,,15
 1747              		.global	mc_interface_try_input
 1748              		.thumb
 1749              		.thumb_func
 1750              		.type	mc_interface_try_input, %function
 1751              	mc_interface_try_input:
 1752              	.LFB299:
 1753              		.loc 1 855 0
 1754              		.cfi_startproc
 1755              		@ args = 0, pretend = 0, frame = 0
 1756              		@ frame_needed = 0, uses_anonymous_args = 0
 1757 0000 08B5     		push	{r3, lr}
 1758              		.cfi_def_cfa_offset 8
 1759              		.cfi_offset 3, -8
 1760              		.cfi_offset 14, -4
 1761              		.loc 1 857 0
 1762 0002 FFF7FEFF 		bl	mc_interface_get_state
 1763              	.LVL100:
 1764 0006 0128     		cmp	r0, #1
 1765 0008 0CD0     		beq	.L256
 1766              		.loc 1 862 0
 1767 000a 0A4B     		ldr	r3, .L257
ARM GAS  /var/folders/47/g7cdn6zj55s1hhv4njp6x8_h0000gn/T//cc224n80.s 			page 32


 1768 000c 1868     		ldr	r0, [r3]
 1769              	.LVL101:
 1770              		.loc 1 864 0
 1771 000e 40B9     		cbnz	r0, .L250
 1772              		.loc 1 864 0 is_stmt 0 discriminator 1
 1773 0010 094B     		ldr	r3, .L257+4
 1774 0012 1B78     		ldrb	r3, [r3]	@ zero_extendqisi2
 1775 0014 2BB1     		cbz	r3, .L250
 1776              		.loc 1 865 0 is_stmt 1
 1777 0016 094B     		ldr	r3, .L257+8
 1778 0018 1A78     		ldrb	r2, [r3]	@ zero_extendqisi2
 1779 001a 0AB1     		cbz	r2, .L251
 1780              		.loc 1 868 0
 1781 001c 1870     		strb	r0, [r3]
 1782 001e 08BD     		pop	{r3, pc}
 1783              	.L251:
 1784              		.loc 1 866 0
 1785 0020 0120     		movs	r0, #1
 1786              	.LVL102:
 1787              	.L250:
 1788              		.loc 1 873 0
 1789 0022 08BD     		pop	{r3, pc}
 1790              	.LVL103:
 1791              	.L256:
 1792              		.loc 1 858 0
 1793 0024 FFF7FEFF 		bl	mcpwm_stop_pwm
 1794              	.LVL104:
 1795              		.loc 1 859 0
 1796 0028 024B     		ldr	r3, .L257
 1797 002a 4FF4FA70 		mov	r0, #500
 1798 002e 1860     		str	r0, [r3]
 1799              	.LVL105:
 1800 0030 08BD     		pop	{r3, pc}
 1801              	.L258:
 1802 0032 00BF     		.align	2
 1803              	.L257:
 1804 0034 00000000 		.word	.LANCHOR13
 1805 0038 00000000 		.word	.LANCHOR15
 1806 003c 00000000 		.word	.LANCHOR16
 1807              		.cfi_endproc
 1808              	.LFE299:
 1809              		.size	mc_interface_try_input, .-mc_interface_try_input
 1810              		.section	.text.mc_interface_set_duty,"ax",%progbits
 1811              		.align	2
 1812              		.p2align 4,,15
 1813              		.global	mc_interface_set_duty
 1814              		.thumb
 1815              		.thumb_func
 1816              		.type	mc_interface_set_duty, %function
 1817              	mc_interface_set_duty:
 1818              	.LFB267:
 1819              		.loc 1 298 0
 1820              		.cfi_startproc
 1821              		@ args = 0, pretend = 0, frame = 0
 1822              		@ frame_needed = 0, uses_anonymous_args = 0
 1823              	.LVL106:
 1824 0000 08B5     		push	{r3, lr}
ARM GAS  /var/folders/47/g7cdn6zj55s1hhv4njp6x8_h0000gn/T//cc224n80.s 			page 33


 1825              		.cfi_def_cfa_offset 8
 1826              		.cfi_offset 3, -8
 1827              		.cfi_offset 14, -4
 1828 0002 2DED028B 		fstmfdd	sp!, {d8}
 1829              		.cfi_def_cfa_offset 16
 1830              		.cfi_offset 80, -16
 1831              		.cfi_offset 81, -12
 1832              		.loc 1 298 0
 1833 0006 B0EE408A 		fcpys	s16, s0
 1834              		.loc 1 299 0
 1835 000a FFF7FEFF 		bl	mc_interface_try_input
 1836              	.LVL107:
 1837 000e 70B9     		cbnz	r0, .L259
 1838              	.LVL108:
 1839              	.LBB77:
 1840              	.LBB78:
 1841              		.loc 1 303 0
 1842 0010 0C4B     		ldr	r3, .L264
 1843 0012 9B78     		ldrb	r3, [r3, #2]	@ zero_extendqisi2
 1844 0014 DBB2     		uxtb	r3, r3
 1845 0016 012B     		cmp	r3, #1
 1846 0018 0CD9     		bls	.L261
 1847 001a 022B     		cmp	r3, #2
 1848 001c 07D1     		bne	.L259
 1849              		.loc 1 310 0
 1850 001e B0EE480A 		fcpys	s0, s16
 1851              	.LBE78:
 1852              	.LBE77:
 1853              		.loc 1 316 0
 1854 0022 BDEC028B 		fldmfdd	sp!, {d8}
 1855              		.cfi_remember_state
 1856              		.cfi_restore 80
 1857              		.cfi_restore 81
 1858              		.cfi_def_cfa_offset 8
 1859              	.LVL109:
 1860 0026 BDE80840 		pop	{r3, lr}
 1861              		.cfi_restore 14
 1862              		.cfi_restore 3
 1863              		.cfi_def_cfa_offset 0
 1864              	.LBB82:
 1865              	.LBB79:
 1866              		.loc 1 310 0
 1867 002a FFF7FEBF 		b	mcpwm_foc_set_duty
 1868              	.LVL110:
 1869              	.L259:
 1870              		.cfi_restore_state
 1871              	.LBE79:
 1872              	.LBE82:
 1873              		.loc 1 316 0
 1874 002e BDEC028B 		fldmfdd	sp!, {d8}
 1875              		.cfi_remember_state
 1876              		.cfi_restore 80
 1877              		.cfi_restore 81
 1878              		.cfi_def_cfa_offset 8
 1879              	.LVL111:
 1880 0032 08BD     		pop	{r3, pc}
 1881              	.LVL112:
ARM GAS  /var/folders/47/g7cdn6zj55s1hhv4njp6x8_h0000gn/T//cc224n80.s 			page 34


 1882              	.L261:
 1883              		.cfi_restore_state
 1884              	.LBB83:
 1885              	.LBB80:
 1886              		.loc 1 306 0
 1887 0034 B0EE480A 		fcpys	s0, s16
 1888              	.LBE80:
 1889              	.LBE83:
 1890              		.loc 1 316 0
 1891 0038 BDEC028B 		fldmfdd	sp!, {d8}
 1892              		.cfi_restore 80
 1893              		.cfi_restore 81
 1894              		.cfi_def_cfa_offset 8
 1895              	.LVL113:
 1896 003c BDE80840 		pop	{r3, lr}
 1897              		.cfi_restore 14
 1898              		.cfi_restore 3
 1899              		.cfi_def_cfa_offset 0
 1900              	.LBB84:
 1901              	.LBB81:
 1902              		.loc 1 306 0
 1903 0040 FFF7FEBF 		b	mcpwm_set_duty
 1904              	.LVL114:
 1905              	.L265:
 1906              		.align	2
 1907              	.L264:
 1908 0044 00000000 		.word	.LANCHOR11
 1909              	.LBE81:
 1910              	.LBE84:
 1911              		.cfi_endproc
 1912              	.LFE267:
 1913              		.size	mc_interface_set_duty, .-mc_interface_set_duty
 1914              		.section	.text.mc_interface_brake_now,"ax",%progbits
 1915              		.align	2
 1916              		.p2align 4,,15
 1917              		.global	mc_interface_brake_now
 1918              		.thumb
 1919              		.thumb_func
 1920              		.type	mc_interface_brake_now, %function
 1921              	mc_interface_brake_now:
 1922              	.LFB274:
 1923              		.loc 1 437 0
 1924              		.cfi_startproc
 1925              		@ args = 0, pretend = 0, frame = 0
 1926              		@ frame_needed = 0, uses_anonymous_args = 0
 1927              		@ link register save eliminated.
 1928              		.loc 1 438 0
 1929 0000 9FED010A 		flds	s0, .L267
 1930 0004 FFF7FEBF 		b	mc_interface_set_duty
 1931              	.LVL115:
 1932              	.L268:
 1933              		.align	2
 1934              	.L267:
 1935 0008 00000000 		.word	0
 1936              		.cfi_endproc
 1937              	.LFE274:
 1938              		.size	mc_interface_brake_now, .-mc_interface_brake_now
ARM GAS  /var/folders/47/g7cdn6zj55s1hhv4njp6x8_h0000gn/T//cc224n80.s 			page 35


 1939              		.section	.text.mc_interface_set_duty_noramp,"ax",%progbits
 1940              		.align	2
 1941              		.p2align 4,,15
 1942              		.global	mc_interface_set_duty_noramp
 1943              		.thumb
 1944              		.thumb_func
 1945              		.type	mc_interface_set_duty_noramp, %function
 1946              	mc_interface_set_duty_noramp:
 1947              	.LFB268:
 1948              		.loc 1 318 0
 1949              		.cfi_startproc
 1950              		@ args = 0, pretend = 0, frame = 0
 1951              		@ frame_needed = 0, uses_anonymous_args = 0
 1952              	.LVL116:
 1953 0000 08B5     		push	{r3, lr}
 1954              		.cfi_def_cfa_offset 8
 1955              		.cfi_offset 3, -8
 1956              		.cfi_offset 14, -4
 1957 0002 2DED028B 		fstmfdd	sp!, {d8}
 1958              		.cfi_def_cfa_offset 16
 1959              		.cfi_offset 80, -16
 1960              		.cfi_offset 81, -12
 1961              		.loc 1 318 0
 1962 0006 B0EE408A 		fcpys	s16, s0
 1963              		.loc 1 319 0
 1964 000a FFF7FEFF 		bl	mc_interface_try_input
 1965              	.LVL117:
 1966 000e 70B9     		cbnz	r0, .L269
 1967              		.loc 1 323 0
 1968 0010 0C4B     		ldr	r3, .L274
 1969 0012 9B78     		ldrb	r3, [r3, #2]	@ zero_extendqisi2
 1970 0014 DBB2     		uxtb	r3, r3
 1971 0016 012B     		cmp	r3, #1
 1972 0018 0CD9     		bls	.L271
 1973 001a 022B     		cmp	r3, #2
 1974 001c 07D1     		bne	.L269
 1975              		.loc 1 330 0
 1976 001e B0EE480A 		fcpys	s0, s16
 1977              		.loc 1 336 0
 1978 0022 BDEC028B 		fldmfdd	sp!, {d8}
 1979              		.cfi_remember_state
 1980              		.cfi_restore 80
 1981              		.cfi_restore 81
 1982              		.cfi_def_cfa_offset 8
 1983              	.LVL118:
 1984 0026 BDE80840 		pop	{r3, lr}
 1985              		.cfi_restore 14
 1986              		.cfi_restore 3
 1987              		.cfi_def_cfa_offset 0
 1988              		.loc 1 330 0
 1989 002a FFF7FEBF 		b	mcpwm_foc_set_duty_noramp
 1990              	.LVL119:
 1991              	.L269:
 1992              		.cfi_restore_state
 1993              		.loc 1 336 0
 1994 002e BDEC028B 		fldmfdd	sp!, {d8}
 1995              		.cfi_remember_state
ARM GAS  /var/folders/47/g7cdn6zj55s1hhv4njp6x8_h0000gn/T//cc224n80.s 			page 36


 1996              		.cfi_restore 80
 1997              		.cfi_restore 81
 1998              		.cfi_def_cfa_offset 8
 1999              	.LVL120:
 2000 0032 08BD     		pop	{r3, pc}
 2001              	.LVL121:
 2002              	.L271:
 2003              		.cfi_restore_state
 2004              		.loc 1 326 0
 2005 0034 B0EE480A 		fcpys	s0, s16
 2006              		.loc 1 336 0
 2007 0038 BDEC028B 		fldmfdd	sp!, {d8}
 2008              		.cfi_restore 80
 2009              		.cfi_restore 81
 2010              		.cfi_def_cfa_offset 8
 2011              	.LVL122:
 2012 003c BDE80840 		pop	{r3, lr}
 2013              		.cfi_restore 14
 2014              		.cfi_restore 3
 2015              		.cfi_def_cfa_offset 0
 2016              		.loc 1 326 0
 2017 0040 FFF7FEBF 		b	mcpwm_set_duty_noramp
 2018              	.LVL123:
 2019              	.L275:
 2020              		.align	2
 2021              	.L274:
 2022 0044 00000000 		.word	.LANCHOR11
 2023              		.cfi_endproc
 2024              	.LFE268:
 2025              		.size	mc_interface_set_duty_noramp, .-mc_interface_set_duty_noramp
 2026              		.section	.text.mc_interface_set_pid_speed,"ax",%progbits
 2027              		.align	2
 2028              		.p2align 4,,15
 2029              		.global	mc_interface_set_pid_speed
 2030              		.thumb
 2031              		.thumb_func
 2032              		.type	mc_interface_set_pid_speed, %function
 2033              	mc_interface_set_pid_speed:
 2034              	.LFB269:
 2035              		.loc 1 338 0
 2036              		.cfi_startproc
 2037              		@ args = 0, pretend = 0, frame = 0
 2038              		@ frame_needed = 0, uses_anonymous_args = 0
 2039              	.LVL124:
 2040 0000 08B5     		push	{r3, lr}
 2041              		.cfi_def_cfa_offset 8
 2042              		.cfi_offset 3, -8
 2043              		.cfi_offset 14, -4
 2044 0002 2DED028B 		fstmfdd	sp!, {d8}
 2045              		.cfi_def_cfa_offset 16
 2046              		.cfi_offset 80, -16
 2047              		.cfi_offset 81, -12
 2048              		.loc 1 338 0
 2049 0006 B0EE408A 		fcpys	s16, s0
 2050              		.loc 1 339 0
 2051 000a FFF7FEFF 		bl	mc_interface_try_input
 2052              	.LVL125:
ARM GAS  /var/folders/47/g7cdn6zj55s1hhv4njp6x8_h0000gn/T//cc224n80.s 			page 37


 2053 000e 70B9     		cbnz	r0, .L276
 2054              		.loc 1 343 0
 2055 0010 0C4B     		ldr	r3, .L281
 2056 0012 9B78     		ldrb	r3, [r3, #2]	@ zero_extendqisi2
 2057 0014 DBB2     		uxtb	r3, r3
 2058 0016 012B     		cmp	r3, #1
 2059 0018 0CD9     		bls	.L278
 2060 001a 022B     		cmp	r3, #2
 2061 001c 07D1     		bne	.L276
 2062              		.loc 1 350 0
 2063 001e B0EE480A 		fcpys	s0, s16
 2064              		.loc 1 356 0
 2065 0022 BDEC028B 		fldmfdd	sp!, {d8}
 2066              		.cfi_remember_state
 2067              		.cfi_restore 80
 2068              		.cfi_restore 81
 2069              		.cfi_def_cfa_offset 8
 2070              	.LVL126:
 2071 0026 BDE80840 		pop	{r3, lr}
 2072              		.cfi_restore 14
 2073              		.cfi_restore 3
 2074              		.cfi_def_cfa_offset 0
 2075              		.loc 1 350 0
 2076 002a FFF7FEBF 		b	mcpwm_foc_set_pid_speed
 2077              	.LVL127:
 2078              	.L276:
 2079              		.cfi_restore_state
 2080              		.loc 1 356 0
 2081 002e BDEC028B 		fldmfdd	sp!, {d8}
 2082              		.cfi_remember_state
 2083              		.cfi_restore 80
 2084              		.cfi_restore 81
 2085              		.cfi_def_cfa_offset 8
 2086              	.LVL128:
 2087 0032 08BD     		pop	{r3, pc}
 2088              	.LVL129:
 2089              	.L278:
 2090              		.cfi_restore_state
 2091              		.loc 1 346 0
 2092 0034 B0EE480A 		fcpys	s0, s16
 2093              		.loc 1 356 0
 2094 0038 BDEC028B 		fldmfdd	sp!, {d8}
 2095              		.cfi_restore 80
 2096              		.cfi_restore 81
 2097              		.cfi_def_cfa_offset 8
 2098              	.LVL130:
 2099 003c BDE80840 		pop	{r3, lr}
 2100              		.cfi_restore 14
 2101              		.cfi_restore 3
 2102              		.cfi_def_cfa_offset 0
 2103              		.loc 1 346 0
 2104 0040 FFF7FEBF 		b	mcpwm_set_pid_speed
 2105              	.LVL131:
 2106              	.L282:
 2107              		.align	2
 2108              	.L281:
 2109 0044 00000000 		.word	.LANCHOR11
ARM GAS  /var/folders/47/g7cdn6zj55s1hhv4njp6x8_h0000gn/T//cc224n80.s 			page 38


 2110              		.cfi_endproc
 2111              	.LFE269:
 2112              		.size	mc_interface_set_pid_speed, .-mc_interface_set_pid_speed
 2113              		.section	.text.mc_interface_set_pid_pos,"ax",%progbits
 2114              		.align	2
 2115              		.p2align 4,,15
 2116              		.global	mc_interface_set_pid_pos
 2117              		.thumb
 2118              		.thumb_func
 2119              		.type	mc_interface_set_pid_pos, %function
 2120              	mc_interface_set_pid_pos:
 2121              	.LFB271:
 2122              		.loc 1 375 0
 2123              		.cfi_startproc
 2124              		@ args = 0, pretend = 0, frame = 0
 2125              		@ frame_needed = 0, uses_anonymous_args = 0
 2126              	.LVL132:
 2127 0000 08B5     		push	{r3, lr}
 2128              		.cfi_def_cfa_offset 8
 2129              		.cfi_offset 3, -8
 2130              		.cfi_offset 14, -4
 2131 0002 2DED028B 		fstmfdd	sp!, {d8}
 2132              		.cfi_def_cfa_offset 16
 2133              		.cfi_offset 80, -16
 2134              		.cfi_offset 81, -12
 2135              		.loc 1 375 0
 2136 0006 B0EE408A 		fcpys	s16, s0
 2137              		.loc 1 376 0
 2138 000a FFF7FEFF 		bl	mc_interface_try_input
 2139              	.LVL133:
 2140 000e 88B9     		cbnz	r0, .L283
 2141              		.loc 1 380 0
 2142 0010 0E4A     		ldr	r2, .L288
 2143              		.loc 1 382 0
 2144 0012 0F4B     		ldr	r3, .L288+4
 2145              		.loc 1 380 0
 2146 0014 82ED008A 		fsts	s16, [r2]
 2147              		.loc 1 382 0
 2148 0018 9B78     		ldrb	r3, [r3, #2]	@ zero_extendqisi2
 2149 001a DBB2     		uxtb	r3, r3
 2150 001c 012B     		cmp	r3, #1
 2151 001e 0CD9     		bls	.L285
 2152 0020 022B     		cmp	r3, #2
 2153 0022 07D1     		bne	.L283
 2154              		.loc 1 389 0
 2155 0024 B0EE480A 		fcpys	s0, s16
 2156              		.loc 1 395 0
 2157 0028 BDEC028B 		fldmfdd	sp!, {d8}
 2158              		.cfi_remember_state
 2159              		.cfi_restore 80
 2160              		.cfi_restore 81
 2161              		.cfi_def_cfa_offset 8
 2162              	.LVL134:
 2163 002c BDE80840 		pop	{r3, lr}
 2164              		.cfi_restore 14
 2165              		.cfi_restore 3
 2166              		.cfi_def_cfa_offset 0
ARM GAS  /var/folders/47/g7cdn6zj55s1hhv4njp6x8_h0000gn/T//cc224n80.s 			page 39


 2167              		.loc 1 389 0
 2168 0030 FFF7FEBF 		b	mcpwm_foc_set_pid_pos
 2169              	.LVL135:
 2170              	.L283:
 2171              		.cfi_restore_state
 2172              		.loc 1 395 0
 2173 0034 BDEC028B 		fldmfdd	sp!, {d8}
 2174              		.cfi_remember_state
 2175              		.cfi_restore 80
 2176              		.cfi_restore 81
 2177              		.cfi_def_cfa_offset 8
 2178              	.LVL136:
 2179 0038 08BD     		pop	{r3, pc}
 2180              	.LVL137:
 2181              	.L285:
 2182              		.cfi_restore_state
 2183              		.loc 1 385 0
 2184 003a B0EE480A 		fcpys	s0, s16
 2185              		.loc 1 395 0
 2186 003e BDEC028B 		fldmfdd	sp!, {d8}
 2187              		.cfi_restore 80
 2188              		.cfi_restore 81
 2189              		.cfi_def_cfa_offset 8
 2190              	.LVL138:
 2191 0042 BDE80840 		pop	{r3, lr}
 2192              		.cfi_restore 14
 2193              		.cfi_restore 3
 2194              		.cfi_def_cfa_offset 0
 2195              		.loc 1 385 0
 2196 0046 FFF7FEBF 		b	mcpwm_set_pid_pos
 2197              	.LVL139:
 2198              	.L289:
 2199 004a 00BF     		.align	2
 2200              	.L288:
 2201 004c 00000000 		.word	.LANCHOR25
 2202 0050 00000000 		.word	.LANCHOR11
 2203              		.cfi_endproc
 2204              	.LFE271:
 2205              		.size	mc_interface_set_pid_pos, .-mc_interface_set_pid_pos
 2206              		.section	.text.mc_interface_set_current,"ax",%progbits
 2207              		.align	2
 2208              		.p2align 4,,15
 2209              		.global	mc_interface_set_current
 2210              		.thumb
 2211              		.thumb_func
 2212              		.type	mc_interface_set_current, %function
 2213              	mc_interface_set_current:
 2214              	.LFB272:
 2215              		.loc 1 397 0
 2216              		.cfi_startproc
 2217              		@ args = 0, pretend = 0, frame = 0
 2218              		@ frame_needed = 0, uses_anonymous_args = 0
 2219              	.LVL140:
 2220 0000 08B5     		push	{r3, lr}
 2221              		.cfi_def_cfa_offset 8
 2222              		.cfi_offset 3, -8
 2223              		.cfi_offset 14, -4
ARM GAS  /var/folders/47/g7cdn6zj55s1hhv4njp6x8_h0000gn/T//cc224n80.s 			page 40


 2224 0002 2DED028B 		fstmfdd	sp!, {d8}
 2225              		.cfi_def_cfa_offset 16
 2226              		.cfi_offset 80, -16
 2227              		.cfi_offset 81, -12
 2228              		.loc 1 397 0
 2229 0006 B0EE408A 		fcpys	s16, s0
 2230              		.loc 1 398 0
 2231 000a FFF7FEFF 		bl	mc_interface_try_input
 2232              	.LVL141:
 2233 000e 70B9     		cbnz	r0, .L290
 2234              	.LVL142:
 2235              	.LBB87:
 2236              	.LBB88:
 2237              		.loc 1 402 0
 2238 0010 0C4B     		ldr	r3, .L295
 2239 0012 9B78     		ldrb	r3, [r3, #2]	@ zero_extendqisi2
 2240 0014 DBB2     		uxtb	r3, r3
 2241 0016 012B     		cmp	r3, #1
 2242 0018 0CD9     		bls	.L292
 2243 001a 022B     		cmp	r3, #2
 2244 001c 07D1     		bne	.L290
 2245              		.loc 1 409 0
 2246 001e B0EE480A 		fcpys	s0, s16
 2247              	.LBE88:
 2248              	.LBE87:
 2249              		.loc 1 415 0
 2250 0022 BDEC028B 		fldmfdd	sp!, {d8}
 2251              		.cfi_remember_state
 2252              		.cfi_restore 80
 2253              		.cfi_restore 81
 2254              		.cfi_def_cfa_offset 8
 2255              	.LVL143:
 2256 0026 BDE80840 		pop	{r3, lr}
 2257              		.cfi_restore 14
 2258              		.cfi_restore 3
 2259              		.cfi_def_cfa_offset 0
 2260              	.LBB92:
 2261              	.LBB89:
 2262              		.loc 1 409 0
 2263 002a FFF7FEBF 		b	mcpwm_foc_set_current
 2264              	.LVL144:
 2265              	.L290:
 2266              		.cfi_restore_state
 2267              	.LBE89:
 2268              	.LBE92:
 2269              		.loc 1 415 0
 2270 002e BDEC028B 		fldmfdd	sp!, {d8}
 2271              		.cfi_remember_state
 2272              		.cfi_restore 80
 2273              		.cfi_restore 81
 2274              		.cfi_def_cfa_offset 8
 2275              	.LVL145:
 2276 0032 08BD     		pop	{r3, pc}
 2277              	.LVL146:
 2278              	.L292:
 2279              		.cfi_restore_state
 2280              	.LBB93:
ARM GAS  /var/folders/47/g7cdn6zj55s1hhv4njp6x8_h0000gn/T//cc224n80.s 			page 41


 2281              	.LBB90:
 2282              		.loc 1 405 0
 2283 0034 B0EE480A 		fcpys	s0, s16
 2284              	.LBE90:
 2285              	.LBE93:
 2286              		.loc 1 415 0
 2287 0038 BDEC028B 		fldmfdd	sp!, {d8}
 2288              		.cfi_restore 80
 2289              		.cfi_restore 81
 2290              		.cfi_def_cfa_offset 8
 2291              	.LVL147:
 2292 003c BDE80840 		pop	{r3, lr}
 2293              		.cfi_restore 14
 2294              		.cfi_restore 3
 2295              		.cfi_def_cfa_offset 0
 2296              	.LBB94:
 2297              	.LBB91:
 2298              		.loc 1 405 0
 2299 0040 FFF7FEBF 		b	mcpwm_set_current
 2300              	.LVL148:
 2301              	.L296:
 2302              		.align	2
 2303              	.L295:
 2304 0044 00000000 		.word	.LANCHOR11
 2305              	.LBE91:
 2306              	.LBE94:
 2307              		.cfi_endproc
 2308              	.LFE272:
 2309              		.size	mc_interface_set_current, .-mc_interface_set_current
 2310              		.section	.text.mc_interface_release_motor,"ax",%progbits
 2311              		.align	2
 2312              		.p2align 4,,15
 2313              		.global	mc_interface_release_motor
 2314              		.thumb
 2315              		.thumb_func
 2316              		.type	mc_interface_release_motor, %function
 2317              	mc_interface_release_motor:
 2318              	.LFB275:
 2319              		.loc 1 444 0
 2320              		.cfi_startproc
 2321              		@ args = 0, pretend = 0, frame = 0
 2322              		@ frame_needed = 0, uses_anonymous_args = 0
 2323              		@ link register save eliminated.
 2324              		.loc 1 445 0
 2325 0000 9FED010A 		flds	s0, .L298
 2326 0004 FFF7FEBF 		b	mc_interface_set_current
 2327              	.LVL149:
 2328              	.L299:
 2329              		.align	2
 2330              	.L298:
 2331 0008 00000000 		.word	0
 2332              		.cfi_endproc
 2333              	.LFE275:
 2334              		.size	mc_interface_release_motor, .-mc_interface_release_motor
 2335              		.section	.text.mc_interface_set_brake_current,"ax",%progbits
 2336              		.align	2
 2337              		.p2align 4,,15
ARM GAS  /var/folders/47/g7cdn6zj55s1hhv4njp6x8_h0000gn/T//cc224n80.s 			page 42


 2338              		.global	mc_interface_set_brake_current
 2339              		.thumb
 2340              		.thumb_func
 2341              		.type	mc_interface_set_brake_current, %function
 2342              	mc_interface_set_brake_current:
 2343              	.LFB273:
 2344              		.loc 1 417 0
 2345              		.cfi_startproc
 2346              		@ args = 0, pretend = 0, frame = 0
 2347              		@ frame_needed = 0, uses_anonymous_args = 0
 2348              	.LVL150:
 2349 0000 08B5     		push	{r3, lr}
 2350              		.cfi_def_cfa_offset 8
 2351              		.cfi_offset 3, -8
 2352              		.cfi_offset 14, -4
 2353 0002 2DED028B 		fstmfdd	sp!, {d8}
 2354              		.cfi_def_cfa_offset 16
 2355              		.cfi_offset 80, -16
 2356              		.cfi_offset 81, -12
 2357              		.loc 1 417 0
 2358 0006 B0EE408A 		fcpys	s16, s0
 2359              		.loc 1 418 0
 2360 000a FFF7FEFF 		bl	mc_interface_try_input
 2361              	.LVL151:
 2362 000e 70B9     		cbnz	r0, .L300
 2363              		.loc 1 422 0
 2364 0010 0C4B     		ldr	r3, .L305
 2365 0012 9B78     		ldrb	r3, [r3, #2]	@ zero_extendqisi2
 2366 0014 DBB2     		uxtb	r3, r3
 2367 0016 012B     		cmp	r3, #1
 2368 0018 0CD9     		bls	.L302
 2369 001a 022B     		cmp	r3, #2
 2370 001c 07D1     		bne	.L300
 2371              		.loc 1 429 0
 2372 001e B0EE480A 		fcpys	s0, s16
 2373              		.loc 1 435 0
 2374 0022 BDEC028B 		fldmfdd	sp!, {d8}
 2375              		.cfi_remember_state
 2376              		.cfi_restore 80
 2377              		.cfi_restore 81
 2378              		.cfi_def_cfa_offset 8
 2379              	.LVL152:
 2380 0026 BDE80840 		pop	{r3, lr}
 2381              		.cfi_restore 14
 2382              		.cfi_restore 3
 2383              		.cfi_def_cfa_offset 0
 2384              		.loc 1 429 0
 2385 002a FFF7FEBF 		b	mcpwm_foc_set_brake_current
 2386              	.LVL153:
 2387              	.L300:
 2388              		.cfi_restore_state
 2389              		.loc 1 435 0
 2390 002e BDEC028B 		fldmfdd	sp!, {d8}
 2391              		.cfi_remember_state
 2392              		.cfi_restore 80
 2393              		.cfi_restore 81
 2394              		.cfi_def_cfa_offset 8
ARM GAS  /var/folders/47/g7cdn6zj55s1hhv4njp6x8_h0000gn/T//cc224n80.s 			page 43


 2395              	.LVL154:
 2396 0032 08BD     		pop	{r3, pc}
 2397              	.LVL155:
 2398              	.L302:
 2399              		.cfi_restore_state
 2400              		.loc 1 425 0
 2401 0034 B0EE480A 		fcpys	s0, s16
 2402              		.loc 1 435 0
 2403 0038 BDEC028B 		fldmfdd	sp!, {d8}
 2404              		.cfi_restore 80
 2405              		.cfi_restore 81
 2406              		.cfi_def_cfa_offset 8
 2407              	.LVL156:
 2408 003c BDE80840 		pop	{r3, lr}
 2409              		.cfi_restore 14
 2410              		.cfi_restore 3
 2411              		.cfi_def_cfa_offset 0
 2412              		.loc 1 425 0
 2413 0040 FFF7FEBF 		b	mcpwm_set_brake_current
 2414              	.LVL157:
 2415              	.L306:
 2416              		.align	2
 2417              	.L305:
 2418 0044 00000000 		.word	.LANCHOR11
 2419              		.cfi_endproc
 2420              	.LFE273:
 2421              		.size	mc_interface_set_brake_current, .-mc_interface_set_brake_current
 2422              		.section	.text.mc_interface_fault_stop,"ax",%progbits
 2423              		.align	2
 2424              		.p2align 4,,15
 2425              		.global	mc_interface_fault_stop
 2426              		.thumb
 2427              		.thumb_func
 2428              		.type	mc_interface_fault_stop, %function
 2429              	mc_interface_fault_stop:
 2430              	.LFB300:
 2431              		.loc 1 875 0
 2432              		.cfi_startproc
 2433              		@ args = 0, pretend = 0, frame = 64
 2434              		@ frame_needed = 0, uses_anonymous_args = 0
 2435              	.LVL158:
 2436 0000 F0B5     		push	{r4, r5, r6, r7, lr}
 2437              		.cfi_def_cfa_offset 20
 2438              		.cfi_offset 4, -20
 2439              		.cfi_offset 5, -16
 2440              		.cfi_offset 6, -12
 2441              		.cfi_offset 7, -8
 2442              		.cfi_offset 14, -4
 2443 0002 91B0     		sub	sp, sp, #68
 2444              		.cfi_def_cfa_offset 88
 2445              		.loc 1 875 0
 2446 0004 0546     		mov	r5, r0
 2447              		.loc 1 876 0
 2448 0006 FFF7FEFF 		bl	mc_interface_dccal_done
 2449              	.LVL159:
 2450 000a 404C     		ldr	r4, .L317
 2451 000c 08B1     		cbz	r0, .L308
ARM GAS  /var/folders/47/g7cdn6zj55s1hhv4njp6x8_h0000gn/T//cc224n80.s 			page 44


 2452              		.loc 1 876 0 is_stmt 0 discriminator 1
 2453 000e 2678     		ldrb	r6, [r4]	@ zero_extendqisi2
 2454 0010 A6B1     		cbz	r6, .L316
 2455              	.L308:
 2456              		.loc 1 902 0 is_stmt 1
 2457 0012 3F4B     		ldr	r3, .L317+4
 2458 0014 3F4A     		ldr	r2, .L317+8
 2459 0016 D3F81C11 		ldr	r1, [r3, #284]
 2460              		.loc 1 904 0
 2461 001a 9B78     		ldrb	r3, [r3, #2]	@ zero_extendqisi2
 2462              		.loc 1 902 0
 2463 001c 1160     		str	r1, [r2]
 2464              		.loc 1 904 0
 2465 001e DBB2     		uxtb	r3, r3
 2466 0020 012B     		cmp	r3, #1
 2467 0022 06D9     		bls	.L310
 2468 0024 022B     		cmp	r3, #2
 2469 0026 01D1     		bne	.L309
 2470              		.loc 1 911 0
 2471 0028 FFF7FEFF 		bl	mcpwm_foc_stop_pwm
 2472              	.LVL160:
 2473              	.L309:
 2474              		.loc 1 918 0
 2475 002c 2570     		strb	r5, [r4]
 2476              		.loc 1 919 0
 2477 002e 11B0     		add	sp, sp, #68
 2478              		.cfi_remember_state
 2479              		.cfi_def_cfa_offset 20
 2480              		@ sp needed
 2481 0030 F0BD     		pop	{r4, r5, r6, r7, pc}
 2482              	.L310:
 2483              		.cfi_restore_state
 2484              		.loc 1 907 0
 2485 0032 FFF7FEFF 		bl	mcpwm_stop_pwm
 2486              	.LVL161:
 2487              		.loc 1 918 0
 2488 0036 2570     		strb	r5, [r4]
 2489              		.loc 1 919 0
 2490 0038 11B0     		add	sp, sp, #68
 2491              		.cfi_remember_state
 2492              		.cfi_def_cfa_offset 20
 2493              		@ sp needed
 2494 003a F0BD     		pop	{r4, r5, r6, r7, pc}
 2495              	.L316:
 2496              		.cfi_restore_state
 2497              	.LVL162:
 2498              	.LBB95:
 2499              	.LBB96:
 2500              	.LBB97:
 2501              	.LBB98:
 2502              	.LBB99:
 2503              		.file 3 "ChibiOS_3.0.2/os/ext/CMSIS/include/core_cmFunc.h"
 2504              		.loc 3 546 0
 2505 003c 2023     		movs	r3, #32
 2506              	@ 546 "ChibiOS_3.0.2/os/ext/CMSIS/include/core_cmFunc.h" 1
 2507 003e 83F31188 		MSR basepri, r3
 2508              	@ 0 "" 2
ARM GAS  /var/folders/47/g7cdn6zj55s1hhv4njp6x8_h0000gn/T//cc224n80.s 			page 45


 2509              		.thumb
 2510              	.LBE99:
 2511              	.LBE98:
 2512              	.LBE97:
 2513              	.LBE96:
 2514              		.loc 1 880 0
 2515 0042 354A     		ldr	r2, .L317+12
 2516              		.loc 1 881 0
 2517 0044 354B     		ldr	r3, .L317+16
 2518              		.loc 1 880 0
 2519 0046 526B     		ldr	r2, [r2, #52]
 2520 0048 0092     		str	r2, [sp]
 2521              		.loc 1 881 0
 2522 004a 1A6C     		ldr	r2, [r3, #64]
 2523 004c 0192     		str	r2, [sp, #4]
 2524              		.loc 1 882 0
 2525 004e DB6A     		ldr	r3, [r3, #44]
 2526 0050 0293     		str	r3, [sp, #8]
 2527              	.LVL163:
 2528              	.LBB100:
 2529              	.LBB101:
 2530              	.LBB102:
 2531              	.LBB103:
 2532              	.LBB104:
 2533              		.loc 3 546 0
 2534              	@ 546 "ChibiOS_3.0.2/os/ext/CMSIS/include/core_cmFunc.h" 1
 2535 0052 86F31188 		MSR basepri, r6
 2536              	@ 0 "" 2
 2537              		.thumb
 2538              	.LBE104:
 2539              	.LBE103:
 2540              	.LBE102:
 2541              	.LBE101:
 2542              	.LBE100:
 2543              		.loc 1 886 0
 2544 0056 8DF80C50 		strb	r5, [sp, #12]
 2545              		.loc 1 887 0
 2546 005a FFF7FEFF 		bl	mc_interface_get_tot_current
 2547              	.LVL164:
 2548              		.loc 1 889 0
 2549 005e 304F     		ldr	r7, .L317+20
 2550              		.loc 1 887 0
 2551 0060 8DED040A 		fsts	s0, [sp, #16]
 2552              		.loc 1 888 0
 2553 0064 FFF7FEFF 		bl	mc_interface_get_tot_current_filtered
 2554              	.LVL165:
 2555              		.loc 1 889 0
 2556 0068 3B8A     		ldrh	r3, [r7, #16]
 2557 006a DFED2E6A 		flds	s13, .L317+24
 2558 006e 9FED2E7A 		flds	s14, .L317+28
 2559              		.loc 1 888 0
 2560 0072 8DED050A 		fsts	s0, [sp, #20]
 2561              		.loc 1 889 0
 2562 0076 9BB2     		uxth	r3, r3
 2563 0078 07EE903A 		fmsr	s15, r3	@ int
 2564 007c F8EE677A 		fuitos	s15, s15
 2565 0080 67EEA67A 		fmuls	s15, s15, s13
ARM GAS  /var/folders/47/g7cdn6zj55s1hhv4njp6x8_h0000gn/T//cc224n80.s 			page 46


 2566 0084 67EE877A 		fmuls	s15, s15, s14
 2567 0088 CDED067A 		fsts	s15, [sp, #24]
 2568              		.loc 1 890 0
 2569 008c FFF7FEFF 		bl	mc_interface_get_duty_cycle_now
 2570              	.LVL166:
 2571 0090 8DED070A 		fsts	s0, [sp, #28]
 2572              		.loc 1 891 0
 2573 0094 FFF7FEFF 		bl	mc_interface_get_rpm
 2574              	.LVL167:
 2575              		.loc 1 892 0
 2576 0098 3046     		mov	r0, r6
 2577              		.loc 1 891 0
 2578 009a 8DED080A 		fsts	s0, [sp, #32]
 2579              		.loc 1 892 0
 2580 009e FFF7FEFF 		bl	mc_interface_get_tachometer_value
 2581              	.LVL168:
 2582              		.loc 1 893 0
 2583 00a2 224B     		ldr	r3, .L317+32
 2584              		.loc 1 892 0
 2585 00a4 0990     		str	r0, [sp, #36]
 2586              		.loc 1 893 0
 2587 00a6 1868     		ldr	r0, [r3]
 2588              		.loc 1 894 0
 2589 00a8 0099     		ldr	r1, [sp]
 2590              		.loc 1 895 0
 2591 00aa 019A     		ldr	r2, [sp, #4]
 2592              		.loc 1 896 0
 2593 00ac 029B     		ldr	r3, [sp, #8]
 2594              		.loc 1 894 0
 2595 00ae 0B91     		str	r1, [sp, #44]
 2596              		.loc 1 895 0
 2597 00b0 0C92     		str	r2, [sp, #48]
 2598              		.loc 1 896 0
 2599 00b2 0D93     		str	r3, [sp, #52]
 2600              		.loc 1 893 0
 2601 00b4 0A90     		str	r0, [sp, #40]
 2602              		.loc 1 897 0
 2603 00b6 FFF7FEFF 		bl	mcpwm_get_comm_step
 2604              	.LVL169:
 2605              		.loc 1 898 0
 2606 00ba 7B89     		ldrh	r3, [r7, #10]
 2607 00bc 9FED1C7A 		flds	s14, .L317+36
 2608 00c0 9FED1C0A 		flds	s0, .L317+40
 2609              		.loc 1 897 0
 2610 00c4 0E90     		str	r0, [sp, #56]
 2611              		.loc 1 898 0
 2612 00c6 9BB2     		uxth	r3, r3
 2613 00c8 07EE903A 		fmsr	s15, r3	@ int
 2614 00cc F8EEE77A 		fsitos	s15, s15
 2615 00d0 C7EE277A 		fdivs	s15, s14, s15
 2616 00d4 77EEC07A 		fsubs	s15, s15, s0
 2617 00d8 87EE800A 		fdivs	s0, s15, s0
 2618 00dc FFF7FEFF 		bl	logf
 2619              	.LVL170:
 2620              		.loc 1 899 0
 2621 00e0 03A8     		add	r0, sp, #12
 2622              		.loc 1 898 0
ARM GAS  /var/folders/47/g7cdn6zj55s1hhv4njp6x8_h0000gn/T//cc224n80.s 			page 47


 2623 00e2 9FED157A 		flds	s14, .L317+44
 2624 00e6 DFED156A 		flds	s13, .L317+48
 2625 00ea DFED157A 		flds	s15, .L317+52
 2626 00ee 80EE070A 		fdivs	s0, s0, s14
 2627 00f2 B7EE007A 		fconsts	s14, #112
 2628 00f6 30EE260A 		fadds	s0, s0, s13
 2629 00fa 87EE000A 		fdivs	s0, s14, s0
 2630 00fe 70EE677A 		fsubs	s15, s0, s15
 2631 0102 CDED0F7A 		fsts	s15, [sp, #60]
 2632              		.loc 1 899 0
 2633 0106 FFF7FEFF 		bl	terminal_add_fault_data
 2634              	.LVL171:
 2635 010a 82E7     		b	.L308
 2636              	.L318:
 2637              		.align	2
 2638              	.L317:
 2639 010c 00000000 		.word	.LANCHOR12
 2640 0110 00000000 		.word	.LANCHOR11
 2641 0114 00000000 		.word	.LANCHOR13
 2642 0118 00040140 		.word	1073808384
 2643 011c 00000140 		.word	1073807360
 2644 0120 00000000 		.word	.LANCHOR36
 2645 0124 6740533A 		.word	978534503
 2646 0128 74D19541 		.word	1100337524
 2647 012c 00000000 		.word	.LANCHOR14
 2648 0130 3C361C4C 		.word	1276917308
 2649 0134 00401C46 		.word	1176256512
 2650 0138 00A05645 		.word	1163304960
 2651 013c 0FCF5B3B 		.word	995872527
 2652 0140 33938843 		.word	1133024051
 2653              	.LBE95:
 2654              		.cfi_endproc
 2655              	.LFE300:
 2656              		.size	mc_interface_fault_stop, .-mc_interface_fault_stop
 2657              		.section	.text.update_override_limits.constprop.3,"ax",%progbits
 2658              		.align	2
 2659              		.p2align 4,,15
 2660              		.thumb
 2661              		.thumb_func
 2662              		.type	update_override_limits.constprop.3, %function
 2663              	update_override_limits.constprop.3:
 2664              	.LFB309:
 2665              		.loc 1 1074 0
 2666              		.cfi_startproc
 2667              		@ args = 0, pretend = 0, frame = 0
 2668              		@ frame_needed = 0, uses_anonymous_args = 0
 2669              	.LVL172:
 2670 0000 38B5     		push	{r3, r4, r5, lr}
 2671              		.cfi_def_cfa_offset 16
 2672              		.cfi_offset 3, -16
 2673              		.cfi_offset 4, -12
 2674              		.cfi_offset 5, -8
 2675              		.cfi_offset 14, -4
 2676              		.loc 1 1075 0
 2677 0002 674D     		ldr	r5, .L353
 2678 0004 9FED677A 		flds	s14, .L353+4
 2679 0008 6B89     		ldrh	r3, [r5, #10]
ARM GAS  /var/folders/47/g7cdn6zj55s1hhv4njp6x8_h0000gn/T//cc224n80.s 			page 48


 2680 000a 9FED670A 		flds	s0, .L353+8
 2681              		.loc 1 1079 0
 2682 000e 674C     		ldr	r4, .L353+12
 2683              		.loc 1 1075 0
 2684 0010 9BB2     		uxth	r3, r3
 2685 0012 07EE903A 		fmsr	s15, r3	@ int
 2686 0016 F8EEE77A 		fsitos	s15, s15
 2687              		.loc 1 1074 0
 2688 001a 2DED028B 		fstmfdd	sp!, {d8}
 2689              		.cfi_def_cfa_offset 24
 2690              		.cfi_offset 80, -24
 2691              		.cfi_offset 81, -20
 2692              		.loc 1 1075 0
 2693 001e C7EE277A 		fdivs	s15, s14, s15
 2694              		.loc 1 1076 0
 2695 0022 9FED638A 		flds	s16, .L353+16
 2696              		.loc 1 1075 0
 2697 0026 77EEC07A 		fsubs	s15, s15, s0
 2698 002a 87EE800A 		fdivs	s0, s15, s0
 2699 002e FFF7FEFF 		bl	logf
 2700              	.LVL173:
 2701              		.loc 1 1076 0
 2702 0032 2B8A     		ldrh	r3, [r5, #16]
 2703 0034 9BB2     		uxth	r3, r3
 2704              		.loc 1 1075 0
 2705 0036 9FED5F7A 		flds	s14, .L353+20
 2706 003a DFED5F7A 		flds	s15, .L353+24
 2707 003e DFED5F5A 		flds	s11, .L353+28
 2708              		.loc 1 1079 0
 2709 0042 D4ED0F6A 		flds	s13, [r4, #60]
 2710              		.loc 1 1076 0
 2711 0046 9FED5E6A 		flds	s12, .L353+32
 2712              		.loc 1 1075 0
 2713 004a 80EE070A 		fdivs	s0, s0, s14
 2714 004e B7EE007A 		fconsts	s14, #112
 2715 0052 30EE270A 		fadds	s0, s0, s15
 2716              		.loc 1 1076 0
 2717 0056 07EE903A 		fmsr	s15, r3	@ int
 2718              		.loc 1 1075 0
 2719 005a 87EE000A 		fdivs	s0, s14, s0
 2720              		.loc 1 1076 0
 2721 005e F8EE677A 		fuitos	s15, s15
 2722              		.loc 1 1075 0
 2723 0062 30EE650A 		fsubs	s0, s0, s11
 2724              	.LVL174:
 2725              		.loc 1 1076 0
 2726 0066 67EE887A 		fmuls	s15, s15, s16
 2727              		.loc 1 1079 0
 2728 006a B4EEE60A 		fcmpes	s0, s13
 2729 006e F1EE10FA 		fmstat
 2730              		.loc 1 1076 0
 2731 0072 27EE868A 		fmuls	s16, s15, s12
 2732              	.LVL175:
 2733              		.loc 1 1079 0
 2734 0076 19D5     		bpl	.L346
 2735              		.loc 1 1080 0
 2736 0078 A368     		ldr	r3, [r4, #8]	@ float
ARM GAS  /var/folders/47/g7cdn6zj55s1hhv4njp6x8_h0000gn/T//cc224n80.s 			page 49


 2737 007a A365     		str	r3, [r4, #88]	@ float
 2738              		.loc 1 1081 0
 2739 007c 6368     		ldr	r3, [r4, #4]	@ float
 2740 007e 6365     		str	r3, [r4, #84]	@ float
 2741              	.LVL176:
 2742              	.L322:
 2743              		.loc 1 1104 0
 2744 0080 D4ED0C7A 		flds	s15, [r4, #48]
 2745 0084 494D     		ldr	r5, .L353+12
 2746 0086 B4EEE78A 		fcmpes	s16, s15
 2747 008a F1EE10FA 		fmstat
 2748 008e 78DC     		bgt	.L351
 2749              		.loc 1 1106 0
 2750 0090 D5ED0D7A 		flds	s15, [r5, #52]
 2751 0094 B4EEE78A 		fcmpes	s16, s15
 2752 0098 F1EE10FA 		fmstat
 2753 009c 5ED5     		bpl	.L349
 2754              		.loc 1 1114 0
 2755 009e BDEC028B 		fldmfdd	sp!, {d8}
 2756              		.cfi_remember_state
 2757              		.cfi_restore 80
 2758              		.cfi_restore 81
 2759              		.cfi_def_cfa_offset 16
 2760              	.LVL177:
 2761              		.loc 1 1107 0
 2762 00a2 0023     		movs	r3, #0
 2763 00a4 EB65     		str	r3, [r5, #92]	@ float
 2764              		.loc 1 1113 0
 2765 00a6 2369     		ldr	r3, [r4, #16]	@ float
 2766 00a8 2366     		str	r3, [r4, #96]	@ float
 2767              		.loc 1 1114 0
 2768 00aa 38BD     		pop	{r3, r4, r5, pc}
 2769              	.LVL178:
 2770              	.L346:
 2771              		.cfi_restore_state
 2772              		.loc 1 1082 0
 2773 00ac D4ED107A 		flds	s15, [r4, #64]
 2774 00b0 B4EEE70A 		fcmpes	s0, s15
 2775 00b4 F1EE10FA 		fmstat
 2776 00b8 6ADC     		bgt	.L352
 2777              	.LBB105:
 2778              		.loc 1 1087 0
 2779 00ba D4ED011A 		flds	s3, [r4, #4]
 2780              		.loc 1 1088 0
 2781 00be D4ED027A 		flds	s15, [r4, #8]
 2782              		.loc 1 1092 0
 2783 00c2 9FED402A 		flds	s4, .L353+36
 2784 00c6 394D     		ldr	r5, .L353+12
 2785              		.loc 1 1087 0
 2786 00c8 F0EEE11A 		fabss	s3, s3
 2787              	.LVL179:
 2788              		.loc 1 1088 0
 2789 00cc F0EEE77A 		fabss	s15, s15
 2790 00d0 F4EEE71A 		fcmpes	s3, s15
 2791 00d4 F1EE10FA 		fmstat
 2792              		.loc 1 1089 0
 2793 00d8 48BF     		it	mi
ARM GAS  /var/folders/47/g7cdn6zj55s1hhv4njp6x8_h0000gn/T//cc224n80.s 			page 50


 2794 00da D4ED021A 		fldsmi	s3, [r4, #8]
 2795              	.LVL180:
 2796              		.loc 1 1092 0
 2797 00de D4ED0F0A 		flds	s1, [r4, #60]
 2798 00e2 94ED101A 		flds	s2, [r4, #64]
 2799              		.loc 1 1089 0
 2800 00e6 48BF     		it	mi
 2801 00e8 F0EEE11A 		fabssmi	s3, s3
 2802              	.LVL181:
 2803              		.loc 1 1092 0
 2804 00ec FFF7FEFF 		bl	utils_map
 2805              	.LVL182:
 2806              		.loc 1 1094 0
 2807 00f0 D4ED017A 		flds	s15, [r4, #4]
 2808 00f4 F0EEE77A 		fabss	s15, s15
 2809 00f8 B4EEE70A 		fcmpes	s0, s15
 2810 00fc F1EE10FA 		fmstat
 2811 0100 10D5     		bpl	.L327
 2812              		.loc 1 1095 0
 2813 0102 D5ED017A 		flds	s15, [r5, #4]
 2814 0106 F5EEC07A 		fcmpezs	s15
 2815 010a F1EE10FA 		fmstat
 2816 010e FFEE007A 		fconsts	s15, #240
 2817 0112 B7EE007A 		fconsts	s14, #112
 2818 0116 58BF     		it	pl
 2819 0118 F0EE477A 		fcpyspl	s15, s14
 2820 011c 60EE277A 		fmuls	s15, s0, s15
 2821 0120 C4ED157A 		fsts	s15, [r4, #84]
 2822              	.L327:
 2823              		.loc 1 1098 0
 2824 0124 D4ED027A 		flds	s15, [r4, #8]
 2825 0128 204B     		ldr	r3, .L353+12
 2826 012a F0EEE77A 		fabss	s15, s15
 2827 012e B4EEE70A 		fcmpes	s0, s15
 2828 0132 F1EE10FA 		fmstat
 2829 0136 A3D5     		bpl	.L322
 2830              		.loc 1 1099 0
 2831 0138 D3ED027A 		flds	s15, [r3, #8]
 2832 013c F5EEC07A 		fcmpezs	s15
 2833 0140 F1EE10FA 		fmstat
 2834 0144 FFEE007A 		fconsts	s15, #240
 2835 0148 B7EE007A 		fconsts	s14, #112
 2836 014c 58BF     		it	pl
 2837 014e F0EE477A 		fcpyspl	s15, s14
 2838 0152 20EE270A 		fmuls	s0, s0, s15
 2839              	.LVL183:
 2840 0156 84ED160A 		fsts	s0, [r4, #88]
 2841 015a 91E7     		b	.L322
 2842              	.L349:
 2843              	.LBE105:
 2844              		.loc 1 1109 0
 2845 015c D5ED0C0A 		flds	s1, [r5, #48]
 2846 0160 9FED182A 		flds	s4, .L353+36
 2847 0164 95ED0D1A 		flds	s2, [r5, #52]
 2848 0168 D5ED031A 		flds	s3, [r5, #12]
 2849 016c B0EE480A 		fcpys	s0, s16
 2850 0170 FFF7FEFF 		bl	utils_map
ARM GAS  /var/folders/47/g7cdn6zj55s1hhv4njp6x8_h0000gn/T//cc224n80.s 			page 51


 2851              	.LVL184:
 2852              		.loc 1 1114 0
 2853 0174 BDEC028B 		fldmfdd	sp!, {d8}
 2854              		.cfi_remember_state
 2855              		.cfi_restore 80
 2856              		.cfi_restore 81
 2857              		.cfi_def_cfa_offset 16
 2858              	.LVL185:
 2859              		.loc 1 1109 0
 2860 0178 85ED170A 		fsts	s0, [r5, #92]
 2861              		.loc 1 1113 0
 2862 017c 2369     		ldr	r3, [r4, #16]	@ float
 2863 017e 2366     		str	r3, [r4, #96]	@ float
 2864              		.loc 1 1114 0
 2865 0180 38BD     		pop	{r3, r4, r5, pc}
 2866              	.LVL186:
 2867              	.L351:
 2868              		.cfi_restore_state
 2869 0182 BDEC028B 		fldmfdd	sp!, {d8}
 2870              		.cfi_remember_state
 2871              		.cfi_restore 80
 2872              		.cfi_restore 81
 2873              		.cfi_def_cfa_offset 16
 2874              	.LVL187:
 2875              		.loc 1 1105 0
 2876 0186 EB68     		ldr	r3, [r5, #12]	@ float
 2877 0188 EB65     		str	r3, [r5, #92]	@ float
 2878              		.loc 1 1113 0
 2879 018a 2369     		ldr	r3, [r4, #16]	@ float
 2880 018c 2366     		str	r3, [r4, #96]	@ float
 2881              		.loc 1 1114 0
 2882 018e 38BD     		pop	{r3, r4, r5, pc}
 2883              	.LVL188:
 2884              	.L352:
 2885              		.cfi_restore_state
 2886              		.loc 1 1083 0
 2887 0190 0023     		movs	r3, #0
 2888              		.loc 1 1085 0
 2889 0192 0520     		movs	r0, #5
 2890              		.loc 1 1083 0
 2891 0194 A365     		str	r3, [r4, #88]	@ float
 2892              		.loc 1 1084 0
 2893 0196 6365     		str	r3, [r4, #84]	@ float
 2894              		.loc 1 1085 0
 2895 0198 FFF7FEFF 		bl	mc_interface_fault_stop
 2896              	.LVL189:
 2897 019c 70E7     		b	.L322
 2898              	.L354:
 2899 019e 00BF     		.align	2
 2900              	.L353:
 2901 01a0 00000000 		.word	.LANCHOR36
 2902 01a4 3C361C4C 		.word	1276917308
 2903 01a8 00401C46 		.word	1176256512
 2904 01ac 00000000 		.word	.LANCHOR11
 2905 01b0 6740533A 		.word	978534503
 2906 01b4 00A05645 		.word	1163304960
 2907 01b8 0FCF5B3B 		.word	995872527
ARM GAS  /var/folders/47/g7cdn6zj55s1hhv4njp6x8_h0000gn/T//cc224n80.s 			page 52


 2908 01bc 33938843 		.word	1133024051
 2909 01c0 74D19541 		.word	1100337524
 2910 01c4 00000000 		.word	0
 2911              		.cfi_endproc
 2912              	.LFE309:
 2913              		.size	update_override_limits.constprop.3, .-update_override_limits.constprop.3
 2914              		.section	.text.mc_interface_set_configuration,"ax",%progbits
 2915              		.align	2
 2916              		.p2align 4,,15
 2917              		.global	mc_interface_set_configuration
 2918              		.thumb
 2919              		.thumb_func
 2920              		.type	mc_interface_set_configuration, %function
 2921              	mc_interface_set_configuration:
 2922              	.LFB258:
 2923              		.loc 1 157 0
 2924              		.cfi_startproc
 2925              		@ args = 0, pretend = 0, frame = 0
 2926              		@ frame_needed = 0, uses_anonymous_args = 0
 2927              	.LVL190:
 2928 0000 70B5     		push	{r4, r5, r6, lr}
 2929              		.cfi_def_cfa_offset 16
 2930              		.cfi_offset 4, -16
 2931              		.cfi_offset 5, -12
 2932              		.cfi_offset 6, -8
 2933              		.cfi_offset 14, -4
 2934              		.loc 1 159 0
 2935 0002 324D     		ldr	r5, .L376
 2936 0004 90F83031 		ldrb	r3, [r0, #304]	@ zero_extendqisi2
 2937 0008 95F83021 		ldrb	r2, [r5, #304]	@ zero_extendqisi2
 2938 000c 9A42     		cmp	r2, r3
 2939              		.loc 1 157 0
 2940 000e 0446     		mov	r4, r0
 2941              		.loc 1 159 0
 2942 0010 07D0     		beq	.L356
 2943              		.loc 1 160 0
 2944 0012 FFF7FEFF 		bl	encoder_deinit
 2945              	.LVL191:
 2946              		.loc 1 161 0
 2947 0016 94F83031 		ldrb	r3, [r4, #304]	@ zero_extendqisi2
 2948 001a 012B     		cmp	r3, #1
 2949 001c 40D0     		beq	.L357
 2950 001e 022B     		cmp	r3, #2
 2951 0020 33D0     		beq	.L358
 2952              	.L356:
 2953              		.loc 1 175 0
 2954 0022 012B     		cmp	r3, #1
 2955 0024 37D0     		beq	.L373
 2956              	.L359:
 2957              		.loc 1 180 0
 2958 0026 AB78     		ldrb	r3, [r5, #2]	@ zero_extendqisi2
 2959 0028 284E     		ldr	r6, .L376
 2960 002a 022B     		cmp	r3, #2
 2961 002c 1ED0     		beq	.L374
 2962              		.loc 1 185 0
 2963 002e B378     		ldrb	r3, [r6, #2]	@ zero_extendqisi2
 2964 0030 022B     		cmp	r3, #2
ARM GAS  /var/folders/47/g7cdn6zj55s1hhv4njp6x8_h0000gn/T//cc224n80.s 			page 53


 2965 0032 02D0     		beq	.L363
 2966              		.loc 1 186 0
 2967 0034 A378     		ldrb	r3, [r4, #2]	@ zero_extendqisi2
 2968 0036 022B     		cmp	r3, #2
 2969 0038 3CD0     		beq	.L367
 2970              	.L363:
 2971              		.loc 1 191 0
 2972 003a 2146     		mov	r1, r4
 2973 003c 2348     		ldr	r0, .L376
 2974 003e 4FF49A72 		mov	r2, #308
 2975 0042 FFF7FEFF 		bl	memcpy
 2976              	.LVL192:
 2977              	.L362:
 2978              		.loc 1 194 0
 2979 0046 FFF7FEFF 		bl	update_override_limits.constprop.3
 2980              	.LVL193:
 2981              		.loc 1 196 0
 2982 004a AB78     		ldrb	r3, [r5, #2]	@ zero_extendqisi2
 2983 004c DBB2     		uxtb	r3, r3
 2984 004e 012B     		cmp	r3, #1
 2985 0050 07D9     		bls	.L365
 2986 0052 022B     		cmp	r3, #2
 2987 0054 04D1     		bne	.L375
 2988              		.loc 1 203 0
 2989 0056 1D48     		ldr	r0, .L376
 2990              		.loc 1 209 0
 2991 0058 BDE87040 		pop	{r4, r5, r6, lr}
 2992              		.cfi_remember_state
 2993              		.cfi_restore 14
 2994              		.cfi_restore 6
 2995              		.cfi_restore 5
 2996              		.cfi_restore 4
 2997              		.cfi_def_cfa_offset 0
 2998              	.LVL194:
 2999              		.loc 1 203 0
 3000 005c FFF7FEBF 		b	mcpwm_foc_set_configuration
 3001              	.LVL195:
 3002              	.L375:
 3003              		.cfi_restore_state
 3004 0060 70BD     		pop	{r4, r5, r6, pc}
 3005              	.LVL196:
 3006              	.L365:
 3007              		.loc 1 199 0
 3008 0062 1A48     		ldr	r0, .L376
 3009              		.loc 1 209 0
 3010 0064 BDE87040 		pop	{r4, r5, r6, lr}
 3011              		.cfi_remember_state
 3012              		.cfi_restore 14
 3013              		.cfi_restore 6
 3014              		.cfi_restore 5
 3015              		.cfi_restore 4
 3016              		.cfi_def_cfa_offset 0
 3017              	.LVL197:
 3018              		.loc 1 199 0
 3019 0068 FFF7FEBF 		b	mcpwm_set_configuration
 3020              	.LVL198:
 3021              	.L374:
ARM GAS  /var/folders/47/g7cdn6zj55s1hhv4njp6x8_h0000gn/T//cc224n80.s 			page 54


 3022              		.cfi_restore_state
 3023              		.loc 1 181 0
 3024 006c A378     		ldrb	r3, [r4, #2]	@ zero_extendqisi2
 3025 006e 022B     		cmp	r3, #2
 3026 0070 1DD0     		beq	.L361
 3027              		.loc 1 182 0
 3028 0072 FFF7FEFF 		bl	mcpwm_foc_deinit
 3029              	.LVL199:
 3030              		.loc 1 183 0
 3031 0076 3046     		mov	r0, r6
 3032 0078 2146     		mov	r1, r4
 3033 007a 4FF49A72 		mov	r2, #308
 3034 007e FFF7FEFF 		bl	memcpy
 3035              	.LVL200:
 3036              		.loc 1 184 0
 3037 0082 3046     		mov	r0, r6
 3038 0084 FFF7FEFF 		bl	mcpwm_init
 3039              	.LVL201:
 3040 0088 DDE7     		b	.L362
 3041              	.L358:
 3042              		.loc 1 167 0
 3043 008a FFF7FEFF 		bl	encoder_init_as5047p_spi
 3044              	.LVL202:
 3045 008e 94F83031 		ldrb	r3, [r4, #304]	@ zero_extendqisi2
 3046              		.loc 1 175 0
 3047 0092 012B     		cmp	r3, #1
 3048 0094 C7D1     		bne	.L359
 3049              	.L373:
 3050              		.loc 1 176 0
 3051 0096 D4F82C01 		ldr	r0, [r4, #300]
 3052 009a FFF7FEFF 		bl	encoder_set_counts
 3053              	.LVL203:
 3054 009e C2E7     		b	.L359
 3055              	.L357:
 3056              		.loc 1 163 0
 3057 00a0 D4F82C01 		ldr	r0, [r4, #300]
 3058 00a4 FFF7FEFF 		bl	encoder_init_abi
 3059              	.LVL204:
 3060 00a8 94F83031 		ldrb	r3, [r4, #304]	@ zero_extendqisi2
 3061              		.loc 1 164 0
 3062 00ac B9E7     		b	.L356
 3063              	.L361:
 3064              		.loc 1 185 0
 3065 00ae B378     		ldrb	r3, [r6, #2]	@ zero_extendqisi2
 3066 00b0 022B     		cmp	r3, #2
 3067 00b2 C2D0     		beq	.L363
 3068              	.L367:
 3069              		.loc 1 187 0
 3070 00b4 FFF7FEFF 		bl	mcpwm_deinit
 3071              	.LVL205:
 3072              		.loc 1 188 0
 3073 00b8 2146     		mov	r1, r4
 3074 00ba 4FF49A72 		mov	r2, #308
 3075 00be 0348     		ldr	r0, .L376
 3076 00c0 FFF7FEFF 		bl	memcpy
 3077              	.LVL206:
 3078              		.loc 1 189 0
ARM GAS  /var/folders/47/g7cdn6zj55s1hhv4njp6x8_h0000gn/T//cc224n80.s 			page 55


 3079 00c4 0148     		ldr	r0, .L376
 3080 00c6 FFF7FEFF 		bl	mcpwm_foc_init
 3081              	.LVL207:
 3082 00ca BCE7     		b	.L362
 3083              	.L377:
 3084              		.align	2
 3085              	.L376:
 3086 00cc 00000000 		.word	.LANCHOR11
 3087              		.cfi_endproc
 3088              	.LFE258:
 3089              		.size	mc_interface_set_configuration, .-mc_interface_set_configuration
 3090              		.section	.text.timer_thread,"ax",%progbits
 3091              		.align	2
 3092              		.p2align 4,,15
 3093              		.thumb
 3094              		.thumb_func
 3095              		.type	timer_thread, %function
 3096              	timer_thread:
 3097              	.LFB304:
 3098              		.loc 1 1116 0
 3099              		.cfi_startproc
 3100              		@ Volatile: function does not return.
 3101              		@ args = 0, pretend = 0, frame = 0
 3102              		@ frame_needed = 0, uses_anonymous_args = 0
 3103              	.LVL208:
 3104              	.LBB106:
 3105              	.LBB107:
 3106              		.loc 2 135 0
 3107 0000 124B     		ldr	r3, .L388
 3108 0002 134D     		ldr	r5, .L388+4
 3109 0004 9B69     		ldr	r3, [r3, #24]
 3110 0006 134A     		ldr	r2, .L388+8
 3111              	.LBE107:
 3112              	.LBE106:
 3113              		.loc 1 1123 0
 3114 0008 134C     		ldr	r4, .L388+12
 3115              		.loc 1 1116 0
 3116 000a 80B5     		push	{r7, lr}
 3117              		.cfi_def_cfa_offset 8
 3118              		.cfi_offset 7, -8
 3119              		.cfi_offset 14, -4
 3120              		.loc 1 1128 0
 3121 000c 2E46     		mov	r6, r5
 3122 000e 134F     		ldr	r7, .L388+16
 3123              	.LBB109:
 3124              	.LBB108:
 3125              		.loc 2 135 0
 3126 0010 9A61     		str	r2, [r3, #24]
 3127 0012 0AE0     		b	.L382
 3128              	.LVL209:
 3129              	.L379:
 3130              	.LBE108:
 3131              	.LBE109:
 3132              		.loc 1 1128 0
 3133 0014 2B68     		ldr	r3, [r5]
 3134 0016 002B     		cmp	r3, #0
 3135              		.loc 1 1129 0
ARM GAS  /var/folders/47/g7cdn6zj55s1hhv4njp6x8_h0000gn/T//cc224n80.s 			page 56


 3136 0018 03F1FF33 		add	r3, r3, #-1
 3137              		.loc 1 1128 0
 3138 001c 10DD     		ble	.L380
 3139              	.L387:
 3140              		.loc 1 1129 0
 3141 001e 3360     		str	r3, [r6]
 3142              	.L381:
 3143              		.loc 1 1136 0
 3144 0020 FFF7FEFF 		bl	update_override_limits.constprop.3
 3145              	.LVL210:
 3146              		.loc 1 1138 0
 3147 0024 0A20     		movs	r0, #10
 3148 0026 FFF7FEFF 		bl	chThdSleep
 3149              	.LVL211:
 3150              	.L382:
 3151              		.loc 1 1123 0
 3152 002a 2369     		ldr	r3, [r4, #16]
 3153 002c DA04     		lsls	r2, r3, #19
 3154 002e F1D4     		bmi	.L379
 3155              		.loc 1 1124 0
 3156 0030 0320     		movs	r0, #3
 3157 0032 FFF7FEFF 		bl	mc_interface_fault_stop
 3158              	.LVL212:
 3159              		.loc 1 1128 0
 3160 0036 2B68     		ldr	r3, [r5]
 3161 0038 002B     		cmp	r3, #0
 3162              		.loc 1 1129 0
 3163 003a 03F1FF33 		add	r3, r3, #-1
 3164              		.loc 1 1128 0
 3165 003e EEDC     		bgt	.L387
 3166              	.L380:
 3167              		.loc 1 1131 0
 3168 0040 2369     		ldr	r3, [r4, #16]
 3169 0042 DB04     		lsls	r3, r3, #19
 3170              		.loc 1 1132 0
 3171 0044 44BF     		itt	mi
 3172 0046 0023     		movmi	r3, #0
 3173 0048 3B70     		strbmi	r3, [r7]
 3174 004a E9E7     		b	.L381
 3175              	.L389:
 3176              		.align	2
 3177              	.L388:
 3178 004c 00000000 		.word	ch
 3179 0050 00000000 		.word	.LANCHOR13
 3180 0054 20000000 		.word	.LC2
 3181 0058 00080240 		.word	1073874944
 3182 005c 00000000 		.word	.LANCHOR12
 3183              		.cfi_endproc
 3184              	.LFE304:
 3185              		.size	timer_thread, .-timer_thread
 3186              		.section	.text.mc_interface_mc_timer_isr,"ax",%progbits
 3187              		.align	2
 3188              		.p2align 4,,15
 3189              		.global	mc_interface_mc_timer_isr
 3190              		.thumb
 3191              		.thumb_func
 3192              		.type	mc_interface_mc_timer_isr, %function
ARM GAS  /var/folders/47/g7cdn6zj55s1hhv4njp6x8_h0000gn/T//cc224n80.s 			page 57


 3193              	mc_interface_mc_timer_isr:
 3194              	.LFB301:
 3195              		.loc 1 921 0
 3196              		.cfi_startproc
 3197              		@ args = 0, pretend = 0, frame = 8
 3198              		@ frame_needed = 0, uses_anonymous_args = 0
 3199 0000 2DE9F043 		push	{r4, r5, r6, r7, r8, r9, lr}
 3200              		.cfi_def_cfa_offset 28
 3201              		.cfi_offset 4, -28
 3202              		.cfi_offset 5, -24
 3203              		.cfi_offset 6, -20
 3204              		.cfi_offset 7, -16
 3205              		.cfi_offset 8, -12
 3206              		.cfi_offset 9, -8
 3207              		.cfi_offset 14, -4
 3208 0004 2DED048B 		fstmfdd	sp!, {d8, d9}
 3209              		.cfi_def_cfa_offset 44
 3210              		.cfi_offset 80, -44
 3211              		.cfi_offset 81, -40
 3212              		.cfi_offset 82, -36
 3213              		.cfi_offset 83, -32
 3214              		.loc 1 924 0
 3215 0008 C04D     		ldr	r5, .L441
 3216 000a 9FEDC18A 		flds	s16, .L441+4
 3217              		.loc 1 928 0
 3218 000e C14C     		ldr	r4, .L441+8
 3219              		.loc 1 921 0
 3220 0010 83B0     		sub	sp, sp, #12
 3221              		.cfi_def_cfa_offset 56
 3222              		.loc 1 922 0
 3223 0012 FFF7FEFF 		bl	ledpwm_update_pwm
 3224              	.LVL213:
 3225              		.loc 1 924 0
 3226 0016 2B8A     		ldrh	r3, [r5, #16]
 3227 0018 DFEDBF6A 		flds	s13, .L441+12
 3228              		.loc 1 928 0
 3229 001c 94ED0A7A 		flds	s14, [r4, #40]
 3230              		.loc 1 924 0
 3231 0020 9BB2     		uxth	r3, r3
 3232 0022 07EE903A 		fmsr	s15, r3	@ int
 3233 0026 F8EE677A 		fuitos	s15, s15
 3234 002a 67EE887A 		fmuls	s15, s15, s16
 3235 002e 27EEA68A 		fmuls	s16, s15, s13
 3236              	.LVL214:
 3237              		.loc 1 928 0
 3238 0032 B4EEC78A 		fcmpes	s16, s14
 3239 0036 F1EE10FA 		fmstat
 3240 003a 07D4     		bmi	.L391
 3241              		.loc 1 929 0 discriminator 1
 3242 003c D4ED0B7A 		flds	s15, [r4, #44]
 3243              		.loc 1 928 0 discriminator 1
 3244 0040 B4EEE78A 		fcmpes	s16, s15
 3245 0044 F1EE10FA 		fmstat
 3246 0048 40F3D780 		ble	.L429
 3247              	.L391:
 3248              		.loc 1 930 0
 3249 004c B34A     		ldr	r2, .L441+16
ARM GAS  /var/folders/47/g7cdn6zj55s1hhv4njp6x8_h0000gn/T//cc224n80.s 			page 58


 3250 004e 1368     		ldr	r3, [r2]
 3251 0050 0133     		adds	r3, r3, #1
 3252              		.loc 1 932 0
 3253 0052 072B     		cmp	r3, #7
 3254              		.loc 1 930 0
 3255 0054 1360     		str	r3, [r2]
 3256              		.loc 1 932 0
 3257 0056 00F38F80 		bgt	.L433
 3258              	.L394:
 3259              		.loc 1 940 0
 3260 005a FFF7FEFF 		bl	mc_interface_get_state
 3261              	.LVL215:
 3262 005e 0228     		cmp	r0, #2
 3263 0060 00F09A80 		beq	.L434
 3264              	.L396:
 3265              		.loc 1 943 0
 3266 0064 AE4B     		ldr	r3, .L441+20
 3267 0066 0022     		movs	r2, #0
 3268 0068 1A60     		str	r2, [r3]
 3269              	.L397:
 3270              		.loc 1 946 0
 3271 006a AE4B     		ldr	r3, .L441+24
 3272 006c 1B68     		ldr	r3, [r3]
 3273 006e 03B1     		cbz	r3, .L398
 3274              		.loc 1 947 0
 3275 0070 9847     		blx	r3
 3276              	.LVL216:
 3277              	.L398:
 3278              		.loc 1 950 0
 3279 0072 FFF7FEFF 		bl	mc_interface_get_tot_current_filtered
 3280              	.LVL217:
 3281 0076 B0EE409A 		fcpys	s18, s0
 3282              	.LVL218:
 3283              		.loc 1 951 0
 3284 007a FFF7FEFF 		bl	mc_interface_get_tot_current_in_filtered
 3285              	.LVL219:
 3286              		.loc 1 952 0
 3287 007e AA48     		ldr	r0, .L441+28
 3288              		.loc 1 953 0
 3289 0080 AA49     		ldr	r1, .L441+32
 3290              		.loc 1 952 0
 3291 0082 90ED007A 		flds	s14, [r0]
 3292              		.loc 1 954 0
 3293 0086 AA4A     		ldr	r2, .L441+36
 3294              		.loc 1 955 0
 3295 0088 AA4B     		ldr	r3, .L441+40
 3296              		.loc 1 952 0
 3297 008a 37EE097A 		fadds	s14, s14, s18
 3298              		.loc 1 954 0
 3299 008e F7EE006A 		fconsts	s13, #112
 3300              		.loc 1 952 0
 3301 0092 80ED007A 		fsts	s14, [r0]
 3302              		.loc 1 953 0
 3303 0096 91ED007A 		flds	s14, [r1]
 3304 009a 37EE007A 		fadds	s14, s14, s0
 3305              		.loc 1 951 0
 3306 009e F0EE408A 		fcpys	s17, s0
ARM GAS  /var/folders/47/g7cdn6zj55s1hhv4njp6x8_h0000gn/T//cc224n80.s 			page 59


 3307              	.LVL220:
 3308              		.loc 1 953 0
 3309 00a2 81ED007A 		fsts	s14, [r1]
 3310              		.loc 1 954 0
 3311 00a6 92ED007A 		flds	s14, [r2]
 3312 00aa 37EE267A 		fadds	s14, s14, s13
 3313 00ae 82ED007A 		fsts	s14, [r2]
 3314              		.loc 1 955 0
 3315 00b2 D3ED007A 		flds	s15, [r3]
 3316 00b6 77EEA67A 		fadds	s15, s15, s13
 3317 00ba C3ED007A 		fsts	s15, [r3]
 3318              		.loc 1 957 0
 3319 00be FFF7FEFF 		bl	mc_interface_get_tot_current
 3320              	.LVL221:
 3321              		.loc 1 959 0
 3322 00c2 A378     		ldrb	r3, [r4, #2]	@ zero_extendqisi2
 3323 00c4 022B     		cmp	r3, #2
 3324              		.loc 1 957 0
 3325 00c6 F0EE409A 		fcpys	s19, s0
 3326              	.LVL222:
 3327              		.loc 1 959 0
 3328 00ca 00F01781 		beq	.L435
 3329              		.loc 1 958 0
 3330 00ce B0EE490A 		fcpys	s0, s18
 3331              	.LVL223:
 3332              	.L399:
 3333              		.loc 1 966 0
 3334 00d2 94F83820 		ldrb	r2, [r4, #56]	@ zero_extendqisi2
 3335 00d6 8F4B     		ldr	r3, .L441+8
 3336              		.loc 1 967 0
 3337 00d8 D3ED057A 		flds	s15, [r3, #20]
 3338              		.loc 1 966 0
 3339 00dc 002A     		cmp	r2, #0
 3340 00de 40D0     		beq	.L400
 3341              		.loc 1 967 0
 3342 00e0 B0EEC00A 		fabss	s0, s0
 3343              	.LVL224:
 3344 00e4 B4EEE70A 		fcmpes	s0, s15
 3345 00e8 F1EE10FA 		fmstat
 3346 00ec 40DC     		bgt	.L403
 3347              	.LVL225:
 3348              	.L401:
 3349              		.loc 1 977 0
 3350 00ee FFF7FEFF 		bl	mc_interface_get_sampling_frequency_now
 3351              	.LVL226:
 3352              		.loc 1 978 0
 3353 00f2 B0EEC99A 		fabss	s18, s18
 3354              	.LVL227:
 3355 00f6 F7EE007A 		fconsts	s15, #112
 3356 00fa B4EEE79A 		fcmpes	s18, s15
 3357 00fe F1EE10FA 		fmstat
 3358              		.loc 1 977 0
 3359 0102 F0EE409A 		fcpys	s19, s0
 3360              	.LVL228:
 3361              		.loc 1 978 0
 3362 0106 18DD     		ble	.L405
 3363              	.LBB110:
ARM GAS  /var/folders/47/g7cdn6zj55s1hhv4njp6x8_h0000gn/T//cc224n80.s 			page 60


 3364              		.loc 1 984 0
 3365 0108 C7EE807A 		fdivs	s15, s15, s0
 3366 010c 8A4A     		ldr	r2, .L441+44
 3367              		.loc 1 983 0
 3368 010e 8B4B     		ldr	r3, .L441+48
 3369 0110 C8EE808A 		fdivs	s17, s17, s0
 3370              	.LVL229:
 3371              		.loc 1 984 0
 3372 0114 D2ED006A 		flds	s13, [r2]
 3373              		.loc 1 983 0
 3374 0118 93ED006A 		flds	s12, [r3]
 3375              		.loc 1 986 0
 3376 011c 9FED887A 		flds	s14, .L441+52
 3377              		.loc 1 984 0
 3378 0120 77EEA67A 		fadds	s15, s15, s13
 3379              		.loc 1 983 0
 3380 0124 78EE868A 		fadds	s17, s17, s12
 3381              		.loc 1 986 0
 3382 0128 F4EEC77A 		fcmpes	s15, s14
 3383 012c F1EE10FA 		fmstat
 3384              		.loc 1 983 0
 3385 0130 C3ED008A 		fsts	s17, [r3]
 3386              		.loc 1 984 0
 3387 0134 C2ED007A 		fsts	s15, [r2]
 3388              		.loc 1 986 0
 3389 0138 33DA     		bge	.L436
 3390              	.L405:
 3391              	.LBE110:
 3392              		.loc 1 1001 0
 3393 013a 824C     		ldr	r4, .L441+56
 3394 013c 2368     		ldr	r3, [r4]
 3395 013e 002B     		cmp	r3, #0
 3396 0140 4AD1     		bne	.L437
 3397              	.LVL230:
 3398              	.L432:
 3399 0142 814E     		ldr	r6, .L441+60
 3400              	.L412:
 3401              		.loc 1 1009 0
 3402 0144 3268     		ldr	r2, [r6]
 3403 0146 3AB9     		cbnz	r2, .L390
 3404              		.loc 1 1010 0
 3405 0148 8049     		ldr	r1, .L441+64
 3406              		.loc 1 1011 0
 3407 014a 8148     		ldr	r0, .L441+68
 3408              		.loc 1 1010 0
 3409 014c 0B68     		ldr	r3, [r1]
 3410              		.loc 1 1011 0
 3411 014e 0068     		ldr	r0, [r0]
 3412              		.loc 1 1010 0
 3413 0150 0133     		adds	r3, r3, #1
 3414              		.loc 1 1011 0
 3415 0152 8342     		cmp	r3, r0
 3416              		.loc 1 1010 0
 3417 0154 0B60     		str	r3, [r1]
 3418              		.loc 1 1011 0
 3419 0156 54DA     		bge	.L438
 3420              	.L390:
ARM GAS  /var/folders/47/g7cdn6zj55s1hhv4njp6x8_h0000gn/T//cc224n80.s 			page 61


 3421              		.loc 1 1050 0
 3422 0158 03B0     		add	sp, sp, #12
 3423              		.cfi_remember_state
 3424              		.cfi_def_cfa_offset 44
 3425              		@ sp needed
 3426 015a BDEC048B 		fldmfdd	sp!, {d8-d9}
 3427              		.cfi_restore 82
 3428              		.cfi_restore 83
 3429              		.cfi_restore 80
 3430              		.cfi_restore 81
 3431              		.cfi_def_cfa_offset 28
 3432              	.LVL231:
 3433 015e BDE8F083 		pop	{r4, r5, r6, r7, r8, r9, pc}
 3434              	.LVL232:
 3435              	.L400:
 3436              		.cfi_restore_state
 3437              		.loc 1 971 0
 3438 0162 F0EEE99A 		fabss	s19, s19
 3439              	.LVL233:
 3440 0166 F4EEE79A 		fcmpes	s19, s15
 3441 016a F1EE10FA 		fmstat
 3442 016e BEDD     		ble	.L401
 3443              	.LVL234:
 3444              	.L403:
 3445              		.loc 1 968 0
 3446 0170 0420     		movs	r0, #4
 3447 0172 FFF7FEFF 		bl	mc_interface_fault_stop
 3448              	.LVL235:
 3449 0176 BAE7     		b	.L401
 3450              	.LVL236:
 3451              	.L433:
 3452              		.loc 1 933 0
 3453 0178 D4ED0A7A 		flds	s15, [r4, #40]
 3454 017c B4EEE78A 		fcmpes	s16, s15
 3455 0180 F1EE10FA 		fmstat
 3456 0184 4CBF     		ite	mi
 3457 0186 0220     		movmi	r0, #2
 3458 0188 0120     		movpl	r0, #1
 3459 018a FFF7FEFF 		bl	mc_interface_fault_stop
 3460              	.LVL237:
 3461              		.loc 1 940 0
 3462 018e FFF7FEFF 		bl	mc_interface_get_state
 3463              	.LVL238:
 3464 0192 0228     		cmp	r0, #2
 3465 0194 7FF466AF 		bne	.L396
 3466              	.L434:
 3467              		.loc 1 941 0
 3468 0198 614A     		ldr	r2, .L441+20
 3469 019a 1368     		ldr	r3, [r2]
 3470 019c 0133     		adds	r3, r3, #1
 3471 019e 1360     		str	r3, [r2]
 3472 01a0 63E7     		b	.L397
 3473              	.LVL239:
 3474              	.L436:
 3475              	.LBB111:
 3476              		.loc 1 987 0
 3477 01a2 F5EEC08A 		fcmpezs	s17
ARM GAS  /var/folders/47/g7cdn6zj55s1hhv4njp6x8_h0000gn/T//cc224n80.s 			page 62


 3478 01a6 F1EE10FA 		fmstat
 3479 01aa 40F3F780 		ble	.L430
 3480              		.loc 1 988 0
 3481 01ae 6948     		ldr	r0, .L441+72
 3482              		.loc 1 989 0
 3483 01b0 6949     		ldr	r1, .L441+76
 3484              		.loc 1 988 0
 3485 01b2 D0ED007A 		flds	s15, [r0]
 3486 01b6 78EEA77A 		fadds	s15, s17, s15
 3487 01ba C0ED007A 		fsts	s15, [r0]
 3488              		.loc 1 989 0
 3489 01be D1ED007A 		flds	s15, [r1]
 3490 01c2 E8EE287A 		vfma.f32	s15, s16, s17
 3491 01c6 C1ED007A 		fsts	s15, [r1]
 3492              	.L410:
 3493              	.LBE111:
 3494              		.loc 1 1001 0
 3495 01ca 5E4C     		ldr	r4, .L441+56
 3496              	.LBB112:
 3497              		.loc 1 995 0
 3498 01cc 0021     		movs	r1, #0
 3499              		.loc 1 996 0
 3500 01ce 1960     		str	r1, [r3]	@ float
 3501              	.LBE112:
 3502              		.loc 1 1001 0
 3503 01d0 2368     		ldr	r3, [r4]
 3504              	.LBB113:
 3505              		.loc 1 995 0
 3506 01d2 1160     		str	r1, [r2]	@ float
 3507              	.LBE113:
 3508              		.loc 1 1001 0
 3509 01d4 002B     		cmp	r3, #0
 3510 01d6 B4D0     		beq	.L432
 3511              	.L437:
 3512              		.loc 1 1001 0 is_stmt 0 discriminator 1
 3513 01d8 FFF7FEFF 		bl	mc_interface_get_state
 3514              	.LVL240:
 3515 01dc 0228     		cmp	r0, #2
 3516 01de 05D0     		beq	.L414
 3517              		.loc 1 1002 0 is_stmt 1 discriminator 2
 3518 01e0 FFF7FEFF 		bl	mcpwm_get_comm_step
 3519              	.LVL241:
 3520 01e4 5D4B     		ldr	r3, .L441+80
 3521 01e6 1B68     		ldr	r3, [r3]
 3522              		.loc 1 1001 0 discriminator 2
 3523 01e8 9842     		cmp	r0, r3
 3524 01ea AAD0     		beq	.L432
 3525              	.L414:
 3526              		.loc 1 1003 0
 3527 01ec 5C4A     		ldr	r2, .L441+84
 3528              		.loc 1 1004 0
 3529 01ee 564E     		ldr	r6, .L441+60
 3530              		.loc 1 1003 0
 3531 01f0 0023     		movs	r3, #0
 3532 01f2 1360     		str	r3, [r2]
 3533              		.loc 1 1004 0
 3534 01f4 3360     		str	r3, [r6]
ARM GAS  /var/folders/47/g7cdn6zj55s1hhv4njp6x8_h0000gn/T//cc224n80.s 			page 63


 3535              		.loc 1 1005 0
 3536 01f6 2360     		str	r3, [r4]
 3537 01f8 A4E7     		b	.L412
 3538              	.LVL242:
 3539              	.L429:
 3540              		.loc 1 937 0
 3541 01fa 484B     		ldr	r3, .L441+16
 3542 01fc 0022     		movs	r2, #0
 3543 01fe 1A60     		str	r2, [r3]
 3544 0200 2BE7     		b	.L394
 3545              	.LVL243:
 3546              	.L438:
 3547              		.loc 1 1012 0
 3548 0202 0A60     		str	r2, [r1]
 3549              		.loc 1 1014 0
 3550 0204 FFF7FEFF 		bl	mc_interface_get_state
 3551              	.LVL244:
 3552 0208 0128     		cmp	r0, #1
 3553              		.loc 1 1015 0
 3554 020a 554C     		ldr	r4, .L441+84
 3555              		.loc 1 1014 0
 3556 020c 00F0E380 		beq	.L439
 3557              		.loc 1 1022 0
 3558 0210 DFF87CE1 		ldr	lr, .L441+132
 3559 0214 D4F80090 		ldr	r9, [r4]
 3560 0218 DEF80030 		ldr	r3, [lr]
 3561 021c DFF87481 		ldr	r8, .L441+136
 3562              		.loc 1 1023 0
 3563 0220 DFF874C1 		ldr	ip, .L441+140
 3564              		.loc 1 1025 0
 3565 0224 4F4A     		ldr	r2, .L441+88
 3566 0226 504F     		ldr	r7, .L441+92
 3567              		.loc 1 1026 0
 3568 0228 5048     		ldr	r0, .L441+96
 3569              		.loc 1 1027 0
 3570 022a 5149     		ldr	r1, .L441+100
 3571              		.loc 1 1022 0
 3572 022c 9BB2     		uxth	r3, r3
 3573 022e 28F81930 		strh	r3, [r8, r9, lsl #1]	@ movhi
 3574              		.loc 1 1023 0
 3575 0232 D4F80080 		ldr	r8, [r4]
 3576 0236 DEF80430 		ldr	r3, [lr, #4]
 3577 023a 9BB2     		uxth	r3, r3
 3578 023c 2CF81830 		strh	r3, [ip, r8, lsl #1]	@ movhi
 3579              		.loc 1 1025 0
 3580 0240 D4F800E0 		ldr	lr, [r4]
 3581 0244 AB88     		ldrh	r3, [r5, #4]
 3582 0246 D2F800C0 		ldr	ip, [r2]
 3583 024a CCEB0303 		rsb	r3, ip, r3
 3584 024e 9BB2     		uxth	r3, r3
 3585 0250 27F81E30 		strh	r3, [r7, lr, lsl #1]	@ movhi
 3586              		.loc 1 1026 0
 3587 0254 2768     		ldr	r7, [r4]
 3588 0256 6B88     		ldrh	r3, [r5, #2]
 3589 0258 D2F800E0 		ldr	lr, [r2]
 3590 025c CEEB0303 		rsb	r3, lr, r3
 3591 0260 9BB2     		uxth	r3, r3
ARM GAS  /var/folders/47/g7cdn6zj55s1hhv4njp6x8_h0000gn/T//cc224n80.s 			page 64


 3592 0262 20F81730 		strh	r3, [r0, r7, lsl #1]	@ movhi
 3593              		.loc 1 1027 0
 3594 0266 2068     		ldr	r0, [r4]
 3595 0268 2B88     		ldrh	r3, [r5]
 3596 026a 1568     		ldr	r5, [r2]
 3597 026c 5B1B     		subs	r3, r3, r5
 3598 026e 9BB2     		uxth	r3, r3
 3599 0270 21F81030 		strh	r3, [r1, r0, lsl #1]	@ movhi
 3600              	.L420:
 3601              		.loc 1 1030 0
 3602 0274 2168     		ldr	r1, [r4]
 3603 0276 1368     		ldr	r3, [r2]
 3604 0278 3E4A     		ldr	r2, .L441+104
 3605 027a 394F     		ldr	r7, .L441+84
 3606 027c 9BB2     		uxth	r3, r3
 3607 027e 22F81130 		strh	r3, [r2, r1, lsl #1]	@ movhi
 3608              		.loc 1 1032 0
 3609 0282 2568     		ldr	r5, [r4]
 3610 0284 FFF7FEFF 		bl	mc_interface_get_tot_current
 3611              	.LVL245:
 3612              		.loc 1 1033 0
 3613 0288 F2EE047A 		fconsts	s15, #36
 3614 028c C9EEA79A 		fdivs	s19, s19, s15
 3615              	.LVL246:
 3616              		.loc 1 1032 0
 3617 0290 3948     		ldr	r0, .L441+108
 3618              		.loc 1 1033 0
 3619 0292 3A49     		ldr	r1, .L441+112
 3620              		.loc 1 1032 0
 3621 0294 DFED3A7A 		flds	s15, .L441+116
 3622 0298 20EE270A 		fmuls	s0, s0, s15
 3623              		.loc 1 1033 0
 3624 029c FDEEE99A 		ftosizs	s19, s19
 3625              		.loc 1 1032 0
 3626 02a0 BDEEC00A 		ftosizs	s0, s0
 3627              		.loc 1 1033 0
 3628 02a4 CDED019A 		fsts	s19, [sp, #4]	@ int
 3629 02a8 BDF80430 		ldrh	r3, [sp, #4]
 3630              		.loc 1 1032 0
 3631 02ac 8DED010A 		fsts	s0, [sp, #4]	@ int
 3632 02b0 BDF80420 		ldrh	r2, [sp, #4]
 3633 02b4 20F81520 		strh	r2, [r0, r5, lsl #1]	@ movhi
 3634              		.loc 1 1033 0
 3635 02b8 2268     		ldr	r2, [r4]
 3636 02ba 21F81230 		strh	r3, [r1, r2, lsl #1]	@ movhi
 3637              		.loc 1 1035 0
 3638 02be D4F80080 		ldr	r8, [r4]
 3639 02c2 FFF7FEFF 		bl	mcpwm_get_comm_step
 3640              	.LVL247:
 3641 02c6 0546     		mov	r5, r0
 3642 02c8 FFF7FEFF 		bl	mcpwm_read_hall_phase
 3643              	.LVL248:
 3644 02cc 2D4B     		ldr	r3, .L441+120
 3645              		.loc 1 1039 0
 3646 02ce 2E49     		ldr	r1, .L441+124
 3647              		.loc 1 1035 0
 3648 02d0 45EAC000 		orr	r0, r5, r0, lsl #3
ARM GAS  /var/folders/47/g7cdn6zj55s1hhv4njp6x8_h0000gn/T//cc224n80.s 			page 65


 3649 02d4 C0B2     		uxtb	r0, r0
 3650 02d6 03F80800 		strb	r0, [r3, r8]
 3651              		.loc 1 1037 0
 3652 02da 2368     		ldr	r3, [r4]
 3653 02dc 0133     		adds	r3, r3, #1
 3654 02de 2360     		str	r3, [r4]
 3655              		.loc 1 1039 0
 3656 02e0 2268     		ldr	r2, [r4]
 3657 02e2 0B68     		ldr	r3, [r1]
 3658 02e4 9A42     		cmp	r2, r3
 3659 02e6 68D0     		beq	.L440
 3660              	.L421:
 3661              		.loc 1 1047 0
 3662 02e8 FFF7FEFF 		bl	mcpwm_get_last_adc_isr_duration
 3663              	.LVL249:
 3664 02ec 274B     		ldr	r3, .L441+128
 3665 02ee 83ED000A 		fsts	s0, [r3]
 3666              		.loc 1 1050 0
 3667 02f2 03B0     		add	sp, sp, #12
 3668              		.cfi_remember_state
 3669              		.cfi_def_cfa_offset 44
 3670              		@ sp needed
 3671 02f4 BDEC048B 		fldmfdd	sp!, {d8-d9}
 3672              		.cfi_restore 80
 3673              		.cfi_restore 81
 3674              		.cfi_restore 82
 3675              		.cfi_restore 83
 3676              		.cfi_def_cfa_offset 28
 3677              	.LVL250:
 3678 02f8 BDE8F083 		pop	{r4, r5, r6, r7, r8, r9, pc}
 3679              	.LVL251:
 3680              	.L435:
 3681              		.cfi_restore_state
 3682              		.loc 1 961 0
 3683 02fc FFF7FEFF 		bl	mcpwm_foc_get_abs_motor_current
 3684              	.LVL252:
 3685 0300 F0EE409A 		fcpys	s19, s0
 3686              	.LVL253:
 3687              		.loc 1 962 0
 3688 0304 FFF7FEFF 		bl	mcpwm_foc_get_abs_motor_current_filtered
 3689              	.LVL254:
 3690 0308 E3E6     		b	.L399
 3691              	.L442:
 3692 030a 00BF     		.align	2
 3693              	.L441:
 3694 030c 00000000 		.word	.LANCHOR36
 3695 0310 6740533A 		.word	978534503
 3696 0314 00000000 		.word	.LANCHOR11
 3697 0318 74D19541 		.word	1100337524
 3698 031c 00000000 		.word	.LANCHOR37
 3699 0320 00000000 		.word	.LANCHOR14
 3700 0324 00000000 		.word	.LANCHOR34
 3701 0328 00000000 		.word	.LANCHOR17
 3702 032c 00000000 		.word	.LANCHOR18
 3703 0330 00000000 		.word	.LANCHOR19
 3704 0334 00000000 		.word	.LANCHOR20
 3705 0338 00000000 		.word	.LANCHOR39
ARM GAS  /var/folders/47/g7cdn6zj55s1hhv4njp6x8_h0000gn/T//cc224n80.s 			page 66


 3706 033c 00000000 		.word	.LANCHOR38
 3707 0340 0AD7233C 		.word	1008981770
 3708 0344 00000000 		.word	.LANCHOR30
 3709 0348 00000000 		.word	.LANCHOR28
 3710 034c 00000000 		.word	.LANCHOR40
 3711 0350 00000000 		.word	.LANCHOR27
 3712 0354 00000000 		.word	.LANCHOR21
 3713 0358 00000000 		.word	.LANCHOR23
 3714 035c 00000000 		.word	.LANCHOR31
 3715 0360 00000000 		.word	.LANCHOR29
 3716 0364 00000000 		.word	mcpwm_vzero
 3717 0368 00000000 		.word	.LANCHOR4
 3718 036c 00000000 		.word	.LANCHOR5
 3719 0370 00000000 		.word	.LANCHOR6
 3720 0374 00000000 		.word	.LANCHOR7
 3721 0378 00000000 		.word	.LANCHOR9
 3722 037c 00000000 		.word	.LANCHOR10
 3723 0380 0000C842 		.word	1120403456
 3724 0384 00000000 		.word	.LANCHOR8
 3725 0388 00000000 		.word	.LANCHOR1
 3726 038c 00000000 		.word	.LANCHOR26
 3727 0390 00000000 		.word	.LANCHOR41
 3728 0394 00000000 		.word	.LANCHOR2
 3729 0398 00000000 		.word	.LANCHOR3
 3730              	.LVL255:
 3731              	.L430:
 3732              	.LBB114:
 3733              		.loc 1 991 0
 3734 039c 3548     		ldr	r0, .L443
 3735              		.loc 1 992 0
 3736 039e 3649     		ldr	r1, .L443+4
 3737              		.loc 1 991 0
 3738 03a0 D0ED007A 		flds	s15, [r0]
 3739 03a4 77EEE87A 		fsubs	s15, s15, s17
 3740 03a8 C0ED007A 		fsts	s15, [r0]
 3741              		.loc 1 992 0
 3742 03ac D1ED007A 		flds	s15, [r1]
 3743 03b0 E8EE687A 		vfms.f32	s15, s16, s17
 3744 03b4 C1ED007A 		fsts	s15, [r1]
 3745 03b8 07E7     		b	.L410
 3746              	.LVL256:
 3747              	.L440:
 3748              	.LBE114:
 3749              		.loc 1 1040 0
 3750 03ba 0121     		movs	r1, #1
 3751              		.loc 1 1041 0
 3752 03bc 0024     		movs	r4, #0
 3753              		.loc 1 1040 0
 3754 03be 3160     		str	r1, [r6]
 3755              	.LBB115:
 3756              	.LBB116:
 3757              	.LBB117:
 3758              	.LBB118:
 3759              	.LBB119:
 3760              		.loc 3 546 0
 3761 03c0 2023     		movs	r3, #32
 3762              	.LBE119:
ARM GAS  /var/folders/47/g7cdn6zj55s1hhv4njp6x8_h0000gn/T//cc224n80.s 			page 67


 3763              	.LBE118:
 3764              	.LBE117:
 3765              	.LBE116:
 3766              	.LBE115:
 3767              		.loc 1 1041 0
 3768 03c2 3C60     		str	r4, [r7]
 3769              	.LVL257:
 3770              	.LBB124:
 3771              	.LBB123:
 3772              	.LBB122:
 3773              	.LBB121:
 3774              	.LBB120:
 3775              		.loc 3 546 0
 3776              	@ 546 "ChibiOS_3.0.2/os/ext/CMSIS/include/core_cmFunc.h" 1
 3777 03c4 83F31188 		MSR basepri, r3
 3778              	@ 0 "" 2
 3779              		.thumb
 3780              	.LBE120:
 3781              	.LBE121:
 3782              	.LBE122:
 3783              	.LBE123:
 3784              	.LBE124:
 3785              		.loc 1 1043 0
 3786 03c8 2C4B     		ldr	r3, .L443+8
 3787 03ca 1868     		ldr	r0, [r3]
 3788 03cc FFF7FEFF 		bl	chEvtSignalI
 3789              	.LVL258:
 3790              	.LBB125:
 3791              	.LBB126:
 3792              	.LBB127:
 3793              	.LBB128:
 3794              	.LBB129:
 3795              		.loc 3 546 0
 3796              	@ 546 "ChibiOS_3.0.2/os/ext/CMSIS/include/core_cmFunc.h" 1
 3797 03d0 84F31188 		MSR basepri, r4
 3798              	@ 0 "" 2
 3799              		.thumb
 3800 03d4 88E7     		b	.L421
 3801              	.LVL259:
 3802              	.L439:
 3803              	.LBE129:
 3804              	.LBE128:
 3805              	.LBE127:
 3806              	.LBE126:
 3807              	.LBE125:
 3808              		.loc 1 1015 0
 3809 03d6 2568     		ldr	r5, [r4]
 3810              		.loc 1 1019 0
 3811 03d8 294F     		ldr	r7, .L443+12
 3812              		.loc 1 1015 0
 3813 03da FFF7FEFF 		bl	mcpwm_get_comm_step
 3814              	.LVL260:
 3815 03de 294B     		ldr	r3, .L443+16
 3816 03e0 294A     		ldr	r2, .L443+20
 3817 03e2 0138     		subs	r0, r0, #1
 3818 03e4 03EB8003 		add	r3, r3, r0, lsl #2
 3819 03e8 D3ED007A 		flds	s15, [r3]
ARM GAS  /var/folders/47/g7cdn6zj55s1hhv4njp6x8_h0000gn/T//cc224n80.s 			page 68


 3820 03ec FDEEE77A 		ftosizs	s15, s15
 3821 03f0 CDED017A 		fsts	s15, [sp, #4]	@ int
 3822 03f4 BDF80430 		ldrh	r3, [sp, #4]
 3823 03f8 22F81530 		strh	r3, [r2, r5, lsl #1]	@ movhi
 3824              		.loc 1 1016 0
 3825 03fc D4F80080 		ldr	r8, [r4]
 3826              		.loc 1 1020 0
 3827 0400 224D     		ldr	r5, .L443+24
 3828              		.loc 1 1016 0
 3829 0402 FFF7FEFF 		bl	mcpwm_get_comm_step
 3830              	.LVL261:
 3831 0406 224B     		ldr	r3, .L443+28
 3832 0408 DFF890C0 		ldr	ip, .L443+40
 3833              		.loc 1 1018 0
 3834 040c 2149     		ldr	r1, .L443+32
 3835 040e DFF890E0 		ldr	lr, .L443+44
 3836 0412 214A     		ldr	r2, .L443+36
 3837              		.loc 1 1016 0
 3838 0414 0138     		subs	r0, r0, #1
 3839 0416 03EB8003 		add	r3, r3, r0, lsl #2
 3840 041a D3ED007A 		flds	s15, [r3]
 3841 041e FDEEE77A 		ftosizs	s15, s15
 3842 0422 CDED017A 		fsts	s15, [sp, #4]	@ int
 3843 0426 BDF80430 		ldrh	r3, [sp, #4]
 3844 042a 2CF81830 		strh	r3, [ip, r8, lsl #1]	@ movhi
 3845              		.loc 1 1018 0
 3846 042e 2068     		ldr	r0, [r4]
 3847 0430 D1ED007A 		flds	s15, [r1]
 3848 0434 FDEEE77A 		ftosizs	s15, s15
 3849 0438 CDED017A 		fsts	s15, [sp, #4]	@ int
 3850 043c BDF80430 		ldrh	r3, [sp, #4]
 3851 0440 2EF81030 		strh	r3, [lr, r0, lsl #1]	@ movhi
 3852              		.loc 1 1019 0
 3853 0444 2068     		ldr	r0, [r4]
 3854 0446 D1ED017A 		flds	s15, [r1, #4]
 3855 044a FDEEE77A 		ftosizs	s15, s15
 3856 044e CDED017A 		fsts	s15, [sp, #4]	@ int
 3857 0452 BDF80430 		ldrh	r3, [sp, #4]
 3858 0456 27F81030 		strh	r3, [r7, r0, lsl #1]	@ movhi
 3859              		.loc 1 1020 0
 3860 045a 2068     		ldr	r0, [r4]
 3861 045c D1ED027A 		flds	s15, [r1, #8]
 3862 0460 FDEEE77A 		ftosizs	s15, s15
 3863 0464 CDED017A 		fsts	s15, [sp, #4]	@ int
 3864 0468 BDF80430 		ldrh	r3, [sp, #4]
 3865 046c 25F81030 		strh	r3, [r5, r0, lsl #1]	@ movhi
 3866 0470 00E7     		b	.L420
 3867              	.L444:
 3868 0472 00BF     		.align	2
 3869              	.L443:
 3870 0474 00000000 		.word	.LANCHOR22
 3871 0478 00000000 		.word	.LANCHOR24
 3872 047c 00000000 		.word	.LANCHOR0
 3873 0480 00000000 		.word	.LANCHOR5
 3874 0484 00000000 		.word	mcpwm_detect_currents
 3875 0488 00000000 		.word	.LANCHOR2
 3876 048c 00000000 		.word	.LANCHOR6
ARM GAS  /var/folders/47/g7cdn6zj55s1hhv4njp6x8_h0000gn/T//cc224n80.s 			page 69


 3877 0490 00000000 		.word	mcpwm_detect_currents_diff
 3878 0494 00000000 		.word	mcpwm_detect_voltages
 3879 0498 00000000 		.word	mcpwm_vzero
 3880 049c 00000000 		.word	.LANCHOR3
 3881 04a0 00000000 		.word	.LANCHOR4
 3882              		.cfi_endproc
 3883              	.LFE301:
 3884              		.size	mc_interface_mc_timer_isr, .-mc_interface_mc_timer_isr
 3885              		.section	.text.mc_interface_adc_inj_int_handler,"ax",%progbits
 3886              		.align	2
 3887              		.p2align 4,,15
 3888              		.global	mc_interface_adc_inj_int_handler
 3889              		.thumb
 3890              		.thumb_func
 3891              		.type	mc_interface_adc_inj_int_handler, %function
 3892              	mc_interface_adc_inj_int_handler:
 3893              	.LFB302:
 3894              		.loc 1 1052 0
 3895              		.cfi_startproc
 3896              		@ args = 0, pretend = 0, frame = 0
 3897              		@ frame_needed = 0, uses_anonymous_args = 0
 3898              		@ link register save eliminated.
 3899              		.loc 1 1053 0
 3900 0000 054B     		ldr	r3, .L451
 3901 0002 9B78     		ldrb	r3, [r3, #2]	@ zero_extendqisi2
 3902 0004 DBB2     		uxtb	r3, r3
 3903 0006 012B     		cmp	r3, #1
 3904 0008 04D9     		bls	.L447
 3905 000a 022B     		cmp	r3, #2
 3906 000c 01D1     		bne	.L450
 3907              		.loc 1 1060 0
 3908 000e FFF7FEBF 		b	mcpwm_foc_adc_inj_int_handler
 3909              	.LVL262:
 3910              	.L450:
 3911 0012 7047     		bx	lr
 3912              	.L447:
 3913              		.loc 1 1056 0
 3914 0014 FFF7FEBF 		b	mcpwm_adc_inj_int_handler
 3915              	.LVL263:
 3916              	.L452:
 3917              		.align	2
 3918              	.L451:
 3919 0018 00000000 		.word	.LANCHOR11
 3920              		.cfi_endproc
 3921              	.LFE302:
 3922              		.size	mc_interface_adc_inj_int_handler, .-mc_interface_adc_inj_int_handler
 3923              		.global	ADC_curr_norm_value
 3924              		.global	ADC_Value
 3925              		.section	.bss.m_ignore_iterations,"aw",%nobits
 3926              		.align	2
 3927              		.set	.LANCHOR13,. + 0
 3928              		.type	m_ignore_iterations, %object
 3929              		.size	m_ignore_iterations, 4
 3930              	m_ignore_iterations:
 3931 0000 00000000 		.space	4
 3932              		.section	.bss.curr_diff_samples.10495,"aw",%nobits
 3933              		.align	2
ARM GAS  /var/folders/47/g7cdn6zj55s1hhv4njp6x8_h0000gn/T//cc224n80.s 			page 70


 3934              		.set	.LANCHOR39,. + 0
 3935              		.type	curr_diff_samples.10495, %object
 3936              		.size	curr_diff_samples.10495, 4
 3937              	curr_diff_samples.10495:
 3938 0000 00000000 		.space	4
 3939              		.section	.bss.m_f_sw_samples,"aw",%nobits
 3940              		.align	2
 3941              		.set	.LANCHOR10,. + 0
 3942              		.type	m_f_sw_samples, %object
 3943              		.size	m_f_sw_samples, 4000
 3944              	m_f_sw_samples:
 3945 0000 00000000 		.space	4000
 3945      00000000 
 3945      00000000 
 3945      00000000 
 3945      00000000 
 3946              		.section	.bss.m_sample_int,"aw",%nobits
 3947              		.align	2
 3948              		.set	.LANCHOR27,. + 0
 3949              		.type	m_sample_int, %object
 3950              		.size	m_sample_int, 4
 3951              	m_sample_int:
 3952 0000 00000000 		.space	4
 3953              		.section	.bss.m_watt_seconds_charged,"aw",%nobits
 3954              		.align	2
 3955              		.set	.LANCHOR24,. + 0
 3956              		.type	m_watt_seconds_charged, %object
 3957              		.size	m_watt_seconds_charged, 4
 3958              	m_watt_seconds_charged:
 3959 0000 00000000 		.space	4
 3960              		.section	.bss.ADC_curr_norm_value,"aw",%nobits
 3961              		.align	2
 3962              		.set	.LANCHOR41,. + 0
 3963              		.type	ADC_curr_norm_value, %object
 3964              		.size	ADC_curr_norm_value, 12
 3965              	ADC_curr_norm_value:
 3966 0000 00000000 		.space	12
 3966      00000000 
 3966      00000000 
 3967              		.section	.bss.m_position_set,"aw",%nobits
 3968              		.align	2
 3969              		.set	.LANCHOR25,. + 0
 3970              		.type	m_position_set, %object
 3971              		.size	m_position_set, 4
 3972              	m_position_set:
 3973 0000 00000000 		.space	4
 3974              		.section	.bss.m_lock_override_once,"aw",%nobits
 3975              		.set	.LANCHOR16,. + 0
 3976              		.type	m_lock_override_once, %object
 3977              		.size	m_lock_override_once, 1
 3978              	m_lock_override_once:
 3979 0000 00       		.space	1
 3980              		.section	.bss.m_ph1_samples,"aw",%nobits
 3981              		.align	2
 3982              		.set	.LANCHOR4,. + 0
 3983              		.type	m_ph1_samples, %object
 3984              		.size	m_ph1_samples, 4000
ARM GAS  /var/folders/47/g7cdn6zj55s1hhv4njp6x8_h0000gn/T//cc224n80.s 			page 71


 3985              	m_ph1_samples:
 3986 0000 00000000 		.space	4000
 3986      00000000 
 3986      00000000 
 3986      00000000 
 3986      00000000 
 3987              		.section	.bss.ADC_Value,"aw",%nobits
 3988              		.align	2
 3989              		.set	.LANCHOR36,. + 0
 3990              		.type	ADC_Value, %object
 3991              		.size	ADC_Value, 24
 3992              	ADC_Value:
 3993 0000 00000000 		.space	24
 3993      00000000 
 3993      00000000 
 3993      00000000 
 3993      00000000 
 3994              		.section	.bss.m_motor_current_iterations,"aw",%nobits
 3995              		.align	2
 3996              		.set	.LANCHOR19,. + 0
 3997              		.type	m_motor_current_iterations, %object
 3998              		.size	m_motor_current_iterations, 4
 3999              	m_motor_current_iterations:
 4000 0000 00000000 		.space	4
 4001              		.section	.bss.m_last_adc_duration_sample,"aw",%nobits
 4002              		.align	2
 4003              		.set	.LANCHOR26,. + 0
 4004              		.type	m_last_adc_duration_sample, %object
 4005              		.size	m_last_adc_duration_sample, 4
 4006              	m_last_adc_duration_sample:
 4007 0000 00000000 		.space	4
 4008              		.section	.bss.a.10496,"aw",%nobits
 4009              		.align	2
 4010              		.set	.LANCHOR40,. + 0
 4011              		.type	a.10496, %object
 4012              		.size	a.10496, 4
 4013              	a.10496:
 4014 0000 00000000 		.space	4
 4015              		.section	.bss.m_amp_seconds_charged,"aw",%nobits
 4016              		.align	2
 4017              		.set	.LANCHOR22,. + 0
 4018              		.type	m_amp_seconds_charged, %object
 4019              		.size	m_amp_seconds_charged, 4
 4020              	m_amp_seconds_charged:
 4021 0000 00000000 		.space	4
 4022              		.section	.bss.pwn_done_func,"aw",%nobits
 4023              		.align	2
 4024              		.set	.LANCHOR34,. + 0
 4025              		.type	pwn_done_func, %object
 4026              		.size	pwn_done_func, 4
 4027              	pwn_done_func:
 4028 0000 00000000 		.space	4
 4029              		.section	.bss.m_input_current_sum,"aw",%nobits
 4030              		.align	2
 4031              		.set	.LANCHOR18,. + 0
 4032              		.type	m_input_current_sum, %object
 4033              		.size	m_input_current_sum, 4
ARM GAS  /var/folders/47/g7cdn6zj55s1hhv4njp6x8_h0000gn/T//cc224n80.s 			page 72


 4034              	m_input_current_sum:
 4035 0000 00000000 		.space	4
 4036              		.section	.bss.m_vzero_samples,"aw",%nobits
 4037              		.align	2
 4038              		.set	.LANCHOR7,. + 0
 4039              		.type	m_vzero_samples, %object
 4040              		.size	m_vzero_samples, 4000
 4041              	m_vzero_samples:
 4042 0000 00000000 		.space	4000
 4042      00000000 
 4042      00000000 
 4042      00000000 
 4042      00000000 
 4043              		.section	.bss.m_sample_len,"aw",%nobits
 4044              		.align	2
 4045              		.set	.LANCHOR1,. + 0
 4046              		.type	m_sample_len, %object
 4047              		.size	m_sample_len, 4
 4048              	m_sample_len:
 4049 0000 00000000 		.space	4
 4050              		.section	.bss.m_conf,"aw",%nobits
 4051              		.align	2
 4052              		.set	.LANCHOR11,. + 0
 4053              		.type	m_conf, %object
 4054              		.size	m_conf, 308
 4055              	m_conf:
 4056 0000 00000000 		.space	308
 4056      00000000 
 4056      00000000 
 4056      00000000 
 4056      00000000 
 4057              		.section	.bss.m_fault_now,"aw",%nobits
 4058              		.set	.LANCHOR12,. + 0
 4059              		.type	m_fault_now, %object
 4060              		.size	m_fault_now, 1
 4061              	m_fault_now:
 4062 0000 00       		.space	1
 4063              		.section	.bss.curr_diff_sum.10494,"aw",%nobits
 4064              		.align	2
 4065              		.set	.LANCHOR38,. + 0
 4066              		.type	curr_diff_sum.10494, %object
 4067              		.size	curr_diff_sum.10494, 4
 4068              	curr_diff_sum.10494:
 4069 0000 00000000 		.space	4
 4070              		.section	.bss.m_curr0_samples,"aw",%nobits
 4071              		.align	2
 4072              		.set	.LANCHOR2,. + 0
 4073              		.type	m_curr0_samples, %object
 4074              		.size	m_curr0_samples, 4000
 4075              	m_curr0_samples:
 4076 0000 00000000 		.space	4000
 4076      00000000 
 4076      00000000 
 4076      00000000 
 4076      00000000 
 4077              		.section	.bss.sample_send_tp,"aw",%nobits
 4078              		.align	2
ARM GAS  /var/folders/47/g7cdn6zj55s1hhv4njp6x8_h0000gn/T//cc224n80.s 			page 73


 4079              		.set	.LANCHOR0,. + 0
 4080              		.type	sample_send_tp, %object
 4081              		.size	sample_send_tp, 4
 4082              	sample_send_tp:
 4083 0000 00000000 		.space	4
 4084              		.section	.rodata.str1.4,"aMS",%progbits,1
 4085              		.align	2
 4086              	.LC0:
 4087 0000 53616D70 		.ascii	"SampleSender\000"
 4087      6C655365 
 4087      6E646572 
 4087      00
 4088 000d 000000   		.space	3
 4089              	.LC1:
 4090 0010 4641554C 		.ascii	"FAULT_UNKNOWN\000"
 4090      545F554E 
 4090      4B4E4F57 
 4090      4E00
 4091 001e 0000     		.space	2
 4092              	.LC2:
 4093 0020 6D636966 		.ascii	"mcif timer\000"
 4093      2074696D 
 4093      657200
 4094 002b 00       		.space	1
 4095              	.LC3:
 4096 002c 4641554C 		.ascii	"FAULT_CODE_NONE\000"
 4096      545F434F 
 4096      44455F4E 
 4096      4F4E4500 
 4097              	.LC4:
 4098 003c 4641554C 		.ascii	"FAULT_CODE_OVER_VOLTAGE\000"
 4098      545F434F 
 4098      44455F4F 
 4098      5645525F 
 4098      564F4C54 
 4099              	.LC5:
 4100 0054 4641554C 		.ascii	"FAULT_CODE_UNDER_VOLTAGE\000"
 4100      545F434F 
 4100      44455F55 
 4100      4E444552 
 4100      5F564F4C 
 4101 006d 000000   		.space	3
 4102              	.LC6:
 4103 0070 4641554C 		.ascii	"FAULT_CODE_DRV8302\000"
 4103      545F434F 
 4103      44455F44 
 4103      52563833 
 4103      303200
 4104 0083 00       		.space	1
 4105              	.LC7:
 4106 0084 4641554C 		.ascii	"FAULT_CODE_ABS_OVER_CURRENT\000"
 4106      545F434F 
 4106      44455F41 
 4106      42535F4F 
 4106      5645525F 
 4107              	.LC8:
 4108 00a0 4641554C 		.ascii	"FAULT_CODE_OVER_TEMP_FET\000"
ARM GAS  /var/folders/47/g7cdn6zj55s1hhv4njp6x8_h0000gn/T//cc224n80.s 			page 74


 4108      545F434F 
 4108      44455F4F 
 4108      5645525F 
 4108      54454D50 
 4109 00b9 000000   		.space	3
 4110              	.LC9:
 4111 00bc 4641554C 		.ascii	"FAULT_CODE_OVER_TEMP_MOTOR\000"
 4111      545F434F 
 4111      44455F4F 
 4111      5645525F 
 4111      54454D50 
 4112              		.section	.bss.m_cycles_running,"aw",%nobits
 4113              		.align	2
 4114              		.set	.LANCHOR14,. + 0
 4115              		.type	m_cycles_running, %object
 4116              		.size	m_cycles_running, 4
 4117              	m_cycles_running:
 4118 0000 00000000 		.space	4
 4119              		.section	.bss.m_sample_ready,"aw",%nobits
 4120              		.align	2
 4121              		.set	.LANCHOR28,. + 0
 4122              		.type	m_sample_ready, %object
 4123              		.size	m_sample_ready, 4
 4124              	m_sample_ready:
 4125 0000 00000000 		.space	4
 4126              		.section	.bss.m_ph2_samples,"aw",%nobits
 4127              		.align	2
 4128              		.set	.LANCHOR5,. + 0
 4129              		.type	m_ph2_samples, %object
 4130              		.size	m_ph2_samples, 4000
 4131              	m_ph2_samples:
 4132 0000 00000000 		.space	4000
 4132      00000000 
 4132      00000000 
 4132      00000000 
 4132      00000000 
 4133              		.section	.bss.m_motor_current_sum,"aw",%nobits
 4134              		.align	2
 4135              		.set	.LANCHOR17,. + 0
 4136              		.type	m_motor_current_sum, %object
 4137              		.size	m_motor_current_sum, 4
 4138              	m_motor_current_sum:
 4139 0000 00000000 		.space	4
 4140              		.section	.bss.m_input_current_iterations,"aw",%nobits
 4141              		.align	2
 4142              		.set	.LANCHOR20,. + 0
 4143              		.type	m_input_current_iterations, %object
 4144              		.size	m_input_current_iterations, 4
 4145              	m_input_current_iterations:
 4146 0000 00000000 		.space	4
 4147              		.section	.bss.m_amp_seconds,"aw",%nobits
 4148              		.align	2
 4149              		.set	.LANCHOR21,. + 0
 4150              		.type	m_amp_seconds, %object
 4151              		.size	m_amp_seconds, 4
 4152              	m_amp_seconds:
 4153 0000 00000000 		.space	4
ARM GAS  /var/folders/47/g7cdn6zj55s1hhv4njp6x8_h0000gn/T//cc224n80.s 			page 75


 4154              		.section	.bss.sample_send_thread_wa,"aw",%nobits
 4155              		.align	3
 4156              		.set	.LANCHOR33,. + 0
 4157              		.type	sample_send_thread_wa, %object
 4158              		.size	sample_send_thread_wa, 1432
 4159              	sample_send_thread_wa:
 4160 0000 00000000 		.space	1432
 4160      00000000 
 4160      00000000 
 4160      00000000 
 4160      00000000 
 4161              		.section	.bss.m_curr_fir_samples,"aw",%nobits
 4162              		.align	2
 4163              		.set	.LANCHOR9,. + 0
 4164              		.type	m_curr_fir_samples, %object
 4165              		.size	m_curr_fir_samples, 4000
 4166              	m_curr_fir_samples:
 4167 0000 00000000 		.space	4000
 4167      00000000 
 4167      00000000 
 4167      00000000 
 4167      00000000 
 4168              		.section	.bss.m_sample_now,"aw",%nobits
 4169              		.align	2
 4170              		.set	.LANCHOR29,. + 0
 4171              		.type	m_sample_now, %object
 4172              		.size	m_sample_now, 4
 4173              	m_sample_now:
 4174 0000 00000000 		.space	4
 4175              		.section	.bss.m_status_samples,"aw",%nobits
 4176              		.align	2
 4177              		.set	.LANCHOR8,. + 0
 4178              		.type	m_status_samples, %object
 4179              		.size	m_status_samples, 2000
 4180              	m_status_samples:
 4181 0000 00000000 		.space	2000
 4181      00000000 
 4181      00000000 
 4181      00000000 
 4181      00000000 
 4182              		.section	.bss.m_lock_enabled,"aw",%nobits
 4183              		.set	.LANCHOR15,. + 0
 4184              		.type	m_lock_enabled, %object
 4185              		.size	m_lock_enabled, 1
 4186              	m_lock_enabled:
 4187 0000 00       		.space	1
 4188              		.section	.bss.m_start_comm,"aw",%nobits
 4189              		.align	2
 4190              		.set	.LANCHOR31,. + 0
 4191              		.type	m_start_comm, %object
 4192              		.size	m_start_comm, 4
 4193              	m_start_comm:
 4194 0000 00000000 		.space	4
 4195              		.section	.bss.m_watt_seconds,"aw",%nobits
 4196              		.align	2
 4197              		.set	.LANCHOR23,. + 0
 4198              		.type	m_watt_seconds, %object
ARM GAS  /var/folders/47/g7cdn6zj55s1hhv4njp6x8_h0000gn/T//cc224n80.s 			page 76


 4199              		.size	m_watt_seconds, 4
 4200              	m_watt_seconds:
 4201 0000 00000000 		.space	4
 4202              		.section	.bss.m_curr1_samples,"aw",%nobits
 4203              		.align	2
 4204              		.set	.LANCHOR3,. + 0
 4205              		.type	m_curr1_samples, %object
 4206              		.size	m_curr1_samples, 4000
 4207              	m_curr1_samples:
 4208 0000 00000000 		.space	4000
 4208      00000000 
 4208      00000000 
 4208      00000000 
 4208      00000000 
 4209              		.section	.bss.m_sample_at_start,"aw",%nobits
 4210              		.align	2
 4211              		.set	.LANCHOR30,. + 0
 4212              		.type	m_sample_at_start, %object
 4213              		.size	m_sample_at_start, 4
 4214              	m_sample_at_start:
 4215 0000 00000000 		.space	4
 4216              		.section	.rodata.CSWTCH.124,"a",%progbits
 4217              		.align	2
 4218              		.set	.LANCHOR35,. + 0
 4219              		.type	CSWTCH.124, %object
 4220              		.size	CSWTCH.124, 28
 4221              	CSWTCH.124:
 4222 0000 2C000000 		.word	.LC3
 4223 0004 3C000000 		.word	.LC4
 4224 0008 54000000 		.word	.LC5
 4225 000c 70000000 		.word	.LC6
 4226 0010 84000000 		.word	.LC7
 4227 0014 A0000000 		.word	.LC8
 4228 0018 BC000000 		.word	.LC9
 4229              		.section	.bss.timer_thread_wa,"aw",%nobits
 4230              		.align	3
 4231              		.set	.LANCHOR32,. + 0
 4232              		.type	timer_thread_wa, %object
 4233              		.size	timer_thread_wa, 1432
 4234              	timer_thread_wa:
 4235 0000 00000000 		.space	1432
 4235      00000000 
 4235      00000000 
 4235      00000000 
 4235      00000000 
 4236              		.section	.bss.wrong_voltage_iterations.10488,"aw",%nobits
 4237              		.align	2
 4238              		.set	.LANCHOR37,. + 0
 4239              		.type	wrong_voltage_iterations.10488, %object
 4240              		.size	wrong_voltage_iterations.10488, 4
 4241              	wrong_voltage_iterations.10488:
 4242 0000 00000000 		.space	4
 4243              		.section	.bss.m_ph3_samples,"aw",%nobits
 4244              		.align	2
 4245              		.set	.LANCHOR6,. + 0
 4246              		.type	m_ph3_samples, %object
 4247              		.size	m_ph3_samples, 4000
ARM GAS  /var/folders/47/g7cdn6zj55s1hhv4njp6x8_h0000gn/T//cc224n80.s 			page 77


 4248              	m_ph3_samples:
 4249 0000 00000000 		.space	4000
 4249      00000000 
 4249      00000000 
 4249      00000000 
 4249      00000000 
 4250              		.text
 4251              	.Letext0:
 4252              		.file 4 "/usr/local/Cellar/arm-none-eabi-gcc/20150921/arm-none-eabi/include/machine/_default_types
 4253              		.file 5 "/usr/local/Cellar/arm-none-eabi-gcc/20150921/arm-none-eabi/include/sys/_stdint.h"
 4254              		.file 6 "/usr/local/Cellar/arm-none-eabi-gcc/20150921/lib/gcc/arm-none-eabi/4.9.3/include/stddef.h
 4255              		.file 7 "ChibiOS_3.0.2/os/rt/ports/ARMCMx/compilers/GCC/chtypes.h"
 4256              		.file 8 "ChibiOS_3.0.2/os/rt/include/chsystypes.h"
 4257              		.file 9 "ChibiOS_3.0.2/os/rt/include/chschd.h"
 4258              		.file 10 "ChibiOS_3.0.2/os/ext/CMSIS/ST/stm32f407xx.h"
 4259              		.file 11 "ChibiOS_3.0.2/os/rt/ports/ARMCMx/chcore.h"
 4260              		.file 12 "ChibiOS_3.0.2/os/rt/ports/ARMCMx/chcore_v7m.h"
 4261              		.file 13 "ChibiOS_3.0.2/os/rt/include/chtm.h"
 4262              		.file 14 "ChibiOS_3.0.2/os/rt/include/chsem.h"
 4263              		.file 15 "ChibiOS_3.0.2/os/rt/include/chmtx.h"
 4264              		.file 16 "ChibiOS_3.0.2/os/rt/include/chthreads.h"
 4265              		.file 17 "datatypes.h"
 4266              		.file 18 "ChibiOS_3.0.2/os/hal/ports/STM32/LLD/GPIOv2/pal_lld.h"
 4267              		.file 19 "ChibiOS_3.0.2/os/rt/include/chsys.h"
 4268              		.file 20 "ChibiOS_3.0.2/os/ext/CMSIS/include/core_cm4.h"
 4269              		.file 21 "mcpwm.h"
 4270              		.file 22 "commands.h"
 4271              		.file 23 "ChibiOS_3.0.2/os/rt/include/chevents.h"
 4272              		.file 24 "mcpwm_foc.h"
 4273              		.file 25 "encoder.h"
 4274              		.file 26 "/usr/local/Cellar/arm-none-eabi-gcc/20150921/arm-none-eabi/include/math.h"
 4275              		.file 27 "terminal.h"
 4276              		.file 28 "utils.h"
 4277              		.file 29 "ledpwm.h"
 4278              		.section	.debug_info,"",%progbits
 4279              	.Ldebug_info0:
 4280 0000 CD290000 		.4byte	0x29cd
 4281 0004 0400     		.2byte	0x4
 4282 0006 00000000 		.4byte	.Ldebug_abbrev0
 4283 000a 04       		.byte	0x4
 4284 000b 01       		.uleb128 0x1
 4285 000c 4B1D0000 		.4byte	.LASF470
 4286 0010 01       		.byte	0x1
 4287 0011 CD080000 		.4byte	.LASF471
 4288 0015 B90D0000 		.4byte	.LASF472
 4289 0019 C8000000 		.4byte	.Ldebug_ranges0+0xc8
 4290 001d 00000000 		.4byte	0
 4291 0021 00000000 		.4byte	.Ldebug_line0
 4292 0025 02       		.uleb128 0x2
 4293 0026 04       		.byte	0x4
 4294 0027 04       		.byte	0x4
 4295 0028 20060000 		.4byte	.LASF0
 4296 002c 03       		.uleb128 0x3
 4297 002d FF1C0000 		.4byte	.LASF2
 4298 0031 04       		.byte	0x4
 4299 0032 1B       		.byte	0x1b
 4300 0033 37000000 		.4byte	0x37
ARM GAS  /var/folders/47/g7cdn6zj55s1hhv4njp6x8_h0000gn/T//cc224n80.s 			page 78


 4301 0037 02       		.uleb128 0x2
 4302 0038 01       		.byte	0x1
 4303 0039 06       		.byte	0x6
 4304 003a BB0F0000 		.4byte	.LASF1
 4305 003e 03       		.uleb128 0x3
 4306 003f 79000000 		.4byte	.LASF3
 4307 0043 04       		.byte	0x4
 4308 0044 1D       		.byte	0x1d
 4309 0045 49000000 		.4byte	0x49
 4310 0049 02       		.uleb128 0x2
 4311 004a 01       		.byte	0x1
 4312 004b 08       		.byte	0x8
 4313 004c D4050000 		.4byte	.LASF4
 4314 0050 03       		.uleb128 0x3
 4315 0051 CF040000 		.4byte	.LASF5
 4316 0055 04       		.byte	0x4
 4317 0056 29       		.byte	0x29
 4318 0057 5B000000 		.4byte	0x5b
 4319 005b 02       		.uleb128 0x2
 4320 005c 02       		.byte	0x2
 4321 005d 05       		.byte	0x5
 4322 005e EB1E0000 		.4byte	.LASF6
 4323 0062 03       		.uleb128 0x3
 4324 0063 D9040000 		.4byte	.LASF7
 4325 0067 04       		.byte	0x4
 4326 0068 2B       		.byte	0x2b
 4327 0069 6D000000 		.4byte	0x6d
 4328 006d 02       		.uleb128 0x2
 4329 006e 02       		.byte	0x2
 4330 006f 07       		.byte	0x7
 4331 0070 A30F0000 		.4byte	.LASF8
 4332 0074 03       		.uleb128 0x3
 4333 0075 AD170000 		.4byte	.LASF9
 4334 0079 04       		.byte	0x4
 4335 007a 3F       		.byte	0x3f
 4336 007b 7F000000 		.4byte	0x7f
 4337 007f 02       		.uleb128 0x2
 4338 0080 04       		.byte	0x4
 4339 0081 05       		.byte	0x5
 4340 0082 C2110000 		.4byte	.LASF10
 4341 0086 03       		.uleb128 0x3
 4342 0087 B7170000 		.4byte	.LASF11
 4343 008b 04       		.byte	0x4
 4344 008c 41       		.byte	0x41
 4345 008d 91000000 		.4byte	0x91
 4346 0091 02       		.uleb128 0x2
 4347 0092 04       		.byte	0x4
 4348 0093 07       		.byte	0x7
 4349 0094 44130000 		.4byte	.LASF12
 4350 0098 02       		.uleb128 0x2
 4351 0099 08       		.byte	0x8
 4352 009a 05       		.byte	0x5
 4353 009b A51B0000 		.4byte	.LASF13
 4354 009f 03       		.uleb128 0x3
 4355 00a0 AB0B0000 		.4byte	.LASF14
 4356 00a4 04       		.byte	0x4
 4357 00a5 5B       		.byte	0x5b
ARM GAS  /var/folders/47/g7cdn6zj55s1hhv4njp6x8_h0000gn/T//cc224n80.s 			page 79


 4358 00a6 AA000000 		.4byte	0xaa
 4359 00aa 02       		.uleb128 0x2
 4360 00ab 08       		.byte	0x8
 4361 00ac 07       		.byte	0x7
 4362 00ad EB180000 		.4byte	.LASF15
 4363 00b1 04       		.uleb128 0x4
 4364 00b2 04       		.byte	0x4
 4365 00b3 05       		.byte	0x5
 4366 00b4 696E7400 		.ascii	"int\000"
 4367 00b8 02       		.uleb128 0x2
 4368 00b9 04       		.byte	0x4
 4369 00ba 07       		.byte	0x7
 4370 00bb AA1E0000 		.4byte	.LASF16
 4371 00bf 03       		.uleb128 0x3
 4372 00c0 C00E0000 		.4byte	.LASF17
 4373 00c4 05       		.byte	0x5
 4374 00c5 13       		.byte	0x13
 4375 00c6 2C000000 		.4byte	0x2c
 4376 00ca 03       		.uleb128 0x3
 4377 00cb 48090000 		.4byte	.LASF18
 4378 00cf 05       		.byte	0x5
 4379 00d0 14       		.byte	0x14
 4380 00d1 3E000000 		.4byte	0x3e
 4381 00d5 03       		.uleb128 0x3
 4382 00d6 9B0F0000 		.4byte	.LASF19
 4383 00da 05       		.byte	0x5
 4384 00db 19       		.byte	0x19
 4385 00dc 50000000 		.4byte	0x50
 4386 00e0 03       		.uleb128 0x3
 4387 00e1 F8000000 		.4byte	.LASF20
 4388 00e5 05       		.byte	0x5
 4389 00e6 1A       		.byte	0x1a
 4390 00e7 62000000 		.4byte	0x62
 4391 00eb 03       		.uleb128 0x3
 4392 00ec B1020000 		.4byte	.LASF21
 4393 00f0 05       		.byte	0x5
 4394 00f1 1F       		.byte	0x1f
 4395 00f2 74000000 		.4byte	0x74
 4396 00f6 03       		.uleb128 0x3
 4397 00f7 B7120000 		.4byte	.LASF22
 4398 00fb 05       		.byte	0x5
 4399 00fc 20       		.byte	0x20
 4400 00fd 86000000 		.4byte	0x86
 4401 0101 03       		.uleb128 0x3
 4402 0102 6F070000 		.4byte	.LASF23
 4403 0106 05       		.byte	0x5
 4404 0107 26       		.byte	0x26
 4405 0108 9F000000 		.4byte	0x9f
 4406 010c 03       		.uleb128 0x3
 4407 010d F6080000 		.4byte	.LASF24
 4408 0111 06       		.byte	0x6
 4409 0112 D4       		.byte	0xd4
 4410 0113 B8000000 		.4byte	0xb8
 4411 0117 05       		.uleb128 0x5
 4412 0118 EB000000 		.4byte	0xeb
 4413 011c 05       		.uleb128 0x5
 4414 011d F6000000 		.4byte	0xf6
ARM GAS  /var/folders/47/g7cdn6zj55s1hhv4njp6x8_h0000gn/T//cc224n80.s 			page 80


 4415 0121 03       		.uleb128 0x3
 4416 0122 6A080000 		.4byte	.LASF25
 4417 0126 07       		.byte	0x7
 4418 0127 45       		.byte	0x45
 4419 0128 F6000000 		.4byte	0xf6
 4420 012c 03       		.uleb128 0x3
 4421 012d 3A0D0000 		.4byte	.LASF26
 4422 0131 07       		.byte	0x7
 4423 0132 48       		.byte	0x48
 4424 0133 CA000000 		.4byte	0xca
 4425 0137 03       		.uleb128 0x3
 4426 0138 541A0000 		.4byte	.LASF27
 4427 013c 07       		.byte	0x7
 4428 013d 49       		.byte	0x49
 4429 013e CA000000 		.4byte	0xca
 4430 0142 03       		.uleb128 0x3
 4431 0143 AD0C0000 		.4byte	.LASF28
 4432 0147 07       		.byte	0x7
 4433 0148 4A       		.byte	0x4a
 4434 0149 CA000000 		.4byte	0xca
 4435 014d 03       		.uleb128 0x3
 4436 014e 100F0000 		.4byte	.LASF29
 4437 0152 07       		.byte	0x7
 4438 0153 4B       		.byte	0x4b
 4439 0154 CA000000 		.4byte	0xca
 4440 0158 03       		.uleb128 0x3
 4441 0159 17040000 		.4byte	.LASF30
 4442 015d 07       		.byte	0x7
 4443 015e 4C       		.byte	0x4c
 4444 015f F6000000 		.4byte	0xf6
 4445 0163 03       		.uleb128 0x3
 4446 0164 67000000 		.4byte	.LASF31
 4447 0168 07       		.byte	0x7
 4448 0169 4D       		.byte	0x4d
 4449 016a EB000000 		.4byte	0xeb
 4450 016e 03       		.uleb128 0x3
 4451 016f 16130000 		.4byte	.LASF32
 4452 0173 07       		.byte	0x7
 4453 0174 4F       		.byte	0x4f
 4454 0175 F6000000 		.4byte	0xf6
 4455 0179 03       		.uleb128 0x3
 4456 017a F6150000 		.4byte	.LASF33
 4457 017e 07       		.byte	0x7
 4458 017f 51       		.byte	0x51
 4459 0180 EB000000 		.4byte	0xeb
 4460 0184 03       		.uleb128 0x3
 4461 0185 B9020000 		.4byte	.LASF34
 4462 0189 08       		.byte	0x8
 4463 018a 33       		.byte	0x33
 4464 018b F6000000 		.4byte	0xf6
 4465 018f 03       		.uleb128 0x3
 4466 0190 91020000 		.4byte	.LASF35
 4467 0194 08       		.byte	0x8
 4468 0195 3F       		.byte	0x3f
 4469 0196 9A010000 		.4byte	0x19a
 4470 019a 06       		.uleb128 0x6
 4471 019b 16060000 		.4byte	.LASF57
ARM GAS  /var/folders/47/g7cdn6zj55s1hhv4njp6x8_h0000gn/T//cc224n80.s 			page 81


 4472 019f 48       		.byte	0x48
 4473 01a0 09       		.byte	0x9
 4474 01a1 C2       		.byte	0xc2
 4475 01a2 9F020000 		.4byte	0x29f
 4476 01a6 07       		.uleb128 0x7
 4477 01a7 650C0000 		.4byte	.LASF36
 4478 01ab 09       		.byte	0x9
 4479 01ac C3       		.byte	0xc3
 4480 01ad AA020000 		.4byte	0x2aa
 4481 01b1 00       		.byte	0
 4482 01b2 07       		.uleb128 0x7
 4483 01b3 75090000 		.4byte	.LASF37
 4484 01b7 09       		.byte	0x9
 4485 01b8 C5       		.byte	0xc5
 4486 01b9 AA020000 		.4byte	0x2aa
 4487 01bd 04       		.byte	0x4
 4488 01be 07       		.uleb128 0x7
 4489 01bf 650B0000 		.4byte	.LASF38
 4490 01c3 09       		.byte	0x9
 4491 01c4 C7       		.byte	0xc7
 4492 01c5 58010000 		.4byte	0x158
 4493 01c9 08       		.byte	0x8
 4494 01ca 07       		.uleb128 0x7
 4495 01cb 9A060000 		.4byte	.LASF39
 4496 01cf 09       		.byte	0x9
 4497 01d0 C8       		.byte	0xc8
 4498 01d1 FF050000 		.4byte	0x5ff
 4499 01d5 0C       		.byte	0xc
 4500 01d6 07       		.uleb128 0x7
 4501 01d7 80010000 		.4byte	.LASF40
 4502 01db 09       		.byte	0x9
 4503 01dc CA       		.byte	0xca
 4504 01dd AA020000 		.4byte	0x2aa
 4505 01e1 10       		.byte	0x10
 4506 01e2 07       		.uleb128 0x7
 4507 01e3 761C0000 		.4byte	.LASF41
 4508 01e7 09       		.byte	0x9
 4509 01e8 CB       		.byte	0xcb
 4510 01e9 AA020000 		.4byte	0x2aa
 4511 01ed 14       		.byte	0x14
 4512 01ee 07       		.uleb128 0x7
 4513 01ef 9B1A0000 		.4byte	.LASF42
 4514 01f3 09       		.byte	0x9
 4515 01f4 D2       		.byte	0xd2
 4516 01f5 44080000 		.4byte	0x844
 4517 01f9 18       		.byte	0x18
 4518 01fa 07       		.uleb128 0x7
 4519 01fb CD1F0000 		.4byte	.LASF43
 4520 01ff 09       		.byte	0x9
 4521 0200 DD       		.byte	0xdd
 4522 0201 37010000 		.4byte	0x137
 4523 0205 1C       		.byte	0x1c
 4524 0206 07       		.uleb128 0x7
 4525 0207 B5190000 		.4byte	.LASF44
 4526 020b 09       		.byte	0x9
 4527 020c E1       		.byte	0xe1
 4528 020d 2C010000 		.4byte	0x12c
ARM GAS  /var/folders/47/g7cdn6zj55s1hhv4njp6x8_h0000gn/T//cc224n80.s 			page 82


 4529 0211 1D       		.byte	0x1d
 4530 0212 07       		.uleb128 0x7
 4531 0213 80110000 		.4byte	.LASF45
 4532 0217 09       		.byte	0x9
 4533 0218 E6       		.byte	0xe6
 4534 0219 42010000 		.4byte	0x142
 4535 021d 1E       		.byte	0x1e
 4536 021e 07       		.uleb128 0x7
 4537 021f DD0F0000 		.4byte	.LASF46
 4538 0223 09       		.byte	0x9
 4539 0224 EC       		.byte	0xec
 4540 0225 4D010000 		.4byte	0x14d
 4541 0229 1F       		.byte	0x1f
 4542 022a 07       		.uleb128 0x7
 4543 022b F20F0000 		.4byte	.LASF47
 4544 022f 09       		.byte	0x9
 4545 0230 F3       		.byte	0xf3
 4546 0231 56080000 		.4byte	0x856
 4547 0235 20       		.byte	0x20
 4548 0236 08       		.uleb128 0x8
 4549 0237 705F7500 		.ascii	"p_u\000"
 4550 023b 09       		.byte	0x9
 4551 023c 3101     		.2byte	0x131
 4552 023e 7F070000 		.4byte	0x77f
 4553 0242 24       		.byte	0x24
 4554 0243 09       		.uleb128 0x9
 4555 0244 64030000 		.4byte	.LASF48
 4556 0248 09       		.byte	0x9
 4557 0249 3601     		.2byte	0x136
 4558 024b B0020000 		.4byte	0x2b0
 4559 024f 28       		.byte	0x28
 4560 0250 09       		.uleb128 0x9
 4561 0251 A2100000 		.4byte	.LASF49
 4562 0255 09       		.byte	0x9
 4563 0256 3C01     		.2byte	0x13c
 4564 0258 D4020000 		.4byte	0x2d4
 4565 025c 2C       		.byte	0x2c
 4566 025d 09       		.uleb128 0x9
 4567 025e E4040000 		.4byte	.LASF50
 4568 0262 09       		.byte	0x9
 4569 0263 4001     		.2byte	0x140
 4570 0265 63010000 		.4byte	0x163
 4571 0269 34       		.byte	0x34
 4572 026a 09       		.uleb128 0x9
 4573 026b 32180000 		.4byte	.LASF51
 4574 026f 09       		.byte	0x9
 4575 0270 4601     		.2byte	0x146
 4576 0272 6E010000 		.4byte	0x16e
 4577 0276 38       		.byte	0x38
 4578 0277 09       		.uleb128 0x9
 4579 0278 101A0000 		.4byte	.LASF52
 4580 027c 09       		.byte	0x9
 4581 027d 4D01     		.2byte	0x14d
 4582 027f 3E080000 		.4byte	0x83e
 4583 0283 3C       		.byte	0x3c
 4584 0284 09       		.uleb128 0x9
 4585 0285 E8160000 		.4byte	.LASF53
ARM GAS  /var/folders/47/g7cdn6zj55s1hhv4njp6x8_h0000gn/T//cc224n80.s 			page 83


 4586 0289 09       		.byte	0x9
 4587 028a 5101     		.2byte	0x151
 4588 028c 58010000 		.4byte	0x158
 4589 0290 40       		.byte	0x40
 4590 0291 09       		.uleb128 0x9
 4591 0292 B50C0000 		.4byte	.LASF54
 4592 0296 09       		.byte	0x9
 4593 0297 5801     		.2byte	0x158
 4594 0299 87030000 		.4byte	0x387
 4595 029d 44       		.byte	0x44
 4596 029e 00       		.byte	0
 4597 029f 03       		.uleb128 0x3
 4598 02a0 A01C0000 		.4byte	.LASF55
 4599 02a4 08       		.byte	0x8
 4600 02a5 44       		.byte	0x44
 4601 02a6 AA020000 		.4byte	0x2aa
 4602 02aa 0A       		.uleb128 0xa
 4603 02ab 04       		.byte	0x4
 4604 02ac 8F010000 		.4byte	0x18f
 4605 02b0 03       		.uleb128 0x3
 4606 02b1 7A030000 		.4byte	.LASF56
 4607 02b5 08       		.byte	0x8
 4608 02b6 49       		.byte	0x49
 4609 02b7 BB020000 		.4byte	0x2bb
 4610 02bb 06       		.uleb128 0x6
 4611 02bc E41F0000 		.4byte	.LASF58
 4612 02c0 04       		.byte	0x4
 4613 02c1 09       		.byte	0x9
 4614 02c2 B0       		.byte	0xb0
 4615 02c3 D4020000 		.4byte	0x2d4
 4616 02c7 07       		.uleb128 0x7
 4617 02c8 650C0000 		.4byte	.LASF36
 4618 02cc 09       		.byte	0x9
 4619 02cd B1       		.byte	0xb1
 4620 02ce AA020000 		.4byte	0x2aa
 4621 02d2 00       		.byte	0
 4622 02d3 00       		.byte	0
 4623 02d4 03       		.uleb128 0x3
 4624 02d5 35110000 		.4byte	.LASF59
 4625 02d9 08       		.byte	0x8
 4626 02da 50       		.byte	0x50
 4627 02db DF020000 		.4byte	0x2df
 4628 02df 06       		.uleb128 0x6
 4629 02e0 64010000 		.4byte	.LASF60
 4630 02e4 08       		.byte	0x8
 4631 02e5 09       		.byte	0x9
 4632 02e6 B7       		.byte	0xb7
 4633 02e7 04030000 		.4byte	0x304
 4634 02eb 07       		.uleb128 0x7
 4635 02ec 650C0000 		.4byte	.LASF36
 4636 02f0 09       		.byte	0x9
 4637 02f1 B8       		.byte	0xb8
 4638 02f2 AA020000 		.4byte	0x2aa
 4639 02f6 00       		.byte	0
 4640 02f7 07       		.uleb128 0x7
 4641 02f8 75090000 		.4byte	.LASF37
 4642 02fc 09       		.byte	0x9
ARM GAS  /var/folders/47/g7cdn6zj55s1hhv4njp6x8_h0000gn/T//cc224n80.s 			page 84


 4643 02fd B9       		.byte	0xb9
 4644 02fe AA020000 		.4byte	0x2aa
 4645 0302 04       		.byte	0x4
 4646 0303 00       		.byte	0
 4647 0304 03       		.uleb128 0x3
 4648 0305 09060000 		.4byte	.LASF61
 4649 0309 08       		.byte	0x8
 4650 030a 57       		.byte	0x57
 4651 030b 0F030000 		.4byte	0x30f
 4652 030f 0B       		.uleb128 0xb
 4653 0310 7C170000 		.4byte	.LASF62
 4654 0314 1C       		.byte	0x1c
 4655 0315 09       		.byte	0x9
 4656 0316 9001     		.2byte	0x190
 4657 0318 6B030000 		.4byte	0x36b
 4658 031c 09       		.uleb128 0x9
 4659 031d FC130000 		.4byte	.LASF63
 4660 0321 09       		.byte	0x9
 4661 0322 9101     		.2byte	0x191
 4662 0324 D4020000 		.4byte	0x2d4
 4663 0328 00       		.byte	0
 4664 0329 09       		.uleb128 0x9
 4665 032a 9F180000 		.4byte	.LASF64
 4666 032e 09       		.byte	0x9
 4667 032f 9201     		.2byte	0x192
 4668 0331 58010000 		.4byte	0x158
 4669 0335 08       		.byte	0x8
 4670 0336 09       		.uleb128 0x9
 4671 0337 45080000 		.4byte	.LASF65
 4672 033b 09       		.byte	0x9
 4673 033c 9401     		.2byte	0x194
 4674 033e FF050000 		.4byte	0x5ff
 4675 0342 0C       		.byte	0xc
 4676 0343 09       		.uleb128 0x9
 4677 0344 E70E0000 		.4byte	.LASF66
 4678 0348 09       		.byte	0x9
 4679 0349 9701     		.2byte	0x197
 4680 034b AA020000 		.4byte	0x2aa
 4681 034f 10       		.byte	0x10
 4682 0350 09       		.uleb128 0x9
 4683 0351 6D090000 		.4byte	.LASF67
 4684 0355 09       		.byte	0x9
 4685 0356 9801     		.2byte	0x198
 4686 0358 AA020000 		.4byte	0x2aa
 4687 035c 14       		.byte	0x14
 4688 035d 09       		.uleb128 0x9
 4689 035e C5060000 		.4byte	.LASF68
 4690 0362 09       		.byte	0x9
 4691 0363 9B01     		.2byte	0x19b
 4692 0365 AA020000 		.4byte	0x2aa
 4693 0369 18       		.byte	0x18
 4694 036a 00       		.byte	0
 4695 036b 03       		.uleb128 0x3
 4696 036c D8160000 		.4byte	.LASF69
 4697 0370 08       		.byte	0x8
 4698 0371 5C       		.byte	0x5c
 4699 0372 76030000 		.4byte	0x376
ARM GAS  /var/folders/47/g7cdn6zj55s1hhv4njp6x8_h0000gn/T//cc224n80.s 			page 85


 4700 0376 0A       		.uleb128 0xa
 4701 0377 04       		.byte	0x4
 4702 0378 7C030000 		.4byte	0x37c
 4703 037c 0C       		.uleb128 0xc
 4704 037d 87030000 		.4byte	0x387
 4705 0381 0D       		.uleb128 0xd
 4706 0382 87030000 		.4byte	0x387
 4707 0386 00       		.byte	0
 4708 0387 0E       		.uleb128 0xe
 4709 0388 04       		.byte	0x4
 4710 0389 03       		.uleb128 0x3
 4711 038a 35080000 		.4byte	.LASF70
 4712 038e 08       		.byte	0x8
 4713 038f 61       		.byte	0x61
 4714 0390 94030000 		.4byte	0x394
 4715 0394 0B       		.uleb128 0xb
 4716 0395 A4190000 		.4byte	.LASF71
 4717 0399 14       		.byte	0x14
 4718 039a 09       		.byte	0x9
 4719 039b 6B01     		.2byte	0x16b
 4720 039d E3030000 		.4byte	0x3e3
 4721 03a1 09       		.uleb128 0x9
 4722 03a2 4B080000 		.4byte	.LASF72
 4723 03a6 09       		.byte	0x9
 4724 03a7 6C01     		.2byte	0x16c
 4725 03a9 5B080000 		.4byte	0x85b
 4726 03ad 00       		.byte	0
 4727 03ae 09       		.uleb128 0x9
 4728 03af BA050000 		.4byte	.LASF73
 4729 03b3 09       		.byte	0x9
 4730 03b4 6D01     		.2byte	0x16d
 4731 03b6 5B080000 		.4byte	0x85b
 4732 03ba 04       		.byte	0x4
 4733 03bb 09       		.uleb128 0x9
 4734 03bc 570F0000 		.4byte	.LASF74
 4735 03c0 09       		.byte	0x9
 4736 03c1 6E01     		.2byte	0x16e
 4737 03c3 84010000 		.4byte	0x184
 4738 03c7 08       		.byte	0x8
 4739 03c8 09       		.uleb128 0x9
 4740 03c9 55190000 		.4byte	.LASF75
 4741 03cd 09       		.byte	0x9
 4742 03ce 6F01     		.2byte	0x16f
 4743 03d0 6B030000 		.4byte	0x36b
 4744 03d4 0C       		.byte	0xc
 4745 03d5 09       		.uleb128 0x9
 4746 03d6 A0060000 		.4byte	.LASF76
 4747 03da 09       		.byte	0x9
 4748 03db 7101     		.2byte	0x171
 4749 03dd 87030000 		.4byte	0x387
 4750 03e1 10       		.byte	0x10
 4751 03e2 00       		.byte	0
 4752 03e3 03       		.uleb128 0x3
 4753 03e4 EB1A0000 		.4byte	.LASF77
 4754 03e8 08       		.byte	0x8
 4755 03e9 66       		.byte	0x66
 4756 03ea EE030000 		.4byte	0x3ee
ARM GAS  /var/folders/47/g7cdn6zj55s1hhv4njp6x8_h0000gn/T//cc224n80.s 			page 86


 4757 03ee 0B       		.uleb128 0xb
 4758 03ef 9A020000 		.4byte	.LASF78
 4759 03f3 10       		.byte	0x10
 4760 03f4 09       		.byte	0x9
 4761 03f5 7B01     		.2byte	0x17b
 4762 03f7 30040000 		.4byte	0x430
 4763 03fb 09       		.uleb128 0x9
 4764 03fc 4B080000 		.4byte	.LASF72
 4765 0400 09       		.byte	0x9
 4766 0401 7C01     		.2byte	0x17c
 4767 0403 5B080000 		.4byte	0x85b
 4768 0407 00       		.byte	0
 4769 0408 09       		.uleb128 0x9
 4770 0409 BA050000 		.4byte	.LASF73
 4771 040d 09       		.byte	0x9
 4772 040e 7E01     		.2byte	0x17e
 4773 0410 5B080000 		.4byte	0x85b
 4774 0414 04       		.byte	0x4
 4775 0415 09       		.uleb128 0x9
 4776 0416 570F0000 		.4byte	.LASF74
 4777 041a 09       		.byte	0x9
 4778 041b 8001     		.2byte	0x180
 4779 041d 84010000 		.4byte	0x184
 4780 0421 08       		.byte	0x8
 4781 0422 09       		.uleb128 0x9
 4782 0423 BD000000 		.4byte	.LASF79
 4783 0427 09       		.byte	0x9
 4784 0428 8201     		.2byte	0x182
 4785 042a 56080000 		.4byte	0x856
 4786 042e 0C       		.byte	0xc
 4787 042f 00       		.byte	0
 4788 0430 03       		.uleb128 0x3
 4789 0431 75060000 		.4byte	.LASF80
 4790 0435 08       		.byte	0x8
 4791 0436 6B       		.byte	0x6b
 4792 0437 3B040000 		.4byte	0x43b
 4793 043b 0B       		.uleb128 0xb
 4794 043c C2170000 		.4byte	.LASF81
 4795 0440 04       		.byte	0x4
 4796 0441 09       		.byte	0x9
 4797 0442 A201     		.2byte	0x1a2
 4798 0444 56040000 		.4byte	0x456
 4799 0448 09       		.uleb128 0x9
 4800 0449 C70E0000 		.4byte	.LASF82
 4801 044d 09       		.byte	0x9
 4802 044e AA01     		.2byte	0x1aa
 4803 0450 61080000 		.4byte	0x861
 4804 0454 00       		.byte	0
 4805 0455 00       		.byte	0
 4806 0456 03       		.uleb128 0x3
 4807 0457 6D000000 		.4byte	.LASF83
 4808 045b 08       		.byte	0x8
 4809 045c 70       		.byte	0x70
 4810 045d 61040000 		.4byte	0x461
 4811 0461 0F       		.uleb128 0xf
 4812 0462 04110000 		.4byte	.LASF84
 4813 0466 5802     		.2byte	0x258
ARM GAS  /var/folders/47/g7cdn6zj55s1hhv4njp6x8_h0000gn/T//cc224n80.s 			page 87


 4814 0468 09       		.byte	0x9
 4815 0469 C201     		.2byte	0x1c2
 4816 046b BD040000 		.4byte	0x4bd
 4817 046f 09       		.uleb128 0x9
 4818 0470 74030000 		.4byte	.LASF85
 4819 0474 09       		.byte	0x9
 4820 0475 C601     		.2byte	0x1c6
 4821 0477 04030000 		.4byte	0x304
 4822 047b 00       		.byte	0
 4823 047c 09       		.uleb128 0x9
 4824 047d 5D030000 		.4byte	.LASF86
 4825 0481 09       		.byte	0x9
 4826 0482 CA01     		.2byte	0x1ca
 4827 0484 E3030000 		.4byte	0x3e3
 4828 0488 1C       		.byte	0x1c
 4829 0489 08       		.uleb128 0x8
 4830 048a 64626700 		.ascii	"dbg\000"
 4831 048e 09       		.byte	0x9
 4832 048f CE01     		.2byte	0x1ce
 4833 0491 30040000 		.4byte	0x430
 4834 0495 2C       		.byte	0x2c
 4835 0496 09       		.uleb128 0x9
 4836 0497 CB110000 		.4byte	.LASF87
 4837 049b 09       		.byte	0x9
 4838 049c D201     		.2byte	0x1d2
 4839 049e 8F010000 		.4byte	0x18f
 4840 04a2 30       		.byte	0x30
 4841 04a3 08       		.uleb128 0x8
 4842 04a4 746D00   		.ascii	"tm\000"
 4843 04a7 09       		.byte	0x9
 4844 04a8 D701     		.2byte	0x1d7
 4845 04aa 74070000 		.4byte	0x774
 4846 04ae 78       		.byte	0x78
 4847 04af 09       		.uleb128 0x9
 4848 04b0 46190000 		.4byte	.LASF88
 4849 04b4 09       		.byte	0x9
 4850 04b5 E301     		.2byte	0x1e3
 4851 04b7 66080000 		.4byte	0x866
 4852 04bb 80       		.byte	0x80
 4853 04bc 00       		.byte	0
 4854 04bd 02       		.uleb128 0x2
 4855 04be 04       		.byte	0x4
 4856 04bf 07       		.byte	0x7
 4857 04c0 600F0000 		.4byte	.LASF89
 4858 04c4 10       		.uleb128 0x10
 4859 04c5 54       		.byte	0x54
 4860 04c6 0A       		.byte	0xa
 4861 04c7 EC02     		.2byte	0x2ec
 4862 04c9 DD050000 		.4byte	0x5dd
 4863 04cd 08       		.uleb128 0x8
 4864 04ce 43523100 		.ascii	"CR1\000"
 4865 04d2 0A       		.byte	0xa
 4866 04d3 EE02     		.2byte	0x2ee
 4867 04d5 1C010000 		.4byte	0x11c
 4868 04d9 00       		.byte	0
 4869 04da 08       		.uleb128 0x8
 4870 04db 43523200 		.ascii	"CR2\000"
ARM GAS  /var/folders/47/g7cdn6zj55s1hhv4njp6x8_h0000gn/T//cc224n80.s 			page 88


 4871 04df 0A       		.byte	0xa
 4872 04e0 EF02     		.2byte	0x2ef
 4873 04e2 1C010000 		.4byte	0x11c
 4874 04e6 04       		.byte	0x4
 4875 04e7 09       		.uleb128 0x9
 4876 04e8 5D190000 		.4byte	.LASF90
 4877 04ec 0A       		.byte	0xa
 4878 04ed F002     		.2byte	0x2f0
 4879 04ef 1C010000 		.4byte	0x11c
 4880 04f3 08       		.byte	0x8
 4881 04f4 09       		.uleb128 0x9
 4882 04f5 95060000 		.4byte	.LASF91
 4883 04f9 0A       		.byte	0xa
 4884 04fa F102     		.2byte	0x2f1
 4885 04fc 1C010000 		.4byte	0x11c
 4886 0500 0C       		.byte	0xc
 4887 0501 08       		.uleb128 0x8
 4888 0502 535200   		.ascii	"SR\000"
 4889 0505 0A       		.byte	0xa
 4890 0506 F202     		.2byte	0x2f2
 4891 0508 1C010000 		.4byte	0x11c
 4892 050c 10       		.byte	0x10
 4893 050d 08       		.uleb128 0x8
 4894 050e 45475200 		.ascii	"EGR\000"
 4895 0512 0A       		.byte	0xa
 4896 0513 F302     		.2byte	0x2f3
 4897 0515 1C010000 		.4byte	0x11c
 4898 0519 14       		.byte	0x14
 4899 051a 09       		.uleb128 0x9
 4900 051b 8B1E0000 		.4byte	.LASF92
 4901 051f 0A       		.byte	0xa
 4902 0520 F402     		.2byte	0x2f4
 4903 0522 1C010000 		.4byte	0x11c
 4904 0526 18       		.byte	0x18
 4905 0527 09       		.uleb128 0x9
 4906 0528 911E0000 		.4byte	.LASF93
 4907 052c 0A       		.byte	0xa
 4908 052d F502     		.2byte	0x2f5
 4909 052f 1C010000 		.4byte	0x11c
 4910 0533 1C       		.byte	0x1c
 4911 0534 09       		.uleb128 0x9
 4912 0535 93040000 		.4byte	.LASF94
 4913 0539 0A       		.byte	0xa
 4914 053a F602     		.2byte	0x2f6
 4915 053c 1C010000 		.4byte	0x11c
 4916 0540 20       		.byte	0x20
 4917 0541 08       		.uleb128 0x8
 4918 0542 434E5400 		.ascii	"CNT\000"
 4919 0546 0A       		.byte	0xa
 4920 0547 F702     		.2byte	0x2f7
 4921 0549 1C010000 		.4byte	0x11c
 4922 054d 24       		.byte	0x24
 4923 054e 08       		.uleb128 0x8
 4924 054f 50534300 		.ascii	"PSC\000"
 4925 0553 0A       		.byte	0xa
 4926 0554 F802     		.2byte	0x2f8
 4927 0556 1C010000 		.4byte	0x11c
ARM GAS  /var/folders/47/g7cdn6zj55s1hhv4njp6x8_h0000gn/T//cc224n80.s 			page 89


 4928 055a 28       		.byte	0x28
 4929 055b 08       		.uleb128 0x8
 4930 055c 41525200 		.ascii	"ARR\000"
 4931 0560 0A       		.byte	0xa
 4932 0561 F902     		.2byte	0x2f9
 4933 0563 1C010000 		.4byte	0x11c
 4934 0567 2C       		.byte	0x2c
 4935 0568 08       		.uleb128 0x8
 4936 0569 52435200 		.ascii	"RCR\000"
 4937 056d 0A       		.byte	0xa
 4938 056e FA02     		.2byte	0x2fa
 4939 0570 1C010000 		.4byte	0x11c
 4940 0574 30       		.byte	0x30
 4941 0575 09       		.uleb128 0x9
 4942 0576 CB0A0000 		.4byte	.LASF95
 4943 057a 0A       		.byte	0xa
 4944 057b FB02     		.2byte	0x2fb
 4945 057d 1C010000 		.4byte	0x11c
 4946 0581 34       		.byte	0x34
 4947 0582 09       		.uleb128 0x9
 4948 0583 D00A0000 		.4byte	.LASF96
 4949 0587 0A       		.byte	0xa
 4950 0588 FC02     		.2byte	0x2fc
 4951 058a 1C010000 		.4byte	0x11c
 4952 058e 38       		.byte	0x38
 4953 058f 09       		.uleb128 0x9
 4954 0590 D50A0000 		.4byte	.LASF97
 4955 0594 0A       		.byte	0xa
 4956 0595 FD02     		.2byte	0x2fd
 4957 0597 1C010000 		.4byte	0x11c
 4958 059b 3C       		.byte	0x3c
 4959 059c 09       		.uleb128 0x9
 4960 059d DA0A0000 		.4byte	.LASF98
 4961 05a1 0A       		.byte	0xa
 4962 05a2 FE02     		.2byte	0x2fe
 4963 05a4 1C010000 		.4byte	0x11c
 4964 05a8 40       		.byte	0x40
 4965 05a9 09       		.uleb128 0x9
 4966 05aa F3000000 		.4byte	.LASF99
 4967 05ae 0A       		.byte	0xa
 4968 05af FF02     		.2byte	0x2ff
 4969 05b1 1C010000 		.4byte	0x11c
 4970 05b5 44       		.byte	0x44
 4971 05b6 08       		.uleb128 0x8
 4972 05b7 44435200 		.ascii	"DCR\000"
 4973 05bb 0A       		.byte	0xa
 4974 05bc 0003     		.2byte	0x300
 4975 05be 1C010000 		.4byte	0x11c
 4976 05c2 48       		.byte	0x48
 4977 05c3 09       		.uleb128 0x9
 4978 05c4 F6100000 		.4byte	.LASF100
 4979 05c8 0A       		.byte	0xa
 4980 05c9 0103     		.2byte	0x301
 4981 05cb 1C010000 		.4byte	0x11c
 4982 05cf 4C       		.byte	0x4c
 4983 05d0 08       		.uleb128 0x8
 4984 05d1 4F5200   		.ascii	"OR\000"
ARM GAS  /var/folders/47/g7cdn6zj55s1hhv4njp6x8_h0000gn/T//cc224n80.s 			page 90


 4985 05d4 0A       		.byte	0xa
 4986 05d5 0203     		.2byte	0x302
 4987 05d7 1C010000 		.4byte	0x11c
 4988 05db 50       		.byte	0x50
 4989 05dc 00       		.byte	0
 4990 05dd 11       		.uleb128 0x11
 4991 05de 850D0000 		.4byte	.LASF101
 4992 05e2 0A       		.byte	0xa
 4993 05e3 0303     		.2byte	0x303
 4994 05e5 C4040000 		.4byte	0x4c4
 4995 05e9 03       		.uleb128 0x3
 4996 05ea 0D130000 		.4byte	.LASF102
 4997 05ee 0B       		.byte	0xb
 4998 05ef 65       		.byte	0x65
 4999 05f0 87030000 		.4byte	0x387
 5000 05f4 03       		.uleb128 0x3
 5001 05f5 AF050000 		.4byte	.LASF103
 5002 05f9 0B       		.byte	0xb
 5003 05fa 6D       		.byte	0x6d
 5004 05fb 01010000 		.4byte	0x101
 5005 05ff 06       		.uleb128 0x6
 5006 0600 29120000 		.4byte	.LASF104
 5007 0604 04       		.byte	0x4
 5008 0605 0B       		.byte	0xb
 5009 0606 89       		.byte	0x89
 5010 0607 18060000 		.4byte	0x618
 5011 060b 12       		.uleb128 0x12
 5012 060c 72313300 		.ascii	"r13\000"
 5013 0610 0B       		.byte	0xb
 5014 0611 8A       		.byte	0x8a
 5015 0612 59070000 		.4byte	0x759
 5016 0616 00       		.byte	0
 5017 0617 00       		.byte	0
 5018 0618 06       		.uleb128 0x6
 5019 0619 00000000 		.4byte	.LASF105
 5020 061d 64       		.byte	0x64
 5021 061e 0C       		.byte	0xc
 5022 061f F4       		.byte	0xf4
 5023 0620 59070000 		.4byte	0x759
 5024 0624 12       		.uleb128 0x12
 5025 0625 73313600 		.ascii	"s16\000"
 5026 0629 0C       		.byte	0xc
 5027 062a F6       		.byte	0xf6
 5028 062b E9050000 		.4byte	0x5e9
 5029 062f 00       		.byte	0
 5030 0630 12       		.uleb128 0x12
 5031 0631 73313700 		.ascii	"s17\000"
 5032 0635 0C       		.byte	0xc
 5033 0636 F7       		.byte	0xf7
 5034 0637 E9050000 		.4byte	0x5e9
 5035 063b 04       		.byte	0x4
 5036 063c 12       		.uleb128 0x12
 5037 063d 73313800 		.ascii	"s18\000"
 5038 0641 0C       		.byte	0xc
 5039 0642 F8       		.byte	0xf8
 5040 0643 E9050000 		.4byte	0x5e9
 5041 0647 08       		.byte	0x8
ARM GAS  /var/folders/47/g7cdn6zj55s1hhv4njp6x8_h0000gn/T//cc224n80.s 			page 91


 5042 0648 12       		.uleb128 0x12
 5043 0649 73313900 		.ascii	"s19\000"
 5044 064d 0C       		.byte	0xc
 5045 064e F9       		.byte	0xf9
 5046 064f E9050000 		.4byte	0x5e9
 5047 0653 0C       		.byte	0xc
 5048 0654 12       		.uleb128 0x12
 5049 0655 73323000 		.ascii	"s20\000"
 5050 0659 0C       		.byte	0xc
 5051 065a FA       		.byte	0xfa
 5052 065b E9050000 		.4byte	0x5e9
 5053 065f 10       		.byte	0x10
 5054 0660 12       		.uleb128 0x12
 5055 0661 73323100 		.ascii	"s21\000"
 5056 0665 0C       		.byte	0xc
 5057 0666 FB       		.byte	0xfb
 5058 0667 E9050000 		.4byte	0x5e9
 5059 066b 14       		.byte	0x14
 5060 066c 12       		.uleb128 0x12
 5061 066d 73323200 		.ascii	"s22\000"
 5062 0671 0C       		.byte	0xc
 5063 0672 FC       		.byte	0xfc
 5064 0673 E9050000 		.4byte	0x5e9
 5065 0677 18       		.byte	0x18
 5066 0678 12       		.uleb128 0x12
 5067 0679 73323300 		.ascii	"s23\000"
 5068 067d 0C       		.byte	0xc
 5069 067e FD       		.byte	0xfd
 5070 067f E9050000 		.4byte	0x5e9
 5071 0683 1C       		.byte	0x1c
 5072 0684 12       		.uleb128 0x12
 5073 0685 73323400 		.ascii	"s24\000"
 5074 0689 0C       		.byte	0xc
 5075 068a FE       		.byte	0xfe
 5076 068b E9050000 		.4byte	0x5e9
 5077 068f 20       		.byte	0x20
 5078 0690 12       		.uleb128 0x12
 5079 0691 73323500 		.ascii	"s25\000"
 5080 0695 0C       		.byte	0xc
 5081 0696 FF       		.byte	0xff
 5082 0697 E9050000 		.4byte	0x5e9
 5083 069b 24       		.byte	0x24
 5084 069c 08       		.uleb128 0x8
 5085 069d 73323600 		.ascii	"s26\000"
 5086 06a1 0C       		.byte	0xc
 5087 06a2 0001     		.2byte	0x100
 5088 06a4 E9050000 		.4byte	0x5e9
 5089 06a8 28       		.byte	0x28
 5090 06a9 08       		.uleb128 0x8
 5091 06aa 73323700 		.ascii	"s27\000"
 5092 06ae 0C       		.byte	0xc
 5093 06af 0101     		.2byte	0x101
 5094 06b1 E9050000 		.4byte	0x5e9
 5095 06b5 2C       		.byte	0x2c
 5096 06b6 08       		.uleb128 0x8
 5097 06b7 73323800 		.ascii	"s28\000"
 5098 06bb 0C       		.byte	0xc
ARM GAS  /var/folders/47/g7cdn6zj55s1hhv4njp6x8_h0000gn/T//cc224n80.s 			page 92


 5099 06bc 0201     		.2byte	0x102
 5100 06be E9050000 		.4byte	0x5e9
 5101 06c2 30       		.byte	0x30
 5102 06c3 08       		.uleb128 0x8
 5103 06c4 73323900 		.ascii	"s29\000"
 5104 06c8 0C       		.byte	0xc
 5105 06c9 0301     		.2byte	0x103
 5106 06cb E9050000 		.4byte	0x5e9
 5107 06cf 34       		.byte	0x34
 5108 06d0 08       		.uleb128 0x8
 5109 06d1 73333000 		.ascii	"s30\000"
 5110 06d5 0C       		.byte	0xc
 5111 06d6 0401     		.2byte	0x104
 5112 06d8 E9050000 		.4byte	0x5e9
 5113 06dc 38       		.byte	0x38
 5114 06dd 08       		.uleb128 0x8
 5115 06de 73333100 		.ascii	"s31\000"
 5116 06e2 0C       		.byte	0xc
 5117 06e3 0501     		.2byte	0x105
 5118 06e5 E9050000 		.4byte	0x5e9
 5119 06e9 3C       		.byte	0x3c
 5120 06ea 08       		.uleb128 0x8
 5121 06eb 723400   		.ascii	"r4\000"
 5122 06ee 0C       		.byte	0xc
 5123 06ef 0701     		.2byte	0x107
 5124 06f1 E9050000 		.4byte	0x5e9
 5125 06f5 40       		.byte	0x40
 5126 06f6 08       		.uleb128 0x8
 5127 06f7 723500   		.ascii	"r5\000"
 5128 06fa 0C       		.byte	0xc
 5129 06fb 0801     		.2byte	0x108
 5130 06fd E9050000 		.4byte	0x5e9
 5131 0701 44       		.byte	0x44
 5132 0702 08       		.uleb128 0x8
 5133 0703 723600   		.ascii	"r6\000"
 5134 0706 0C       		.byte	0xc
 5135 0707 0901     		.2byte	0x109
 5136 0709 E9050000 		.4byte	0x5e9
 5137 070d 48       		.byte	0x48
 5138 070e 08       		.uleb128 0x8
 5139 070f 723700   		.ascii	"r7\000"
 5140 0712 0C       		.byte	0xc
 5141 0713 0A01     		.2byte	0x10a
 5142 0715 E9050000 		.4byte	0x5e9
 5143 0719 4C       		.byte	0x4c
 5144 071a 08       		.uleb128 0x8
 5145 071b 723800   		.ascii	"r8\000"
 5146 071e 0C       		.byte	0xc
 5147 071f 0B01     		.2byte	0x10b
 5148 0721 E9050000 		.4byte	0x5e9
 5149 0725 50       		.byte	0x50
 5150 0726 08       		.uleb128 0x8
 5151 0727 723900   		.ascii	"r9\000"
 5152 072a 0C       		.byte	0xc
 5153 072b 0C01     		.2byte	0x10c
 5154 072d E9050000 		.4byte	0x5e9
 5155 0731 54       		.byte	0x54
ARM GAS  /var/folders/47/g7cdn6zj55s1hhv4njp6x8_h0000gn/T//cc224n80.s 			page 93


 5156 0732 08       		.uleb128 0x8
 5157 0733 72313000 		.ascii	"r10\000"
 5158 0737 0C       		.byte	0xc
 5159 0738 0D01     		.2byte	0x10d
 5160 073a E9050000 		.4byte	0x5e9
 5161 073e 58       		.byte	0x58
 5162 073f 08       		.uleb128 0x8
 5163 0740 72313100 		.ascii	"r11\000"
 5164 0744 0C       		.byte	0xc
 5165 0745 0E01     		.2byte	0x10e
 5166 0747 E9050000 		.4byte	0x5e9
 5167 074b 5C       		.byte	0x5c
 5168 074c 08       		.uleb128 0x8
 5169 074d 6C7200   		.ascii	"lr\000"
 5170 0750 0C       		.byte	0xc
 5171 0751 0F01     		.2byte	0x10f
 5172 0753 E9050000 		.4byte	0x5e9
 5173 0757 60       		.byte	0x60
 5174 0758 00       		.byte	0
 5175 0759 0A       		.uleb128 0xa
 5176 075a 04       		.byte	0x4
 5177 075b 18060000 		.4byte	0x618
 5178 075f 13       		.uleb128 0x13
 5179 0760 04       		.byte	0x4
 5180 0761 0D       		.byte	0xd
 5181 0762 38       		.byte	0x38
 5182 0763 74070000 		.4byte	0x774
 5183 0767 07       		.uleb128 0x7
 5184 0768 02190000 		.4byte	.LASF106
 5185 076c 0D       		.byte	0xd
 5186 076d 3C       		.byte	0x3c
 5187 076e 21010000 		.4byte	0x121
 5188 0772 00       		.byte	0
 5189 0773 00       		.byte	0
 5190 0774 03       		.uleb128 0x3
 5191 0775 D61C0000 		.4byte	.LASF107
 5192 0779 0D       		.byte	0xd
 5193 077a 3D       		.byte	0x3d
 5194 077b 5F070000 		.4byte	0x75f
 5195 077f 14       		.uleb128 0x14
 5196 0780 04       		.byte	0x4
 5197 0781 09       		.byte	0x9
 5198 0782 FA       		.byte	0xfa
 5199 0783 DC070000 		.4byte	0x7dc
 5200 0787 15       		.uleb128 0x15
 5201 0788 460B0000 		.4byte	.LASF108
 5202 078c 09       		.byte	0x9
 5203 078d 0101     		.2byte	0x101
 5204 078f 63010000 		.4byte	0x163
 5205 0793 15       		.uleb128 0x15
 5206 0794 86090000 		.4byte	.LASF109
 5207 0798 09       		.byte	0x9
 5208 0799 0801     		.2byte	0x108
 5209 079b 63010000 		.4byte	0x163
 5210 079f 15       		.uleb128 0x15
 5211 07a0 E1160000 		.4byte	.LASF110
 5212 07a4 09       		.byte	0x9
ARM GAS  /var/folders/47/g7cdn6zj55s1hhv4njp6x8_h0000gn/T//cc224n80.s 			page 94


 5213 07a5 0F01     		.2byte	0x10f
 5214 07a7 87030000 		.4byte	0x387
 5215 07ab 15       		.uleb128 0x15
 5216 07ac 23120000 		.4byte	.LASF111
 5217 07b0 09       		.byte	0x9
 5218 07b1 1601     		.2byte	0x116
 5219 07b3 DC070000 		.4byte	0x7dc
 5220 07b7 15       		.uleb128 0x15
 5221 07b8 83000000 		.4byte	.LASF112
 5222 07bc 09       		.byte	0x9
 5223 07bd 1E01     		.2byte	0x11e
 5224 07bf 07080000 		.4byte	0x807
 5225 07c3 15       		.uleb128 0x15
 5226 07c4 F3160000 		.4byte	.LASF113
 5227 07c8 09       		.byte	0x9
 5228 07c9 2701     		.2byte	0x127
 5229 07cb 3E080000 		.4byte	0x83e
 5230 07cf 15       		.uleb128 0x15
 5231 07d0 BD190000 		.4byte	.LASF114
 5232 07d4 09       		.byte	0x9
 5233 07d5 2F01     		.2byte	0x12f
 5234 07d7 6E010000 		.4byte	0x16e
 5235 07db 00       		.byte	0
 5236 07dc 0A       		.uleb128 0xa
 5237 07dd 04       		.byte	0x4
 5238 07de 9F020000 		.4byte	0x29f
 5239 07e2 06       		.uleb128 0x6
 5240 07e3 1C110000 		.4byte	.LASF115
 5241 07e7 0C       		.byte	0xc
 5242 07e8 0E       		.byte	0xe
 5243 07e9 34       		.byte	0x34
 5244 07ea 07080000 		.4byte	0x807
 5245 07ee 07       		.uleb128 0x7
 5246 07ef 661B0000 		.4byte	.LASF116
 5247 07f3 0E       		.byte	0xe
 5248 07f4 35       		.byte	0x35
 5249 07f5 D4020000 		.4byte	0x2d4
 5250 07f9 00       		.byte	0
 5251 07fa 07       		.uleb128 0x7
 5252 07fb 03060000 		.4byte	.LASF117
 5253 07ff 0E       		.byte	0xe
 5254 0800 37       		.byte	0x37
 5255 0801 79010000 		.4byte	0x179
 5256 0805 08       		.byte	0x8
 5257 0806 00       		.byte	0
 5258 0807 0A       		.uleb128 0xa
 5259 0808 04       		.byte	0x4
 5260 0809 E2070000 		.4byte	0x7e2
 5261 080d 06       		.uleb128 0x6
 5262 080e BF070000 		.4byte	.LASF118
 5263 0812 10       		.byte	0x10
 5264 0813 0F       		.byte	0xf
 5265 0814 39       		.byte	0x39
 5266 0815 3E080000 		.4byte	0x83e
 5267 0819 07       		.uleb128 0x7
 5268 081a D6110000 		.4byte	.LASF119
 5269 081e 0F       		.byte	0xf
ARM GAS  /var/folders/47/g7cdn6zj55s1hhv4njp6x8_h0000gn/T//cc224n80.s 			page 95


 5270 081f 3A       		.byte	0x3a
 5271 0820 D4020000 		.4byte	0x2d4
 5272 0824 00       		.byte	0
 5273 0825 07       		.uleb128 0x7
 5274 0826 C2100000 		.4byte	.LASF120
 5275 082a 0F       		.byte	0xf
 5276 082b 3C       		.byte	0x3c
 5277 082c AA020000 		.4byte	0x2aa
 5278 0830 08       		.byte	0x8
 5279 0831 07       		.uleb128 0x7
 5280 0832 C8000000 		.4byte	.LASF121
 5281 0836 0F       		.byte	0xf
 5282 0837 3E       		.byte	0x3e
 5283 0838 8C080000 		.4byte	0x88c
 5284 083c 0C       		.byte	0xc
 5285 083d 00       		.byte	0
 5286 083e 0A       		.uleb128 0xa
 5287 083f 04       		.byte	0x4
 5288 0840 0D080000 		.4byte	0x80d
 5289 0844 0A       		.uleb128 0xa
 5290 0845 04       		.byte	0x4
 5291 0846 4A080000 		.4byte	0x84a
 5292 084a 16       		.uleb128 0x16
 5293 084b 4F080000 		.4byte	0x84f
 5294 084f 02       		.uleb128 0x2
 5295 0850 01       		.byte	0x1
 5296 0851 08       		.byte	0x8
 5297 0852 F7130000 		.4byte	.LASF122
 5298 0856 05       		.uleb128 0x5
 5299 0857 84010000 		.4byte	0x184
 5300 085b 0A       		.uleb128 0xa
 5301 085c 04       		.byte	0x4
 5302 085d 89030000 		.4byte	0x389
 5303 0861 05       		.uleb128 0x5
 5304 0862 44080000 		.4byte	0x844
 5305 0866 17       		.uleb128 0x17
 5306 0867 F4050000 		.4byte	0x5f4
 5307 086b 76080000 		.4byte	0x876
 5308 086f 18       		.uleb128 0x18
 5309 0870 BD040000 		.4byte	0x4bd
 5310 0874 3A       		.byte	0x3a
 5311 0875 00       		.byte	0
 5312 0876 03       		.uleb128 0x3
 5313 0877 C7040000 		.4byte	.LASF123
 5314 087b 10       		.byte	0x10
 5315 087c 34       		.byte	0x34
 5316 087d 76030000 		.4byte	0x376
 5317 0881 03       		.uleb128 0x3
 5318 0882 0D180000 		.4byte	.LASF124
 5319 0886 0F       		.byte	0xf
 5320 0887 34       		.byte	0x34
 5321 0888 0D080000 		.4byte	0x80d
 5322 088c 0A       		.uleb128 0xa
 5323 088d 04       		.byte	0x4
 5324 088e 81080000 		.4byte	0x881
 5325 0892 0A       		.uleb128 0xa
 5326 0893 04       		.byte	0x4
ARM GAS  /var/folders/47/g7cdn6zj55s1hhv4njp6x8_h0000gn/T//cc224n80.s 			page 96


 5327 0894 CA000000 		.4byte	0xca
 5328 0898 19       		.uleb128 0x19
 5329 0899 01       		.byte	0x1
 5330 089a 11       		.byte	0x11
 5331 089b 21       		.byte	0x21
 5332 089c B9080000 		.4byte	0x8b9
 5333 08a0 1A       		.uleb128 0x1a
 5334 08a1 1F1C0000 		.4byte	.LASF125
 5335 08a5 00       		.sleb128 0
 5336 08a6 1A       		.uleb128 0x1a
 5337 08a7 00020000 		.4byte	.LASF126
 5338 08ab 01       		.sleb128 1
 5339 08ac 1A       		.uleb128 0x1a
 5340 08ad 450E0000 		.4byte	.LASF127
 5341 08b1 02       		.sleb128 2
 5342 08b2 1A       		.uleb128 0x1a
 5343 08b3 F5020000 		.4byte	.LASF128
 5344 08b7 03       		.sleb128 3
 5345 08b8 00       		.byte	0
 5346 08b9 03       		.uleb128 0x3
 5347 08ba BA140000 		.4byte	.LASF129
 5348 08be 11       		.byte	0x11
 5349 08bf 26       		.byte	0x26
 5350 08c0 98080000 		.4byte	0x898
 5351 08c4 19       		.uleb128 0x19
 5352 08c5 01       		.byte	0x1
 5353 08c6 11       		.byte	0x11
 5354 08c7 28       		.byte	0x28
 5355 08c8 DF080000 		.4byte	0x8df
 5356 08cc 1A       		.uleb128 0x1a
 5357 08cd 011B0000 		.4byte	.LASF130
 5358 08d1 00       		.sleb128 0
 5359 08d2 1A       		.uleb128 0x1a
 5360 08d3 CA130000 		.4byte	.LASF131
 5361 08d7 01       		.sleb128 1
 5362 08d8 1A       		.uleb128 0x1a
 5363 08d9 09030000 		.4byte	.LASF132
 5364 08dd 02       		.sleb128 2
 5365 08de 00       		.byte	0
 5366 08df 03       		.uleb128 0x3
 5367 08e0 1A030000 		.4byte	.LASF133
 5368 08e4 11       		.byte	0x11
 5369 08e5 2C       		.byte	0x2c
 5370 08e6 C4080000 		.4byte	0x8c4
 5371 08ea 19       		.uleb128 0x19
 5372 08eb 01       		.byte	0x1
 5373 08ec 11       		.byte	0x11
 5374 08ed 2E       		.byte	0x2e
 5375 08ee FF080000 		.4byte	0x8ff
 5376 08f2 1A       		.uleb128 0x1a
 5377 08f3 DE110000 		.4byte	.LASF134
 5378 08f7 00       		.sleb128 0
 5379 08f8 1A       		.uleb128 0x1a
 5380 08f9 F41F0000 		.4byte	.LASF135
 5381 08fd 01       		.sleb128 1
 5382 08fe 00       		.byte	0
 5383 08ff 03       		.uleb128 0x3
ARM GAS  /var/folders/47/g7cdn6zj55s1hhv4njp6x8_h0000gn/T//cc224n80.s 			page 97


 5384 0900 7D1A0000 		.4byte	.LASF136
 5385 0904 11       		.byte	0x11
 5386 0905 31       		.byte	0x31
 5387 0906 EA080000 		.4byte	0x8ea
 5388 090a 19       		.uleb128 0x19
 5389 090b 01       		.byte	0x1
 5390 090c 11       		.byte	0x11
 5391 090d 33       		.byte	0x33
 5392 090e 25090000 		.4byte	0x925
 5393 0912 1A       		.uleb128 0x1a
 5394 0913 65170000 		.4byte	.LASF137
 5395 0917 00       		.sleb128 0
 5396 0918 1A       		.uleb128 0x1a
 5397 0919 CE070000 		.4byte	.LASF138
 5398 091d 01       		.sleb128 1
 5399 091e 1A       		.uleb128 0x1a
 5400 091f 72080000 		.4byte	.LASF139
 5401 0923 02       		.sleb128 2
 5402 0924 00       		.byte	0
 5403 0925 03       		.uleb128 0x3
 5404 0926 B3110000 		.4byte	.LASF140
 5405 092a 11       		.byte	0x11
 5406 092b 37       		.byte	0x37
 5407 092c 0A090000 		.4byte	0x90a
 5408 0930 19       		.uleb128 0x19
 5409 0931 01       		.byte	0x1
 5410 0932 11       		.byte	0x11
 5411 0933 39       		.byte	0x39
 5412 0934 4B090000 		.4byte	0x94b
 5413 0938 1A       		.uleb128 0x1a
 5414 0939 65110000 		.4byte	.LASF141
 5415 093d 00       		.sleb128 0
 5416 093e 1A       		.uleb128 0x1a
 5417 093f 98040000 		.4byte	.LASF142
 5418 0943 01       		.sleb128 1
 5419 0944 1A       		.uleb128 0x1a
 5420 0945 D6180000 		.4byte	.LASF143
 5421 0949 02       		.sleb128 2
 5422 094a 00       		.byte	0
 5423 094b 03       		.uleb128 0x3
 5424 094c 971E0000 		.4byte	.LASF144
 5425 0950 11       		.byte	0x11
 5426 0951 3D       		.byte	0x3d
 5427 0952 30090000 		.4byte	0x930
 5428 0956 19       		.uleb128 0x19
 5429 0957 01       		.byte	0x1
 5430 0958 11       		.byte	0x11
 5431 0959 3F       		.byte	0x3f
 5432 095a 71090000 		.4byte	0x971
 5433 095e 1A       		.uleb128 0x1a
 5434 095f 571F0000 		.4byte	.LASF145
 5435 0963 00       		.sleb128 0
 5436 0964 1A       		.uleb128 0x1a
 5437 0965 240E0000 		.4byte	.LASF146
 5438 0969 01       		.sleb128 1
 5439 096a 1A       		.uleb128 0x1a
 5440 096b B00A0000 		.4byte	.LASF147
ARM GAS  /var/folders/47/g7cdn6zj55s1hhv4njp6x8_h0000gn/T//cc224n80.s 			page 98


 5441 096f 02       		.sleb128 2
 5442 0970 00       		.byte	0
 5443 0971 03       		.uleb128 0x3
 5444 0972 FA160000 		.4byte	.LASF148
 5445 0976 11       		.byte	0x11
 5446 0977 43       		.byte	0x43
 5447 0978 56090000 		.4byte	0x956
 5448 097c 19       		.uleb128 0x19
 5449 097d 01       		.byte	0x1
 5450 097e 11       		.byte	0x11
 5451 097f 45       		.byte	0x45
 5452 0980 AF090000 		.4byte	0x9af
 5453 0984 1A       		.uleb128 0x1a
 5454 0985 01160000 		.4byte	.LASF149
 5455 0989 00       		.sleb128 0
 5456 098a 1A       		.uleb128 0x1a
 5457 098b FF0A0000 		.4byte	.LASF150
 5458 098f 01       		.sleb128 1
 5459 0990 1A       		.uleb128 0x1a
 5460 0991 A4150000 		.4byte	.LASF151
 5461 0995 02       		.sleb128 2
 5462 0996 1A       		.uleb128 0x1a
 5463 0997 C3180000 		.4byte	.LASF152
 5464 099b 03       		.sleb128 3
 5465 099c 1A       		.uleb128 0x1a
 5466 099d 14070000 		.4byte	.LASF153
 5467 09a1 04       		.sleb128 4
 5468 09a2 1A       		.uleb128 0x1a
 5469 09a3 D5020000 		.4byte	.LASF154
 5470 09a7 05       		.sleb128 5
 5471 09a8 1A       		.uleb128 0x1a
 5472 09a9 70100000 		.4byte	.LASF155
 5473 09ad 06       		.sleb128 6
 5474 09ae 00       		.byte	0
 5475 09af 03       		.uleb128 0x3
 5476 09b0 751B0000 		.4byte	.LASF156
 5477 09b4 11       		.byte	0x11
 5478 09b5 4D       		.byte	0x4d
 5479 09b6 7C090000 		.4byte	0x97c
 5480 09ba 19       		.uleb128 0x19
 5481 09bb 01       		.byte	0x1
 5482 09bc 11       		.byte	0x11
 5483 09bd 62       		.byte	0x62
 5484 09be D5090000 		.4byte	0x9d5
 5485 09c2 1A       		.uleb128 0x1a
 5486 09c3 45110000 		.4byte	.LASF157
 5487 09c7 00       		.sleb128 0
 5488 09c8 1A       		.uleb128 0x1a
 5489 09c9 B8080000 		.4byte	.LASF158
 5490 09cd 01       		.sleb128 1
 5491 09ce 1A       		.uleb128 0x1a
 5492 09cf 2C090000 		.4byte	.LASF159
 5493 09d3 02       		.sleb128 2
 5494 09d4 00       		.byte	0
 5495 09d5 03       		.uleb128 0x3
 5496 09d6 7A1E0000 		.4byte	.LASF160
 5497 09da 11       		.byte	0x11
ARM GAS  /var/folders/47/g7cdn6zj55s1hhv4njp6x8_h0000gn/T//cc224n80.s 			page 99


 5498 09db 66       		.byte	0x66
 5499 09dc BA090000 		.4byte	0x9ba
 5500 09e0 1B       		.uleb128 0x1b
 5501 09e1 3401     		.2byte	0x134
 5502 09e3 11       		.byte	0x11
 5503 09e4 72       		.byte	0x72
 5504 09e5 AB0D0000 		.4byte	0xdab
 5505 09e9 07       		.uleb128 0x7
 5506 09ea BD0C0000 		.4byte	.LASF161
 5507 09ee 11       		.byte	0x11
 5508 09ef 74       		.byte	0x74
 5509 09f0 DF080000 		.4byte	0x8df
 5510 09f4 00       		.byte	0
 5511 09f5 07       		.uleb128 0x7
 5512 09f6 CF060000 		.4byte	.LASF162
 5513 09fa 11       		.byte	0x11
 5514 09fb 75       		.byte	0x75
 5515 09fc FF080000 		.4byte	0x8ff
 5516 0a00 01       		.byte	0x1
 5517 0a01 07       		.uleb128 0x7
 5518 0a02 E40C0000 		.4byte	.LASF163
 5519 0a06 11       		.byte	0x11
 5520 0a07 76       		.byte	0x76
 5521 0a08 71090000 		.4byte	0x971
 5522 0a0c 02       		.byte	0x2
 5523 0a0d 07       		.uleb128 0x7
 5524 0a0e 59170000 		.4byte	.LASF164
 5525 0a12 11       		.byte	0x11
 5526 0a13 77       		.byte	0x77
 5527 0a14 25090000 		.4byte	0x925
 5528 0a18 03       		.byte	0x3
 5529 0a19 07       		.uleb128 0x7
 5530 0a1a 0E110000 		.4byte	.LASF165
 5531 0a1e 11       		.byte	0x11
 5532 0a1f 79       		.byte	0x79
 5533 0a20 25000000 		.4byte	0x25
 5534 0a24 04       		.byte	0x4
 5535 0a25 07       		.uleb128 0x7
 5536 0a26 69150000 		.4byte	.LASF166
 5537 0a2a 11       		.byte	0x11
 5538 0a2b 7A       		.byte	0x7a
 5539 0a2c 25000000 		.4byte	0x25
 5540 0a30 08       		.byte	0x8
 5541 0a31 07       		.uleb128 0x7
 5542 0a32 561C0000 		.4byte	.LASF167
 5543 0a36 11       		.byte	0x11
 5544 0a37 7B       		.byte	0x7b
 5545 0a38 25000000 		.4byte	0x25
 5546 0a3c 0C       		.byte	0xc
 5547 0a3d 07       		.uleb128 0x7
 5548 0a3e E2000000 		.4byte	.LASF168
 5549 0a42 11       		.byte	0x11
 5550 0a43 7C       		.byte	0x7c
 5551 0a44 25000000 		.4byte	0x25
 5552 0a48 10       		.byte	0x10
 5553 0a49 07       		.uleb128 0x7
 5554 0a4a 1E000000 		.4byte	.LASF169
ARM GAS  /var/folders/47/g7cdn6zj55s1hhv4njp6x8_h0000gn/T//cc224n80.s 			page 100


 5555 0a4e 11       		.byte	0x11
 5556 0a4f 7D       		.byte	0x7d
 5557 0a50 25000000 		.4byte	0x25
 5558 0a54 14       		.byte	0x14
 5559 0a55 07       		.uleb128 0x7
 5560 0a56 75010000 		.4byte	.LASF170
 5561 0a5a 11       		.byte	0x11
 5562 0a5b 7E       		.byte	0x7e
 5563 0a5c 25000000 		.4byte	0x25
 5564 0a60 18       		.byte	0x18
 5565 0a61 07       		.uleb128 0x7
 5566 0a62 E70F0000 		.4byte	.LASF171
 5567 0a66 11       		.byte	0x11
 5568 0a67 7F       		.byte	0x7f
 5569 0a68 25000000 		.4byte	0x25
 5570 0a6c 1C       		.byte	0x1c
 5571 0a6d 07       		.uleb128 0x7
 5572 0a6e 0C000000 		.4byte	.LASF172
 5573 0a72 11       		.byte	0x11
 5574 0a73 80       		.byte	0x80
 5575 0a74 25000000 		.4byte	0x25
 5576 0a78 20       		.byte	0x20
 5577 0a79 07       		.uleb128 0x7
 5578 0a7a D61B0000 		.4byte	.LASF173
 5579 0a7e 11       		.byte	0x11
 5580 0a7f 81       		.byte	0x81
 5581 0a80 25000000 		.4byte	0x25
 5582 0a84 24       		.byte	0x24
 5583 0a85 07       		.uleb128 0x7
 5584 0a86 460A0000 		.4byte	.LASF174
 5585 0a8a 11       		.byte	0x11
 5586 0a8b 82       		.byte	0x82
 5587 0a8c 25000000 		.4byte	0x25
 5588 0a90 28       		.byte	0x28
 5589 0a91 07       		.uleb128 0x7
 5590 0a92 7C090000 		.4byte	.LASF175
 5591 0a96 11       		.byte	0x11
 5592 0a97 83       		.byte	0x83
 5593 0a98 25000000 		.4byte	0x25
 5594 0a9c 2C       		.byte	0x2c
 5595 0a9d 07       		.uleb128 0x7
 5596 0a9e FC090000 		.4byte	.LASF176
 5597 0aa2 11       		.byte	0x11
 5598 0aa3 84       		.byte	0x84
 5599 0aa4 25000000 		.4byte	0x25
 5600 0aa8 30       		.byte	0x30
 5601 0aa9 07       		.uleb128 0x7
 5602 0aaa 280A0000 		.4byte	.LASF177
 5603 0aae 11       		.byte	0x11
 5604 0aaf 85       		.byte	0x85
 5605 0ab0 25000000 		.4byte	0x25
 5606 0ab4 34       		.byte	0x34
 5607 0ab5 07       		.uleb128 0x7
 5608 0ab6 CF000000 		.4byte	.LASF178
 5609 0aba 11       		.byte	0x11
 5610 0abb 86       		.byte	0x86
 5611 0abc AB0D0000 		.4byte	0xdab
ARM GAS  /var/folders/47/g7cdn6zj55s1hhv4njp6x8_h0000gn/T//cc224n80.s 			page 101


 5612 0ac0 38       		.byte	0x38
 5613 0ac1 07       		.uleb128 0x7
 5614 0ac2 FF060000 		.4byte	.LASF179
 5615 0ac6 11       		.byte	0x11
 5616 0ac7 87       		.byte	0x87
 5617 0ac8 AB0D0000 		.4byte	0xdab
 5618 0acc 39       		.byte	0x39
 5619 0acd 07       		.uleb128 0x7
 5620 0ace 84060000 		.4byte	.LASF180
 5621 0ad2 11       		.byte	0x11
 5622 0ad3 88       		.byte	0x88
 5623 0ad4 25000000 		.4byte	0x25
 5624 0ad8 3C       		.byte	0x3c
 5625 0ad9 07       		.uleb128 0x7
 5626 0ada 2C020000 		.4byte	.LASF181
 5627 0ade 11       		.byte	0x11
 5628 0adf 89       		.byte	0x89
 5629 0ae0 25000000 		.4byte	0x25
 5630 0ae4 40       		.byte	0x40
 5631 0ae5 07       		.uleb128 0x7
 5632 0ae6 3B0C0000 		.4byte	.LASF182
 5633 0aea 11       		.byte	0x11
 5634 0aeb 8A       		.byte	0x8a
 5635 0aec 25000000 		.4byte	0x25
 5636 0af0 44       		.byte	0x44
 5637 0af1 07       		.uleb128 0x7
 5638 0af2 3B170000 		.4byte	.LASF183
 5639 0af6 11       		.byte	0x11
 5640 0af7 8B       		.byte	0x8b
 5641 0af8 25000000 		.4byte	0x25
 5642 0afc 48       		.byte	0x48
 5643 0afd 07       		.uleb128 0x7
 5644 0afe 6F1E0000 		.4byte	.LASF184
 5645 0b02 11       		.byte	0x11
 5646 0b03 8C       		.byte	0x8c
 5647 0b04 25000000 		.4byte	0x25
 5648 0b08 4C       		.byte	0x4c
 5649 0b09 07       		.uleb128 0x7
 5650 0b0a 5A0B0000 		.4byte	.LASF185
 5651 0b0e 11       		.byte	0x11
 5652 0b0f 8D       		.byte	0x8d
 5653 0b10 25000000 		.4byte	0x25
 5654 0b14 50       		.byte	0x50
 5655 0b15 07       		.uleb128 0x7
 5656 0b16 85080000 		.4byte	.LASF186
 5657 0b1a 11       		.byte	0x11
 5658 0b1b 8F       		.byte	0x8f
 5659 0b1c 25000000 		.4byte	0x25
 5660 0b20 54       		.byte	0x54
 5661 0b21 07       		.uleb128 0x7
 5662 0b22 EF0C0000 		.4byte	.LASF187
 5663 0b26 11       		.byte	0x11
 5664 0b27 90       		.byte	0x90
 5665 0b28 25000000 		.4byte	0x25
 5666 0b2c 58       		.byte	0x58
 5667 0b2d 07       		.uleb128 0x7
 5668 0b2e 8D180000 		.4byte	.LASF188
ARM GAS  /var/folders/47/g7cdn6zj55s1hhv4njp6x8_h0000gn/T//cc224n80.s 			page 102


 5669 0b32 11       		.byte	0x11
 5670 0b33 91       		.byte	0x91
 5671 0b34 25000000 		.4byte	0x25
 5672 0b38 5C       		.byte	0x5c
 5673 0b39 07       		.uleb128 0x7
 5674 0b3a 081D0000 		.4byte	.LASF189
 5675 0b3e 11       		.byte	0x11
 5676 0b3f 92       		.byte	0x92
 5677 0b40 25000000 		.4byte	0x25
 5678 0b44 60       		.byte	0x60
 5679 0b45 07       		.uleb128 0x7
 5680 0b46 BF0A0000 		.4byte	.LASF190
 5681 0b4a 11       		.byte	0x11
 5682 0b4b 94       		.byte	0x94
 5683 0b4c 25000000 		.4byte	0x25
 5684 0b50 64       		.byte	0x64
 5685 0b51 07       		.uleb128 0x7
 5686 0b52 89030000 		.4byte	.LASF191
 5687 0b56 11       		.byte	0x11
 5688 0b57 95       		.byte	0x95
 5689 0b58 25000000 		.4byte	0x25
 5690 0b5c 68       		.byte	0x68
 5691 0b5d 07       		.uleb128 0x7
 5692 0b5e FE0C0000 		.4byte	.LASF192
 5693 0b62 11       		.byte	0x11
 5694 0b63 96       		.byte	0x96
 5695 0b64 25000000 		.4byte	0x25
 5696 0b68 6C       		.byte	0x6c
 5697 0b69 07       		.uleb128 0x7
 5698 0b6a AD0E0000 		.4byte	.LASF193
 5699 0b6e 11       		.byte	0x11
 5700 0b6f 97       		.byte	0x97
 5701 0b70 25000000 		.4byte	0x25
 5702 0b74 70       		.byte	0x70
 5703 0b75 07       		.uleb128 0x7
 5704 0b76 4E0C0000 		.4byte	.LASF194
 5705 0b7a 11       		.byte	0x11
 5706 0b7b 98       		.byte	0x98
 5707 0b7c 25000000 		.4byte	0x25
 5708 0b80 74       		.byte	0x74
 5709 0b81 07       		.uleb128 0x7
 5710 0b82 1A1A0000 		.4byte	.LASF195
 5711 0b86 11       		.byte	0x11
 5712 0b87 99       		.byte	0x99
 5713 0b88 25000000 		.4byte	0x25
 5714 0b8c 78       		.byte	0x78
 5715 0b8d 07       		.uleb128 0x7
 5716 0b8e 23140000 		.4byte	.LASF196
 5717 0b92 11       		.byte	0x11
 5718 0b93 9A       		.byte	0x9a
 5719 0b94 25000000 		.4byte	0x25
 5720 0b98 7C       		.byte	0x7c
 5721 0b99 07       		.uleb128 0x7
 5722 0b9a 910D0000 		.4byte	.LASF197
 5723 0b9e 11       		.byte	0x11
 5724 0b9f 9C       		.byte	0x9c
 5725 0ba0 B20D0000 		.4byte	0xdb2
ARM GAS  /var/folders/47/g7cdn6zj55s1hhv4njp6x8_h0000gn/T//cc224n80.s 			page 103


 5726 0ba4 80       		.byte	0x80
 5727 0ba5 07       		.uleb128 0x7
 5728 0ba6 1A160000 		.4byte	.LASF198
 5729 0baa 11       		.byte	0x11
 5730 0bab 9D       		.byte	0x9d
 5731 0bac 25000000 		.4byte	0x25
 5732 0bb0 88       		.byte	0x88
 5733 0bb1 07       		.uleb128 0x7
 5734 0bb2 B4030000 		.4byte	.LASF199
 5735 0bb6 11       		.byte	0x11
 5736 0bb7 9F       		.byte	0x9f
 5737 0bb8 25000000 		.4byte	0x25
 5738 0bbc 8C       		.byte	0x8c
 5739 0bbd 07       		.uleb128 0x7
 5740 0bbe A5030000 		.4byte	.LASF200
 5741 0bc2 11       		.byte	0x11
 5742 0bc3 A0       		.byte	0xa0
 5743 0bc4 25000000 		.4byte	0x25
 5744 0bc8 90       		.byte	0x90
 5745 0bc9 07       		.uleb128 0x7
 5746 0bca 26060000 		.4byte	.LASF201
 5747 0bce 11       		.byte	0x11
 5748 0bcf A1       		.byte	0xa1
 5749 0bd0 25000000 		.4byte	0x25
 5750 0bd4 94       		.byte	0x94
 5751 0bd5 07       		.uleb128 0x7
 5752 0bd6 19190000 		.4byte	.LASF202
 5753 0bda 11       		.byte	0x11
 5754 0bdb A2       		.byte	0xa2
 5755 0bdc 25000000 		.4byte	0x25
 5756 0be0 98       		.byte	0x98
 5757 0be1 07       		.uleb128 0x7
 5758 0be2 AB010000 		.4byte	.LASF203
 5759 0be6 11       		.byte	0x11
 5760 0be7 A3       		.byte	0xa3
 5761 0be8 25000000 		.4byte	0x25
 5762 0bec 9C       		.byte	0x9c
 5763 0bed 07       		.uleb128 0x7
 5764 0bee 94080000 		.4byte	.LASF204
 5765 0bf2 11       		.byte	0x11
 5766 0bf3 A4       		.byte	0xa4
 5767 0bf4 AB0D0000 		.4byte	0xdab
 5768 0bf8 A0       		.byte	0xa0
 5769 0bf9 07       		.uleb128 0x7
 5770 0bfa A5120000 		.4byte	.LASF205
 5771 0bfe 11       		.byte	0x11
 5772 0bff A5       		.byte	0xa5
 5773 0c00 25000000 		.4byte	0x25
 5774 0c04 A4       		.byte	0xa4
 5775 0c05 07       		.uleb128 0x7
 5776 0c06 97050000 		.4byte	.LASF206
 5777 0c0a 11       		.byte	0x11
 5778 0c0b A6       		.byte	0xa6
 5779 0c0c 25000000 		.4byte	0x25
 5780 0c10 A8       		.byte	0xa8
 5781 0c11 07       		.uleb128 0x7
 5782 0c12 A3050000 		.4byte	.LASF207
ARM GAS  /var/folders/47/g7cdn6zj55s1hhv4njp6x8_h0000gn/T//cc224n80.s 			page 104


 5783 0c16 11       		.byte	0x11
 5784 0c17 A7       		.byte	0xa7
 5785 0c18 25000000 		.4byte	0x25
 5786 0c1c AC       		.byte	0xac
 5787 0c1d 07       		.uleb128 0x7
 5788 0c1e 810E0000 		.4byte	.LASF208
 5789 0c22 11       		.byte	0x11
 5790 0c23 A8       		.byte	0xa8
 5791 0c24 25000000 		.4byte	0x25
 5792 0c28 B0       		.byte	0xb0
 5793 0c29 07       		.uleb128 0x7
 5794 0c2a 30070000 		.4byte	.LASF209
 5795 0c2e 11       		.byte	0x11
 5796 0c2f A9       		.byte	0xa9
 5797 0c30 25000000 		.4byte	0x25
 5798 0c34 B4       		.byte	0xb4
 5799 0c35 07       		.uleb128 0x7
 5800 0c36 A6160000 		.4byte	.LASF210
 5801 0c3a 11       		.byte	0x11
 5802 0c3b AA       		.byte	0xaa
 5803 0c3c 25000000 		.4byte	0x25
 5804 0c40 B8       		.byte	0xb8
 5805 0c41 07       		.uleb128 0x7
 5806 0c42 89160000 		.4byte	.LASF211
 5807 0c46 11       		.byte	0x11
 5808 0c47 AB       		.byte	0xab
 5809 0c48 25000000 		.4byte	0x25
 5810 0c4c BC       		.byte	0xbc
 5811 0c4d 07       		.uleb128 0x7
 5812 0c4e CA100000 		.4byte	.LASF212
 5813 0c52 11       		.byte	0x11
 5814 0c53 AC       		.byte	0xac
 5815 0c54 25000000 		.4byte	0x25
 5816 0c58 C0       		.byte	0xc0
 5817 0c59 07       		.uleb128 0x7
 5818 0c5a AD100000 		.4byte	.LASF213
 5819 0c5e 11       		.byte	0x11
 5820 0c5f AD       		.byte	0xad
 5821 0c60 25000000 		.4byte	0x25
 5822 0c64 C4       		.byte	0xc4
 5823 0c65 07       		.uleb128 0x7
 5824 0c66 60160000 		.4byte	.LASF214
 5825 0c6a 11       		.byte	0x11
 5826 0c6b AE       		.byte	0xae
 5827 0c6c 25000000 		.4byte	0x25
 5828 0c70 C8       		.byte	0xc8
 5829 0c71 07       		.uleb128 0x7
 5830 0c72 56180000 		.4byte	.LASF215
 5831 0c76 11       		.byte	0x11
 5832 0c77 AF       		.byte	0xaf
 5833 0c78 25000000 		.4byte	0x25
 5834 0c7c CC       		.byte	0xcc
 5835 0c7d 07       		.uleb128 0x7
 5836 0c7e C11C0000 		.4byte	.LASF216
 5837 0c82 11       		.byte	0x11
 5838 0c83 B0       		.byte	0xb0
 5839 0c84 25000000 		.4byte	0x25
ARM GAS  /var/folders/47/g7cdn6zj55s1hhv4njp6x8_h0000gn/T//cc224n80.s 			page 105


 5840 0c88 D0       		.byte	0xd0
 5841 0c89 07       		.uleb128 0x7
 5842 0c8a 6A0D0000 		.4byte	.LASF217
 5843 0c8e 11       		.byte	0x11
 5844 0c8f B1       		.byte	0xb1
 5845 0c90 25000000 		.4byte	0x25
 5846 0c94 D4       		.byte	0xd4
 5847 0c95 07       		.uleb128 0x7
 5848 0c96 71160000 		.4byte	.LASF218
 5849 0c9a 11       		.byte	0x11
 5850 0c9b B2       		.byte	0xb2
 5851 0c9c 25000000 		.4byte	0x25
 5852 0ca0 D8       		.byte	0xd8
 5853 0ca1 07       		.uleb128 0x7
 5854 0ca2 A6180000 		.4byte	.LASF219
 5855 0ca6 11       		.byte	0x11
 5856 0ca7 B3       		.byte	0xb3
 5857 0ca8 4B090000 		.4byte	0x94b
 5858 0cac DC       		.byte	0xdc
 5859 0cad 07       		.uleb128 0x7
 5860 0cae 810A0000 		.4byte	.LASF220
 5861 0cb2 11       		.byte	0x11
 5862 0cb3 B4       		.byte	0xb4
 5863 0cb4 C20D0000 		.4byte	0xdc2
 5864 0cb8 DD       		.byte	0xdd
 5865 0cb9 07       		.uleb128 0x7
 5866 0cba CE0B0000 		.4byte	.LASF221
 5867 0cbe 11       		.byte	0x11
 5868 0cbf B5       		.byte	0xb5
 5869 0cc0 25000000 		.4byte	0x25
 5870 0cc4 E8       		.byte	0xe8
 5871 0cc5 07       		.uleb128 0x7
 5872 0cc6 27160000 		.4byte	.LASF222
 5873 0cca 11       		.byte	0x11
 5874 0ccb B7       		.byte	0xb7
 5875 0ccc 25000000 		.4byte	0x25
 5876 0cd0 EC       		.byte	0xec
 5877 0cd1 07       		.uleb128 0x7
 5878 0cd2 11160000 		.4byte	.LASF223
 5879 0cd6 11       		.byte	0x11
 5880 0cd7 B8       		.byte	0xb8
 5881 0cd8 25000000 		.4byte	0x25
 5882 0cdc F0       		.byte	0xf0
 5883 0cdd 07       		.uleb128 0x7
 5884 0cde 3F050000 		.4byte	.LASF224
 5885 0ce2 11       		.byte	0x11
 5886 0ce3 B9       		.byte	0xb9
 5887 0ce4 25000000 		.4byte	0x25
 5888 0ce8 F4       		.byte	0xf4
 5889 0ce9 07       		.uleb128 0x7
 5890 0cea F4050000 		.4byte	.LASF225
 5891 0cee 11       		.byte	0x11
 5892 0cef BA       		.byte	0xba
 5893 0cf0 25000000 		.4byte	0x25
 5894 0cf4 F8       		.byte	0xf8
 5895 0cf5 07       		.uleb128 0x7
 5896 0cf6 95130000 		.4byte	.LASF226
ARM GAS  /var/folders/47/g7cdn6zj55s1hhv4njp6x8_h0000gn/T//cc224n80.s 			page 106


 5897 0cfa 11       		.byte	0x11
 5898 0cfb BC       		.byte	0xbc
 5899 0cfc 25000000 		.4byte	0x25
 5900 0d00 FC       		.byte	0xfc
 5901 0d01 1C       		.uleb128 0x1c
 5902 0d02 8C130000 		.4byte	.LASF227
 5903 0d06 11       		.byte	0x11
 5904 0d07 BD       		.byte	0xbd
 5905 0d08 25000000 		.4byte	0x25
 5906 0d0c 0001     		.2byte	0x100
 5907 0d0e 1C       		.uleb128 0x1c
 5908 0d0f 83130000 		.4byte	.LASF228
 5909 0d13 11       		.byte	0x11
 5910 0d14 BE       		.byte	0xbe
 5911 0d15 25000000 		.4byte	0x25
 5912 0d19 0401     		.2byte	0x104
 5913 0d1b 1C       		.uleb128 0x1c
 5914 0d1c B31C0000 		.4byte	.LASF229
 5915 0d20 11       		.byte	0x11
 5916 0d21 BF       		.byte	0xbf
 5917 0d22 25000000 		.4byte	0x25
 5918 0d26 0801     		.2byte	0x108
 5919 0d28 1C       		.uleb128 0x1c
 5920 0d29 4E010000 		.4byte	.LASF230
 5921 0d2d 11       		.byte	0x11
 5922 0d2e C1       		.byte	0xc1
 5923 0d2f 25000000 		.4byte	0x25
 5924 0d33 0C01     		.2byte	0x10c
 5925 0d35 1C       		.uleb128 0x1c
 5926 0d36 A9080000 		.4byte	.LASF231
 5927 0d3a 11       		.byte	0x11
 5928 0d3b C2       		.byte	0xc2
 5929 0d3c 25000000 		.4byte	0x25
 5930 0d40 1001     		.2byte	0x110
 5931 0d42 1C       		.uleb128 0x1c
 5932 0d43 910C0000 		.4byte	.LASF232
 5933 0d47 11       		.byte	0x11
 5934 0d48 C3       		.byte	0xc3
 5935 0d49 25000000 		.4byte	0x25
 5936 0d4d 1401     		.2byte	0x114
 5937 0d4f 1C       		.uleb128 0x1c
 5938 0d50 56130000 		.4byte	.LASF233
 5939 0d54 11       		.byte	0x11
 5940 0d55 C4       		.byte	0xc4
 5941 0d56 25000000 		.4byte	0x25
 5942 0d5a 1801     		.2byte	0x118
 5943 0d5c 1C       		.uleb128 0x1c
 5944 0d5d EA040000 		.4byte	.LASF234
 5945 0d61 11       		.byte	0x11
 5946 0d62 C6       		.byte	0xc6
 5947 0d63 EB000000 		.4byte	0xeb
 5948 0d67 1C01     		.2byte	0x11c
 5949 0d69 1C       		.uleb128 0x1c
 5950 0d6a 831B0000 		.4byte	.LASF235
 5951 0d6e 11       		.byte	0x11
 5952 0d6f C7       		.byte	0xc7
 5953 0d70 25000000 		.4byte	0x25
ARM GAS  /var/folders/47/g7cdn6zj55s1hhv4njp6x8_h0000gn/T//cc224n80.s 			page 107


 5954 0d74 2001     		.2byte	0x120
 5955 0d76 1C       		.uleb128 0x1c
 5956 0d77 3B020000 		.4byte	.LASF236
 5957 0d7b 11       		.byte	0x11
 5958 0d7c C8       		.byte	0xc8
 5959 0d7d 25000000 		.4byte	0x25
 5960 0d81 2401     		.2byte	0x124
 5961 0d83 1C       		.uleb128 0x1c
 5962 0d84 170B0000 		.4byte	.LASF237
 5963 0d88 11       		.byte	0x11
 5964 0d89 C9       		.byte	0xc9
 5965 0d8a 25000000 		.4byte	0x25
 5966 0d8e 2801     		.2byte	0x128
 5967 0d90 1C       		.uleb128 0x1c
 5968 0d91 04200000 		.4byte	.LASF238
 5969 0d95 11       		.byte	0x11
 5970 0d96 CA       		.byte	0xca
 5971 0d97 F6000000 		.4byte	0xf6
 5972 0d9b 2C01     		.2byte	0x12c
 5973 0d9d 1C       		.uleb128 0x1c
 5974 0d9e EC0A0000 		.4byte	.LASF239
 5975 0da2 11       		.byte	0x11
 5976 0da3 CB       		.byte	0xcb
 5977 0da4 D5090000 		.4byte	0x9d5
 5978 0da8 3001     		.2byte	0x130
 5979 0daa 00       		.byte	0
 5980 0dab 02       		.uleb128 0x2
 5981 0dac 01       		.byte	0x1
 5982 0dad 02       		.byte	0x2
 5983 0dae 8A000000 		.4byte	.LASF240
 5984 0db2 17       		.uleb128 0x17
 5985 0db3 BF000000 		.4byte	0xbf
 5986 0db7 C20D0000 		.4byte	0xdc2
 5987 0dbb 18       		.uleb128 0x18
 5988 0dbc BD040000 		.4byte	0x4bd
 5989 0dc0 07       		.byte	0x7
 5990 0dc1 00       		.byte	0
 5991 0dc2 17       		.uleb128 0x17
 5992 0dc3 CA000000 		.4byte	0xca
 5993 0dc7 D20D0000 		.4byte	0xdd2
 5994 0dcb 18       		.uleb128 0x18
 5995 0dcc BD040000 		.4byte	0x4bd
 5996 0dd0 07       		.byte	0x7
 5997 0dd1 00       		.byte	0
 5998 0dd2 03       		.uleb128 0x3
 5999 0dd3 941B0000 		.4byte	.LASF241
 6000 0dd7 11       		.byte	0x11
 6001 0dd8 CC       		.byte	0xcc
 6002 0dd9 E0090000 		.4byte	0x9e0
 6003 0ddd 10       		.uleb128 0x10
 6004 0dde 34       		.byte	0x34
 6005 0ddf 11       		.byte	0x11
 6006 0de0 B601     		.2byte	0x1b6
 6007 0de2 900E0000 		.4byte	0xe90
 6008 0de6 09       		.uleb128 0x9
 6009 0de7 E2140000 		.4byte	.LASF242
 6010 0deb 11       		.byte	0x11
ARM GAS  /var/folders/47/g7cdn6zj55s1hhv4njp6x8_h0000gn/T//cc224n80.s 			page 108


 6011 0dec B701     		.2byte	0x1b7
 6012 0dee AF090000 		.4byte	0x9af
 6013 0df2 00       		.byte	0
 6014 0df3 09       		.uleb128 0x9
 6015 0df4 12100000 		.4byte	.LASF243
 6016 0df8 11       		.byte	0x11
 6017 0df9 B801     		.2byte	0x1b8
 6018 0dfb 25000000 		.4byte	0x25
 6019 0dff 04       		.byte	0x4
 6020 0e00 09       		.uleb128 0x9
 6021 0e01 A21A0000 		.4byte	.LASF244
 6022 0e05 11       		.byte	0x11
 6023 0e06 B901     		.2byte	0x1b9
 6024 0e08 25000000 		.4byte	0x25
 6025 0e0c 08       		.byte	0x8
 6026 0e0d 09       		.uleb128 0x9
 6027 0e0e 85180000 		.4byte	.LASF245
 6028 0e12 11       		.byte	0x11
 6029 0e13 BA01     		.2byte	0x1ba
 6030 0e15 25000000 		.4byte	0x25
 6031 0e19 0C       		.byte	0xc
 6032 0e1a 09       		.uleb128 0x9
 6033 0e1b FC150000 		.4byte	.LASF246
 6034 0e1f 11       		.byte	0x11
 6035 0e20 BB01     		.2byte	0x1bb
 6036 0e22 25000000 		.4byte	0x25
 6037 0e26 10       		.byte	0x10
 6038 0e27 08       		.uleb128 0x8
 6039 0e28 72706D00 		.ascii	"rpm\000"
 6040 0e2c 11       		.byte	0x11
 6041 0e2d BC01     		.2byte	0x1bc
 6042 0e2f 25000000 		.4byte	0x25
 6043 0e33 14       		.byte	0x14
 6044 0e34 09       		.uleb128 0x9
 6045 0e35 9E150000 		.4byte	.LASF247
 6046 0e39 11       		.byte	0x11
 6047 0e3a BD01     		.2byte	0x1bd
 6048 0e3c B1000000 		.4byte	0xb1
 6049 0e40 18       		.byte	0x18
 6050 0e41 09       		.uleb128 0x9
 6051 0e42 2E0F0000 		.4byte	.LASF248
 6052 0e46 11       		.byte	0x11
 6053 0e47 BE01     		.2byte	0x1be
 6054 0e49 B1000000 		.4byte	0xb1
 6055 0e4d 1C       		.byte	0x1c
 6056 0e4e 09       		.uleb128 0x9
 6057 0e4f 28080000 		.4byte	.LASF249
 6058 0e53 11       		.byte	0x11
 6059 0e54 BF01     		.2byte	0x1bf
 6060 0e56 B1000000 		.4byte	0xb1
 6061 0e5a 20       		.byte	0x20
 6062 0e5b 09       		.uleb128 0x9
 6063 0e5c 8A1A0000 		.4byte	.LASF250
 6064 0e60 11       		.byte	0x11
 6065 0e61 C001     		.2byte	0x1c0
 6066 0e63 B1000000 		.4byte	0xb1
 6067 0e67 24       		.byte	0x24
ARM GAS  /var/folders/47/g7cdn6zj55s1hhv4njp6x8_h0000gn/T//cc224n80.s 			page 109


 6068 0e68 09       		.uleb128 0x9
 6069 0e69 D2170000 		.4byte	.LASF251
 6070 0e6d 11       		.byte	0x11
 6071 0e6e C101     		.2byte	0x1c1
 6072 0e70 B1000000 		.4byte	0xb1
 6073 0e74 28       		.byte	0x28
 6074 0e75 09       		.uleb128 0x9
 6075 0e76 C0130000 		.4byte	.LASF252
 6076 0e7a 11       		.byte	0x11
 6077 0e7b C201     		.2byte	0x1c2
 6078 0e7d B1000000 		.4byte	0xb1
 6079 0e81 2C       		.byte	0x2c
 6080 0e82 09       		.uleb128 0x9
 6081 0e83 81190000 		.4byte	.LASF253
 6082 0e87 11       		.byte	0x11
 6083 0e88 C301     		.2byte	0x1c3
 6084 0e8a 25000000 		.4byte	0x25
 6085 0e8e 30       		.byte	0x30
 6086 0e8f 00       		.byte	0
 6087 0e90 11       		.uleb128 0x11
 6088 0e91 391F0000 		.4byte	.LASF254
 6089 0e95 11       		.byte	0x11
 6090 0e96 C401     		.2byte	0x1c4
 6091 0e98 DD0D0000 		.4byte	0xddd
 6092 0e9c 13       		.uleb128 0x13
 6093 0e9d 04       		.byte	0x4
 6094 0e9e 12       		.byte	0x12
 6095 0e9f B3       		.byte	0xb3
 6096 0ea0 BD0E0000 		.4byte	0xebd
 6097 0ea4 12       		.uleb128 0x12
 6098 0ea5 73657400 		.ascii	"set\000"
 6099 0ea9 12       		.byte	0x12
 6100 0eaa B4       		.byte	0xb4
 6101 0eab E0000000 		.4byte	0xe0
 6102 0eaf 00       		.byte	0
 6103 0eb0 07       		.uleb128 0x7
 6104 0eb1 DC080000 		.4byte	.LASF255
 6105 0eb5 12       		.byte	0x12
 6106 0eb6 B5       		.byte	0xb5
 6107 0eb7 E0000000 		.4byte	0xe0
 6108 0ebb 02       		.byte	0x2
 6109 0ebc 00       		.byte	0
 6110 0ebd 14       		.uleb128 0x14
 6111 0ebe 04       		.byte	0x4
 6112 0ebf 12       		.byte	0x12
 6113 0ec0 B1       		.byte	0xb1
 6114 0ec1 D80E0000 		.4byte	0xed8
 6115 0ec5 1D       		.uleb128 0x1d
 6116 0ec6 5700     		.ascii	"W\000"
 6117 0ec8 12       		.byte	0x12
 6118 0ec9 B2       		.byte	0xb2
 6119 0eca F6000000 		.4byte	0xf6
 6120 0ece 1D       		.uleb128 0x1d
 6121 0ecf 4800     		.ascii	"H\000"
 6122 0ed1 12       		.byte	0x12
 6123 0ed2 B6       		.byte	0xb6
 6124 0ed3 9C0E0000 		.4byte	0xe9c
ARM GAS  /var/folders/47/g7cdn6zj55s1hhv4njp6x8_h0000gn/T//cc224n80.s 			page 110


 6125 0ed7 00       		.byte	0
 6126 0ed8 13       		.uleb128 0x13
 6127 0ed9 2C       		.byte	0x2c
 6128 0eda 12       		.byte	0x12
 6129 0edb A9       		.byte	0xa9
 6130 0edc 650F0000 		.4byte	0xf65
 6131 0ee0 07       		.uleb128 0x7
 6132 0ee1 50180000 		.4byte	.LASF256
 6133 0ee5 12       		.byte	0x12
 6134 0ee6 AB       		.byte	0xab
 6135 0ee7 1C010000 		.4byte	0x11c
 6136 0eeb 00       		.byte	0
 6137 0eec 07       		.uleb128 0x7
 6138 0eed 54020000 		.4byte	.LASF257
 6139 0ef1 12       		.byte	0x12
 6140 0ef2 AC       		.byte	0xac
 6141 0ef3 1C010000 		.4byte	0x11c
 6142 0ef7 04       		.byte	0x4
 6143 0ef8 07       		.uleb128 0x7
 6144 0ef9 F4090000 		.4byte	.LASF258
 6145 0efd 12       		.byte	0x12
 6146 0efe AD       		.byte	0xad
 6147 0eff 1C010000 		.4byte	0x11c
 6148 0f03 08       		.byte	0x8
 6149 0f04 07       		.uleb128 0x7
 6150 0f05 A7170000 		.4byte	.LASF259
 6151 0f09 12       		.byte	0x12
 6152 0f0a AE       		.byte	0xae
 6153 0f0b 1C010000 		.4byte	0x11c
 6154 0f0f 0C       		.byte	0xc
 6155 0f10 12       		.uleb128 0x12
 6156 0f11 49445200 		.ascii	"IDR\000"
 6157 0f15 12       		.byte	0x12
 6158 0f16 AF       		.byte	0xaf
 6159 0f17 1C010000 		.4byte	0x11c
 6160 0f1b 10       		.byte	0x10
 6161 0f1c 12       		.uleb128 0x12
 6162 0f1d 4F445200 		.ascii	"ODR\000"
 6163 0f21 12       		.byte	0x12
 6164 0f22 B0       		.byte	0xb0
 6165 0f23 1C010000 		.4byte	0x11c
 6166 0f27 14       		.byte	0x14
 6167 0f28 07       		.uleb128 0x7
 6168 0f29 800D0000 		.4byte	.LASF260
 6169 0f2d 12       		.byte	0x12
 6170 0f2e B7       		.byte	0xb7
 6171 0f2f 650F0000 		.4byte	0xf65
 6172 0f33 18       		.byte	0x18
 6173 0f34 07       		.uleb128 0x7
 6174 0f35 A0120000 		.4byte	.LASF261
 6175 0f39 12       		.byte	0x12
 6176 0f3a B8       		.byte	0xb8
 6177 0f3b 1C010000 		.4byte	0x11c
 6178 0f3f 1C       		.byte	0x1c
 6179 0f40 07       		.uleb128 0x7
 6180 0f41 35160000 		.4byte	.LASF262
 6181 0f45 12       		.byte	0x12
ARM GAS  /var/folders/47/g7cdn6zj55s1hhv4njp6x8_h0000gn/T//cc224n80.s 			page 111


 6182 0f46 B9       		.byte	0xb9
 6183 0f47 1C010000 		.4byte	0x11c
 6184 0f4b 20       		.byte	0x20
 6185 0f4c 07       		.uleb128 0x7
 6186 0f4d 30160000 		.4byte	.LASF263
 6187 0f51 12       		.byte	0x12
 6188 0f52 BA       		.byte	0xba
 6189 0f53 1C010000 		.4byte	0x11c
 6190 0f57 24       		.byte	0x24
 6191 0f58 12       		.uleb128 0x12
 6192 0f59 42525200 		.ascii	"BRR\000"
 6193 0f5d 12       		.byte	0x12
 6194 0f5e BB       		.byte	0xbb
 6195 0f5f 1C010000 		.4byte	0x11c
 6196 0f63 28       		.byte	0x28
 6197 0f64 00       		.byte	0
 6198 0f65 05       		.uleb128 0x5
 6199 0f66 BD0E0000 		.4byte	0xebd
 6200 0f6a 03       		.uleb128 0x3
 6201 0f6b 390B0000 		.4byte	.LASF264
 6202 0f6f 12       		.byte	0x12
 6203 0f70 BC       		.byte	0xbc
 6204 0f71 D80E0000 		.4byte	0xed8
 6205 0f75 0A       		.uleb128 0xa
 6206 0f76 04       		.byte	0x4
 6207 0f77 7B0F0000 		.4byte	0xf7b
 6208 0f7b 1E       		.uleb128 0x1e
 6209 0f7c 02       		.uleb128 0x2
 6210 0f7d 08       		.byte	0x8
 6211 0f7e 04       		.byte	0x4
 6212 0f7f 08170000 		.4byte	.LASF265
 6213 0f83 02       		.uleb128 0x2
 6214 0f84 08       		.byte	0x8
 6215 0f85 04       		.byte	0x4
 6216 0f86 01130000 		.4byte	.LASF266
 6217 0f8a 1F       		.uleb128 0x1f
 6218 0f8b 2C1C0000 		.4byte	.LASF271
 6219 0f8f 03       		.byte	0x3
 6220 0f90 2002     		.2byte	0x220
 6221 0f92 03       		.byte	0x3
 6222 0f93 A40F0000 		.4byte	0xfa4
 6223 0f97 20       		.uleb128 0x20
 6224 0f98 C8070000 		.4byte	.LASF273
 6225 0f9c 03       		.byte	0x3
 6226 0f9d 2002     		.2byte	0x220
 6227 0f9f F6000000 		.4byte	0xf6
 6228 0fa3 00       		.byte	0
 6229 0fa4 21       		.uleb128 0x21
 6230 0fa5 F7120000 		.4byte	.LASF267
 6231 0fa9 0C       		.byte	0xc
 6232 0faa BC01     		.2byte	0x1bc
 6233 0fac 03       		.byte	0x3
 6234 0fad 21       		.uleb128 0x21
 6235 0fae 29110000 		.4byte	.LASF268
 6236 0fb2 0C       		.byte	0xc
 6237 0fb3 CA01     		.2byte	0x1ca
 6238 0fb5 03       		.byte	0x3
ARM GAS  /var/folders/47/g7cdn6zj55s1hhv4njp6x8_h0000gn/T//cc224n80.s 			page 112


 6239 0fb6 21       		.uleb128 0x21
 6240 0fb7 EF0E0000 		.4byte	.LASF269
 6241 0fbb 0C       		.byte	0xc
 6242 0fbc D901     		.2byte	0x1d9
 6243 0fbe 03       		.byte	0x3
 6244 0fbf 21       		.uleb128 0x21
 6245 0fc0 980E0000 		.4byte	.LASF270
 6246 0fc4 0C       		.byte	0xc
 6247 0fc5 E401     		.2byte	0x1e4
 6248 0fc7 03       		.byte	0x3
 6249 0fc8 22       		.uleb128 0x22
 6250 0fc9 33190000 		.4byte	.LASF272
 6251 0fcd 02       		.byte	0x2
 6252 0fce 84       		.byte	0x84
 6253 0fcf 03       		.byte	0x3
 6254 0fd0 E00F0000 		.4byte	0xfe0
 6255 0fd4 23       		.uleb128 0x23
 6256 0fd5 E61A0000 		.4byte	.LASF274
 6257 0fd9 02       		.byte	0x2
 6258 0fda 84       		.byte	0x84
 6259 0fdb 44080000 		.4byte	0x844
 6260 0fdf 00       		.byte	0
 6261 0fe0 24       		.uleb128 0x24
 6262 0fe1 C3140000 		.4byte	.LASF473
 6263 0fe5 10       		.byte	0x10
 6264 0fe6 AE       		.byte	0xae
 6265 0fe7 AA020000 		.4byte	0x2aa
 6266 0feb 03       		.byte	0x3
 6267 0fec 25       		.uleb128 0x25
 6268 0fed 420D0000 		.4byte	.LASF396
 6269 0ff1 01       		.byte	0x1
 6270 0ff2 EB01     		.2byte	0x1eb
 6271 0ff4 25000000 		.4byte	0x25
 6272 0ff8 01       		.byte	0x1
 6273 0ff9 0A100000 		.4byte	0x100a
 6274 0ffd 26       		.uleb128 0x26
 6275 0ffe 72657400 		.ascii	"ret\000"
 6276 1002 01       		.byte	0x1
 6277 1003 EC01     		.2byte	0x1ec
 6278 1005 25000000 		.4byte	0x25
 6279 1009 00       		.byte	0
 6280 100a 27       		.uleb128 0x27
 6281 100b 091C0000 		.4byte	.LASF276
 6282 100f 01       		.byte	0x1
 6283 1010 2A01     		.2byte	0x12a
 6284 1012 01       		.byte	0x1
 6285 1013 24100000 		.4byte	0x1024
 6286 1017 20       		.uleb128 0x20
 6287 1018 C60C0000 		.4byte	.LASF275
 6288 101c 01       		.byte	0x1
 6289 101d 2A01     		.2byte	0x12a
 6290 101f 25000000 		.4byte	0x25
 6291 1023 00       		.byte	0
 6292 1024 27       		.uleb128 0x27
 6293 1025 9A110000 		.4byte	.LASF277
 6294 1029 01       		.byte	0x1
 6295 102a 8D01     		.2byte	0x18d
ARM GAS  /var/folders/47/g7cdn6zj55s1hhv4njp6x8_h0000gn/T//cc224n80.s 			page 113


 6296 102c 01       		.byte	0x1
 6297 102d 3E100000 		.4byte	0x103e
 6298 1031 20       		.uleb128 0x20
 6299 1032 12100000 		.4byte	.LASF243
 6300 1036 01       		.byte	0x1
 6301 1037 8D01     		.2byte	0x18d
 6302 1039 25000000 		.4byte	0x25
 6303 103d 00       		.byte	0
 6304 103e 21       		.uleb128 0x21
 6305 103f DB030000 		.4byte	.LASF278
 6306 1043 13       		.byte	0x13
 6307 1044 5A01     		.2byte	0x15a
 6308 1046 03       		.byte	0x3
 6309 1047 1F       		.uleb128 0x1f
 6310 1048 5B020000 		.4byte	.LASF279
 6311 104c 13       		.byte	0x13
 6312 104d 6601     		.2byte	0x166
 6313 104f 03       		.byte	0x3
 6314 1050 62100000 		.4byte	0x1062
 6315 1054 28       		.uleb128 0x28
 6316 1055 3F000000 		.4byte	.LASF280
 6317 1059 72100000 		.4byte	0x1072
 6318 105d 5B020000 		.4byte	.LASF279
 6319 1061 00       		.byte	0
 6320 1062 17       		.uleb128 0x17
 6321 1063 4F080000 		.4byte	0x84f
 6322 1067 72100000 		.4byte	0x1072
 6323 106b 18       		.uleb128 0x18
 6324 106c BD040000 		.4byte	0x4bd
 6325 1070 0B       		.byte	0xb
 6326 1071 00       		.byte	0
 6327 1072 16       		.uleb128 0x16
 6328 1073 62100000 		.4byte	0x1062
 6329 1077 21       		.uleb128 0x21
 6330 1078 C51B0000 		.4byte	.LASF281
 6331 107c 13       		.byte	0x13
 6332 107d 8201     		.2byte	0x182
 6333 107f 03       		.byte	0x3
 6334 1080 21       		.uleb128 0x21
 6335 1081 36140000 		.4byte	.LASF282
 6336 1085 13       		.byte	0x13
 6337 1086 9601     		.2byte	0x196
 6338 1088 03       		.byte	0x3
 6339 1089 1F       		.uleb128 0x1f
 6340 108a 8B100000 		.4byte	.LASF283
 6341 108e 01       		.byte	0x1
 6342 108f 3204     		.2byte	0x432
 6343 1091 01       		.byte	0x1
 6344 1092 C9100000 		.4byte	0x10c9
 6345 1096 20       		.uleb128 0x20
 6346 1097 1E120000 		.4byte	.LASF284
 6347 109b 01       		.byte	0x1
 6348 109c 3204     		.2byte	0x432
 6349 109e C9100000 		.4byte	0x10c9
 6350 10a2 29       		.uleb128 0x29
 6351 10a3 2F050000 		.4byte	.LASF285
 6352 10a7 01       		.byte	0x1
ARM GAS  /var/folders/47/g7cdn6zj55s1hhv4njp6x8_h0000gn/T//cc224n80.s 			page 114


 6353 10a8 3304     		.2byte	0x433
 6354 10aa D4100000 		.4byte	0x10d4
 6355 10ae 29       		.uleb128 0x29
 6356 10af B60F0000 		.4byte	.LASF286
 6357 10b3 01       		.byte	0x1
 6358 10b4 3404     		.2byte	0x434
 6359 10b6 D4100000 		.4byte	0x10d4
 6360 10ba 2A       		.uleb128 0x2a
 6361 10bb 29       		.uleb128 0x29
 6362 10bc 8E040000 		.4byte	.LASF287
 6363 10c0 01       		.byte	0x1
 6364 10c1 3F04     		.2byte	0x43f
 6365 10c3 25000000 		.4byte	0x25
 6366 10c7 00       		.byte	0
 6367 10c8 00       		.byte	0
 6368 10c9 0A       		.uleb128 0xa
 6369 10ca 04       		.byte	0x4
 6370 10cb CF100000 		.4byte	0x10cf
 6371 10cf 05       		.uleb128 0x5
 6372 10d0 D20D0000 		.4byte	0xdd2
 6373 10d4 16       		.uleb128 0x16
 6374 10d5 25000000 		.4byte	0x25
 6375 10d9 2B       		.uleb128 0x2b
 6376 10da 3D180000 		.4byte	.LASF341
 6377 10de 01       		.byte	0x1
 6378 10df 7604     		.2byte	0x476
 6379 10e1 00000000 		.4byte	.LFB305
 6380 10e5 30010000 		.4byte	.LFE305-.LFB305
 6381 10e9 01       		.uleb128 0x1
 6382 10ea 9C       		.byte	0x9c
 6383 10eb 8A110000 		.4byte	0x118a
 6384 10ef 2C       		.uleb128 0x2c
 6385 10f0 61726700 		.ascii	"arg\000"
 6386 10f4 01       		.byte	0x1
 6387 10f5 7604     		.2byte	0x476
 6388 10f7 87030000 		.4byte	0x387
 6389 10fb 00000000 		.4byte	.LLST0
 6390 10ff 2D       		.uleb128 0x2d
 6391 1100 C80F0000 		.4byte	0xfc8
 6392 1104 04000000 		.4byte	.LBB65
 6393 1108 00000000 		.4byte	.Ldebug_ranges0+0
 6394 110c 01       		.byte	0x1
 6395 110d 7904     		.2byte	0x479
 6396 110f 20110000 		.4byte	0x1120
 6397 1113 2E       		.uleb128 0x2e
 6398 1114 D40F0000 		.4byte	0xfd4
 6399 1118 06       		.uleb128 0x6
 6400 1119 03       		.byte	0x3
 6401 111a 00000000 		.4byte	.LC0
 6402 111e 9F       		.byte	0x9f
 6403 111f 00       		.byte	0
 6404 1120 2F       		.uleb128 0x2f
 6405 1121 30000000 		.4byte	.LBB69
 6406 1125 00010000 		.4byte	.LBE69-.LBB69
 6407 1129 7A110000 		.4byte	0x117a
 6408 112d 30       		.uleb128 0x30
 6409 112e 6900     		.ascii	"i\000"
ARM GAS  /var/folders/47/g7cdn6zj55s1hhv4njp6x8_h0000gn/T//cc224n80.s 			page 115


 6410 1130 01       		.byte	0x1
 6411 1131 8004     		.2byte	0x480
 6412 1133 B1000000 		.4byte	0xb1
 6413 1137 21000000 		.4byte	.LLST1
 6414 113b 31       		.uleb128 0x31
 6415 113c 3A000000 		.4byte	.LBB70
 6416 1140 B2000000 		.4byte	.LBE70-.LBB70
 6417 1144 32       		.uleb128 0x32
 6418 1145 97150000 		.4byte	.LASF288
 6419 1149 01       		.byte	0x1
 6420 114a 8104     		.2byte	0x481
 6421 114c 8A110000 		.4byte	0x118a
 6422 1150 02       		.uleb128 0x2
 6423 1151 91       		.byte	0x91
 6424 1152 44       		.sleb128 -60
 6425 1153 33       		.uleb128 0x33
 6426 1154 6E030000 		.4byte	.LASF289
 6427 1158 01       		.byte	0x1
 6428 1159 8204     		.2byte	0x482
 6429 115b B1000000 		.4byte	0xb1
 6430 115f 58000000 		.4byte	.LLST2
 6431 1163 34       		.uleb128 0x34
 6432 1164 EC000000 		.4byte	.LVL10
 6433 1168 90250000 		.4byte	0x2590
 6434 116c 35       		.uleb128 0x35
 6435 116d 01       		.uleb128 0x1
 6436 116e 51       		.byte	0x51
 6437 116f 01       		.uleb128 0x1
 6438 1170 41       		.byte	0x41
 6439 1171 35       		.uleb128 0x35
 6440 1172 01       		.uleb128 0x1
 6441 1173 50       		.byte	0x50
 6442 1174 02       		.uleb128 0x2
 6443 1175 91       		.byte	0x91
 6444 1176 44       		.sleb128 -60
 6445 1177 00       		.byte	0
 6446 1178 00       		.byte	0
 6447 1179 00       		.byte	0
 6448 117a 34       		.uleb128 0x34
 6449 117b 30000000 		.4byte	.LVL2
 6450 117f A6250000 		.4byte	0x25a6
 6451 1183 35       		.uleb128 0x35
 6452 1184 01       		.uleb128 0x1
 6453 1185 50       		.byte	0x50
 6454 1186 01       		.uleb128 0x1
 6455 1187 31       		.byte	0x31
 6456 1188 00       		.byte	0
 6457 1189 00       		.byte	0
 6458 118a 17       		.uleb128 0x17
 6459 118b CA000000 		.4byte	0xca
 6460 118f 9A110000 		.4byte	0x119a
 6461 1193 18       		.uleb128 0x18
 6462 1194 BD040000 		.4byte	0x4bd
 6463 1198 13       		.byte	0x13
 6464 1199 00       		.byte	0
 6465 119a 36       		.uleb128 0x36
 6466 119b 671F0000 		.4byte	.LASF291
ARM GAS  /var/folders/47/g7cdn6zj55s1hhv4njp6x8_h0000gn/T//cc224n80.s 			page 116


 6467 119f 01       		.byte	0x1
 6468 11a0 5C       		.byte	0x5c
 6469 11a1 00000000 		.4byte	.LFB256
 6470 11a5 78010000 		.4byte	.LFE256-.LFB256
 6471 11a9 01       		.uleb128 0x1
 6472 11aa 9C       		.byte	0x9c
 6473 11ab 82120000 		.4byte	0x1282
 6474 11af 37       		.uleb128 0x37
 6475 11b0 E8140000 		.4byte	.LASF290
 6476 11b4 01       		.byte	0x1
 6477 11b5 5C       		.byte	0x5c
 6478 11b6 82120000 		.4byte	0x1282
 6479 11ba B4000000 		.4byte	.LLST3
 6480 11be 38       		.uleb128 0x38
 6481 11bf 28000000 		.4byte	.LVL14
 6482 11c3 BB250000 		.4byte	0x25bb
 6483 11c7 E0110000 		.4byte	0x11e0
 6484 11cb 35       		.uleb128 0x35
 6485 11cc 01       		.uleb128 0x1
 6486 11cd 52       		.byte	0x52
 6487 11ce 03       		.uleb128 0x3
 6488 11cf 0A       		.byte	0xa
 6489 11d0 3401     		.2byte	0x134
 6490 11d2 35       		.uleb128 0x35
 6491 11d3 01       		.uleb128 0x1
 6492 11d4 51       		.byte	0x51
 6493 11d5 03       		.uleb128 0x3
 6494 11d6 F3       		.byte	0xf3
 6495 11d7 01       		.uleb128 0x1
 6496 11d8 50       		.byte	0x50
 6497 11d9 35       		.uleb128 0x35
 6498 11da 01       		.uleb128 0x1
 6499 11db 50       		.byte	0x50
 6500 11dc 02       		.uleb128 0x2
 6501 11dd 75       		.byte	0x75
 6502 11de 00       		.sleb128 0
 6503 11df 00       		.byte	0
 6504 11e0 38       		.uleb128 0x38
 6505 11e1 B2000000 		.4byte	.LVL15
 6506 11e5 DF250000 		.4byte	0x25df
 6507 11e9 0D120000 		.4byte	0x120d
 6508 11ed 35       		.uleb128 0x35
 6509 11ee 01       		.uleb128 0x1
 6510 11ef 53       		.byte	0x53
 6511 11f0 05       		.uleb128 0x5
 6512 11f1 03       		.byte	0x3
 6513 11f2 00000000 		.4byte	timer_thread
 6514 11f6 35       		.uleb128 0x35
 6515 11f7 01       		.uleb128 0x1
 6516 11f8 52       		.byte	0x52
 6517 11f9 02       		.uleb128 0x2
 6518 11fa 08       		.byte	0x8
 6519 11fb 40       		.byte	0x40
 6520 11fc 35       		.uleb128 0x35
 6521 11fd 01       		.uleb128 0x1
 6522 11fe 51       		.byte	0x51
 6523 11ff 03       		.uleb128 0x3
ARM GAS  /var/folders/47/g7cdn6zj55s1hhv4njp6x8_h0000gn/T//cc224n80.s 			page 117


 6524 1200 0A       		.byte	0xa
 6525 1201 9805     		.2byte	0x598
 6526 1203 35       		.uleb128 0x35
 6527 1204 01       		.uleb128 0x1
 6528 1205 50       		.byte	0x50
 6529 1206 05       		.uleb128 0x5
 6530 1207 03       		.byte	0x3
 6531 1208 00000000 		.4byte	.LANCHOR32
 6532 120c 00       		.byte	0
 6533 120d 38       		.uleb128 0x38
 6534 120e C2000000 		.4byte	.LVL16
 6535 1212 DF250000 		.4byte	0x25df
 6536 1216 41120000 		.4byte	0x1241
 6537 121a 35       		.uleb128 0x35
 6538 121b 01       		.uleb128 0x1
 6539 121c 53       		.byte	0x53
 6540 121d 05       		.uleb128 0x5
 6541 121e 03       		.byte	0x3
 6542 121f 00000000 		.4byte	sample_send_thread
 6543 1223 35       		.uleb128 0x35
 6544 1224 01       		.uleb128 0x1
 6545 1225 52       		.byte	0x52
 6546 1226 02       		.uleb128 0x2
 6547 1227 08       		.byte	0x8
 6548 1228 3F       		.byte	0x3f
 6549 1229 35       		.uleb128 0x35
 6550 122a 01       		.uleb128 0x1
 6551 122b 51       		.byte	0x51
 6552 122c 03       		.uleb128 0x3
 6553 122d 0A       		.byte	0xa
 6554 122e 9805     		.2byte	0x598
 6555 1230 35       		.uleb128 0x35
 6556 1231 01       		.uleb128 0x1
 6557 1232 50       		.byte	0x50
 6558 1233 05       		.uleb128 0x5
 6559 1234 03       		.byte	0x3
 6560 1235 00000000 		.4byte	.LANCHOR33
 6561 1239 35       		.uleb128 0x35
 6562 123a 02       		.uleb128 0x2
 6563 123b 7D       		.byte	0x7d
 6564 123c 00       		.sleb128 0
 6565 123d 02       		.uleb128 0x2
 6566 123e 74       		.byte	0x74
 6567 123f 00       		.sleb128 0
 6568 1240 00       		.byte	0
 6569 1241 39       		.uleb128 0x39
 6570 1242 E8000000 		.4byte	.LVL17
 6571 1246 08260000 		.4byte	0x2608
 6572 124a 58120000 		.4byte	0x1258
 6573 124e 35       		.uleb128 0x35
 6574 124f 01       		.uleb128 0x1
 6575 1250 50       		.byte	0x50
 6576 1251 05       		.uleb128 0x5
 6577 1252 03       		.byte	0x3
 6578 1253 00000000 		.4byte	.LANCHOR11
 6579 1257 00       		.byte	0
 6580 1258 3A       		.uleb128 0x3a
ARM GAS  /var/folders/47/g7cdn6zj55s1hhv4njp6x8_h0000gn/T//cc224n80.s 			page 118


 6581 1259 EC000000 		.4byte	.LVL18
 6582 125d 19260000 		.4byte	0x2619
 6583 1261 39       		.uleb128 0x39
 6584 1262 00010000 		.4byte	.LVL19
 6585 1266 20260000 		.4byte	0x2620
 6586 126a 78120000 		.4byte	0x1278
 6587 126e 35       		.uleb128 0x35
 6588 126f 01       		.uleb128 0x1
 6589 1270 50       		.byte	0x50
 6590 1271 05       		.uleb128 0x5
 6591 1272 03       		.byte	0x3
 6592 1273 00000000 		.4byte	.LANCHOR11
 6593 1277 00       		.byte	0
 6594 1278 3A       		.uleb128 0x3a
 6595 1279 0E010000 		.4byte	.LVL20
 6596 127d 31260000 		.4byte	0x2631
 6597 1281 00       		.byte	0
 6598 1282 0A       		.uleb128 0xa
 6599 1283 04       		.byte	0x4
 6600 1284 D20D0000 		.4byte	0xdd2
 6601 1288 3B       		.uleb128 0x3b
 6602 1289 C4190000 		.4byte	.LASF297
 6603 128d 01       		.byte	0x1
 6604 128e 99       		.byte	0x99
 6605 128f 9D120000 		.4byte	0x129d
 6606 1293 00000000 		.4byte	.LFB257
 6607 1297 08000000 		.4byte	.LFE257-.LFB257
 6608 129b 01       		.uleb128 0x1
 6609 129c 9C       		.byte	0x9c
 6610 129d 0A       		.uleb128 0xa
 6611 129e 04       		.byte	0x4
 6612 129f A3120000 		.4byte	0x12a3
 6613 12a3 16       		.uleb128 0x16
 6614 12a4 CF100000 		.4byte	0x10cf
 6615 12a8 3C       		.uleb128 0x3c
 6616 12a9 90000000 		.4byte	.LASF299
 6617 12ad 01       		.byte	0x1
 6618 12ae D3       		.byte	0xd3
 6619 12af AB0D0000 		.4byte	0xdab
 6620 12b3 00000000 		.4byte	.LFB259
 6621 12b7 20000000 		.4byte	.LFE259-.LFB259
 6622 12bb 01       		.uleb128 0x1
 6623 12bc 9C       		.byte	0x9c
 6624 12bd E0120000 		.4byte	0x12e0
 6625 12c1 3D       		.uleb128 0x3d
 6626 12c2 72657400 		.ascii	"ret\000"
 6627 12c6 01       		.byte	0x1
 6628 12c7 D4       		.byte	0xd4
 6629 12c8 AB0D0000 		.4byte	0xdab
 6630 12cc 00       		.byte	0
 6631 12cd 3E       		.uleb128 0x3e
 6632 12ce 12000000 		.4byte	.LVL22
 6633 12d2 42260000 		.4byte	0x2642
 6634 12d6 3E       		.uleb128 0x3e
 6635 12d7 1A000000 		.4byte	.LVL23
 6636 12db 4D260000 		.4byte	0x264d
 6637 12df 00       		.byte	0
ARM GAS  /var/folders/47/g7cdn6zj55s1hhv4njp6x8_h0000gn/T//cc224n80.s 			page 119


 6638 12e0 36       		.uleb128 0x36
 6639 12e1 A7060000 		.4byte	.LASF292
 6640 12e5 01       		.byte	0x1
 6641 12e6 EC       		.byte	0xec
 6642 12e7 00000000 		.4byte	.LFB260
 6643 12eb 0C000000 		.4byte	.LFE260-.LFB260
 6644 12ef 01       		.uleb128 0x1
 6645 12f0 9C       		.byte	0x9c
 6646 12f1 03130000 		.4byte	0x1303
 6647 12f5 3F       		.uleb128 0x3f
 6648 12f6 C41E0000 		.4byte	.LASF293
 6649 12fa 01       		.byte	0x1
 6650 12fb EC       		.byte	0xec
 6651 12fc 750F0000 		.4byte	0xf75
 6652 1300 01       		.uleb128 0x1
 6653 1301 50       		.byte	0x50
 6654 1302 00       		.byte	0
 6655 1303 40       		.uleb128 0x40
 6656 1304 DA0B0000 		.4byte	.LASF294
 6657 1308 01       		.byte	0x1
 6658 1309 F3       		.byte	0xf3
 6659 130a 00000000 		.4byte	.LFB261
 6660 130e 0C000000 		.4byte	.LFE261-.LFB261
 6661 1312 01       		.uleb128 0x1
 6662 1313 9C       		.byte	0x9c
 6663 1314 40       		.uleb128 0x40
 6664 1315 88010000 		.4byte	.LASF295
 6665 1319 01       		.byte	0x1
 6666 131a FA       		.byte	0xfa
 6667 131b 00000000 		.4byte	.LFB262
 6668 131f 0C000000 		.4byte	.LFE262-.LFB262
 6669 1323 01       		.uleb128 0x1
 6670 1324 9C       		.byte	0x9c
 6671 1325 41       		.uleb128 0x41
 6672 1326 791F0000 		.4byte	.LASF296
 6673 132a 01       		.byte	0x1
 6674 132b 0101     		.2byte	0x101
 6675 132d 00000000 		.4byte	.LFB263
 6676 1331 0C000000 		.4byte	.LFE263-.LFB263
 6677 1335 01       		.uleb128 0x1
 6678 1336 9C       		.byte	0x9c
 6679 1337 42       		.uleb128 0x42
 6680 1338 940B0000 		.4byte	.LASF298
 6681 133c 01       		.byte	0x1
 6682 133d 0501     		.2byte	0x105
 6683 133f AF090000 		.4byte	0x9af
 6684 1343 00000000 		.4byte	.LFB264
 6685 1347 0C000000 		.4byte	.LFE264-.LFB264
 6686 134b 01       		.uleb128 0x1
 6687 134c 9C       		.byte	0x9c
 6688 134d 43       		.uleb128 0x43
 6689 134e 78070000 		.4byte	.LASF300
 6690 1352 01       		.byte	0x1
 6691 1353 0901     		.2byte	0x109
 6692 1355 44080000 		.4byte	0x844
 6693 1359 00000000 		.4byte	.LFB265
 6694 135d 18000000 		.4byte	.LFE265-.LFB265
ARM GAS  /var/folders/47/g7cdn6zj55s1hhv4njp6x8_h0000gn/T//cc224n80.s 			page 120


 6695 1361 01       		.uleb128 0x1
 6696 1362 9C       		.byte	0x9c
 6697 1363 78130000 		.4byte	0x1378
 6698 1367 44       		.uleb128 0x44
 6699 1368 E2140000 		.4byte	.LASF242
 6700 136c 01       		.byte	0x1
 6701 136d 0901     		.2byte	0x109
 6702 136f AF090000 		.4byte	0x9af
 6703 1373 E0000000 		.4byte	.LLST4
 6704 1377 00       		.byte	0
 6705 1378 43       		.uleb128 0x43
 6706 1379 8D190000 		.4byte	.LASF301
 6707 137d 01       		.byte	0x1
 6708 137e 1601     		.2byte	0x116
 6709 1380 B9080000 		.4byte	0x8b9
 6710 1384 00000000 		.4byte	.LFB266
 6711 1388 20000000 		.4byte	.LFE266-.LFB266
 6712 138c 01       		.uleb128 0x1
 6713 138d 9C       		.byte	0x9c
 6714 138e B2130000 		.4byte	0x13b2
 6715 1392 45       		.uleb128 0x45
 6716 1393 72657400 		.ascii	"ret\000"
 6717 1397 01       		.byte	0x1
 6718 1398 1701     		.2byte	0x117
 6719 139a B9080000 		.4byte	0x8b9
 6720 139e 00       		.byte	0
 6721 139f 3E       		.uleb128 0x3e
 6722 13a0 12000000 		.4byte	.LVL28
 6723 13a4 58260000 		.4byte	0x2658
 6724 13a8 3E       		.uleb128 0x3e
 6725 13a9 1A000000 		.4byte	.LVL29
 6726 13ad 63260000 		.4byte	0x2663
 6727 13b1 00       		.byte	0
 6728 13b2 46       		.uleb128 0x46
 6729 13b3 6C0B0000 		.4byte	.LASF302
 6730 13b7 01       		.byte	0x1
 6731 13b8 6701     		.2byte	0x167
 6732 13ba 00000000 		.4byte	.LFB270
 6733 13be 20000000 		.4byte	.LFE270-.LFB270
 6734 13c2 01       		.uleb128 0x1
 6735 13c3 9C       		.byte	0x9c
 6736 13c4 1E140000 		.4byte	0x141e
 6737 13c8 2C       		.uleb128 0x2c
 6738 13c9 6B7000   		.ascii	"kp\000"
 6739 13cc 01       		.byte	0x1
 6740 13cd 6701     		.2byte	0x167
 6741 13cf 25000000 		.4byte	0x25
 6742 13d3 01010000 		.4byte	.LLST5
 6743 13d7 2C       		.uleb128 0x2c
 6744 13d8 6B6900   		.ascii	"ki\000"
 6745 13db 01       		.byte	0x1
 6746 13dc 6701     		.2byte	0x167
 6747 13de 25000000 		.4byte	0x25
 6748 13e2 25010000 		.4byte	.LLST6
 6749 13e6 2C       		.uleb128 0x2c
 6750 13e7 6B6400   		.ascii	"kd\000"
 6751 13ea 01       		.byte	0x1
ARM GAS  /var/folders/47/g7cdn6zj55s1hhv4njp6x8_h0000gn/T//cc224n80.s 			page 121


 6752 13eb 6701     		.2byte	0x167
 6753 13ed 25000000 		.4byte	0x25
 6754 13f1 49010000 		.4byte	.LLST7
 6755 13f5 47       		.uleb128 0x47
 6756 13f6 1A000000 		.4byte	.LVL31
 6757 13fa 6E260000 		.4byte	0x266e
 6758 13fe 35       		.uleb128 0x35
 6759 13ff 02       		.uleb128 0x2
 6760 1400 90       		.byte	0x90
 6761 1401 42       		.uleb128 0x42
 6762 1402 05       		.uleb128 0x5
 6763 1403 F3       		.byte	0xf3
 6764 1404 03       		.uleb128 0x3
 6765 1405 F5       		.byte	0xf5
 6766 1406 42       		.uleb128 0x42
 6767 1407 25       		.uleb128 0x25
 6768 1408 35       		.uleb128 0x35
 6769 1409 02       		.uleb128 0x2
 6770 140a 90       		.byte	0x90
 6771 140b 41       		.uleb128 0x41
 6772 140c 05       		.uleb128 0x5
 6773 140d F3       		.byte	0xf3
 6774 140e 03       		.uleb128 0x3
 6775 140f F5       		.byte	0xf5
 6776 1410 41       		.uleb128 0x41
 6777 1411 25       		.uleb128 0x25
 6778 1412 35       		.uleb128 0x35
 6779 1413 02       		.uleb128 0x2
 6780 1414 90       		.byte	0x90
 6781 1415 40       		.uleb128 0x40
 6782 1416 05       		.uleb128 0x5
 6783 1417 F3       		.byte	0xf3
 6784 1418 03       		.uleb128 0x3
 6785 1419 F5       		.byte	0xf5
 6786 141a 40       		.uleb128 0x40
 6787 141b 25       		.uleb128 0x25
 6788 141c 00       		.byte	0
 6789 141d 00       		.byte	0
 6790 141e 43       		.uleb128 0x43
 6791 141f 77150000 		.4byte	.LASF303
 6792 1423 01       		.byte	0x1
 6793 1424 C301     		.2byte	0x1c3
 6794 1426 25000000 		.4byte	0x25
 6795 142a 00000000 		.4byte	.LFB276
 6796 142e 24000000 		.4byte	.LFE276-.LFB276
 6797 1432 01       		.uleb128 0x1
 6798 1433 9C       		.byte	0x9c
 6799 1434 5C140000 		.4byte	0x145c
 6800 1438 48       		.uleb128 0x48
 6801 1439 72657400 		.ascii	"ret\000"
 6802 143d 01       		.byte	0x1
 6803 143e C401     		.2byte	0x1c4
 6804 1440 25000000 		.4byte	0x25
 6805 1444 04       		.byte	0x4
 6806 1445 00000000 		.4byte	0
 6807 1449 3E       		.uleb128 0x3e
 6808 144a 12000000 		.4byte	.LVL33
ARM GAS  /var/folders/47/g7cdn6zj55s1hhv4njp6x8_h0000gn/T//cc224n80.s 			page 122


 6809 144e 89260000 		.4byte	0x2689
 6810 1452 3E       		.uleb128 0x3e
 6811 1453 1C000000 		.4byte	.LVL34
 6812 1457 94260000 		.4byte	0x2694
 6813 145b 00       		.byte	0
 6814 145c 43       		.uleb128 0x43
 6815 145d 900A0000 		.4byte	.LASF304
 6816 1461 01       		.byte	0x1
 6817 1462 D701     		.2byte	0x1d7
 6818 1464 25000000 		.4byte	0x25
 6819 1468 00000000 		.4byte	.LFB277
 6820 146c 24000000 		.4byte	.LFE277-.LFB277
 6821 1470 01       		.uleb128 0x1
 6822 1471 9C       		.byte	0x9c
 6823 1472 9A140000 		.4byte	0x149a
 6824 1476 48       		.uleb128 0x48
 6825 1477 72657400 		.ascii	"ret\000"
 6826 147b 01       		.byte	0x1
 6827 147c D801     		.2byte	0x1d8
 6828 147e 25000000 		.4byte	0x25
 6829 1482 04       		.byte	0x4
 6830 1483 00000000 		.4byte	0
 6831 1487 3E       		.uleb128 0x3e
 6832 1488 12000000 		.4byte	.LVL36
 6833 148c 9F260000 		.4byte	0x269f
 6834 1490 3E       		.uleb128 0x3e
 6835 1491 1C000000 		.4byte	.LVL37
 6836 1495 AA260000 		.4byte	0x26aa
 6837 1499 00       		.byte	0
 6838 149a 49       		.uleb128 0x49
 6839 149b EC0F0000 		.4byte	0xfec
 6840 149f 00000000 		.4byte	.LFB278
 6841 14a3 34000000 		.4byte	.LFE278-.LFB278
 6842 14a7 01       		.uleb128 0x1
 6843 14a8 9C       		.byte	0x9c
 6844 14a9 E0140000 		.4byte	0x14e0
 6845 14ad 4A       		.uleb128 0x4a
 6846 14ae FD0F0000 		.4byte	0xffd
 6847 14b2 6D010000 		.4byte	.LLST8
 6848 14b6 2F       		.uleb128 0x2f
 6849 14b7 10000000 		.4byte	.LBB74
 6850 14bb 0E000000 		.4byte	.LBE74-.LBB74
 6851 14bf D6140000 		.4byte	0x14d6
 6852 14c3 4A       		.uleb128 0x4a
 6853 14c4 FD0F0000 		.4byte	0xffd
 6854 14c8 A1010000 		.4byte	.LLST9
 6855 14cc 3A       		.uleb128 0x3a
 6856 14cd 14000000 		.4byte	.LVL39
 6857 14d1 B5260000 		.4byte	0x26b5
 6858 14d5 00       		.byte	0
 6859 14d6 3E       		.uleb128 0x3e
 6860 14d7 2C000000 		.4byte	.LVL44
 6861 14db C0260000 		.4byte	0x26c0
 6862 14df 00       		.byte	0
 6863 14e0 43       		.uleb128 0x43
 6864 14e1 DF090000 		.4byte	.LASF305
 6865 14e5 01       		.byte	0x1
ARM GAS  /var/folders/47/g7cdn6zj55s1hhv4njp6x8_h0000gn/T//cc224n80.s 			page 123


 6866 14e6 FF01     		.2byte	0x1ff
 6867 14e8 25000000 		.4byte	0x25
 6868 14ec 00000000 		.4byte	.LFB279
 6869 14f0 24000000 		.4byte	.LFE279-.LFB279
 6870 14f4 01       		.uleb128 0x1
 6871 14f5 9C       		.byte	0x9c
 6872 14f6 1E150000 		.4byte	0x151e
 6873 14fa 48       		.uleb128 0x48
 6874 14fb 72657400 		.ascii	"ret\000"
 6875 14ff 01       		.byte	0x1
 6876 1500 0002     		.2byte	0x200
 6877 1502 25000000 		.4byte	0x25
 6878 1506 04       		.byte	0x4
 6879 1507 00000000 		.4byte	0
 6880 150b 3E       		.uleb128 0x3e
 6881 150c 12000000 		.4byte	.LVL46
 6882 1510 CB260000 		.4byte	0x26cb
 6883 1514 3E       		.uleb128 0x3e
 6884 1515 1C000000 		.4byte	.LVL47
 6885 1519 D6260000 		.4byte	0x26d6
 6886 151d 00       		.byte	0
 6887 151e 43       		.uleb128 0x43
 6888 151f 4B1B0000 		.4byte	.LASF306
 6889 1523 01       		.byte	0x1
 6890 1524 1C02     		.2byte	0x21c
 6891 1526 25000000 		.4byte	0x25
 6892 152a 00000000 		.4byte	.LFB280
 6893 152e 20000000 		.4byte	.LFE280-.LFB280
 6894 1532 01       		.uleb128 0x1
 6895 1533 9C       		.byte	0x9c
 6896 1534 56150000 		.4byte	0x1556
 6897 1538 4B       		.uleb128 0x4b
 6898 1539 280F0000 		.4byte	.LASF307
 6899 153d 01       		.byte	0x1
 6900 153e 1C02     		.2byte	0x21c
 6901 1540 AB0D0000 		.4byte	0xdab
 6902 1544 01       		.uleb128 0x1
 6903 1545 50       		.byte	0x50
 6904 1546 4C       		.uleb128 0x4c
 6905 1547 76616C00 		.ascii	"val\000"
 6906 154b 01       		.byte	0x1
 6907 154c 1D02     		.2byte	0x21d
 6908 154e 25000000 		.4byte	0x25
 6909 1552 02       		.uleb128 0x2
 6910 1553 90       		.byte	0x90
 6911 1554 40       		.uleb128 0x40
 6912 1555 00       		.byte	0
 6913 1556 43       		.uleb128 0x43
 6914 1557 11150000 		.4byte	.LASF308
 6915 155b 01       		.byte	0x1
 6916 155c 2F02     		.2byte	0x22f
 6917 155e 25000000 		.4byte	0x25
 6918 1562 00000000 		.4byte	.LFB281
 6919 1566 20000000 		.4byte	.LFE281-.LFB281
 6920 156a 01       		.uleb128 0x1
 6921 156b 9C       		.byte	0x9c
 6922 156c 8E150000 		.4byte	0x158e
ARM GAS  /var/folders/47/g7cdn6zj55s1hhv4njp6x8_h0000gn/T//cc224n80.s 			page 124


 6923 1570 4B       		.uleb128 0x4b
 6924 1571 280F0000 		.4byte	.LASF307
 6925 1575 01       		.byte	0x1
 6926 1576 2F02     		.2byte	0x22f
 6927 1578 AB0D0000 		.4byte	0xdab
 6928 157c 01       		.uleb128 0x1
 6929 157d 50       		.byte	0x50
 6930 157e 4C       		.uleb128 0x4c
 6931 157f 76616C00 		.ascii	"val\000"
 6932 1583 01       		.byte	0x1
 6933 1584 3002     		.2byte	0x230
 6934 1586 25000000 		.4byte	0x25
 6935 158a 02       		.uleb128 0x2
 6936 158b 90       		.byte	0x90
 6937 158c 40       		.uleb128 0x40
 6938 158d 00       		.byte	0
 6939 158e 43       		.uleb128 0x43
 6940 158f 67130000 		.4byte	.LASF309
 6941 1593 01       		.byte	0x1
 6942 1594 4202     		.2byte	0x242
 6943 1596 25000000 		.4byte	0x25
 6944 159a 00000000 		.4byte	.LFB282
 6945 159e 24000000 		.4byte	.LFE282-.LFB282
 6946 15a2 01       		.uleb128 0x1
 6947 15a3 9C       		.byte	0x9c
 6948 15a4 C6150000 		.4byte	0x15c6
 6949 15a8 4B       		.uleb128 0x4b
 6950 15a9 280F0000 		.4byte	.LASF307
 6951 15ad 01       		.byte	0x1
 6952 15ae 4202     		.2byte	0x242
 6953 15b0 AB0D0000 		.4byte	0xdab
 6954 15b4 01       		.uleb128 0x1
 6955 15b5 50       		.byte	0x50
 6956 15b6 4C       		.uleb128 0x4c
 6957 15b7 76616C00 		.ascii	"val\000"
 6958 15bb 01       		.byte	0x1
 6959 15bc 4302     		.2byte	0x243
 6960 15be 25000000 		.4byte	0x25
 6961 15c2 02       		.uleb128 0x2
 6962 15c3 90       		.byte	0x90
 6963 15c4 40       		.uleb128 0x40
 6964 15c5 00       		.byte	0
 6965 15c6 43       		.uleb128 0x43
 6966 15c7 1A1D0000 		.4byte	.LASF310
 6967 15cb 01       		.byte	0x1
 6968 15cc 5502     		.2byte	0x255
 6969 15ce 25000000 		.4byte	0x25
 6970 15d2 00000000 		.4byte	.LFB283
 6971 15d6 20000000 		.4byte	.LFE283-.LFB283
 6972 15da 01       		.uleb128 0x1
 6973 15db 9C       		.byte	0x9c
 6974 15dc FE150000 		.4byte	0x15fe
 6975 15e0 4B       		.uleb128 0x4b
 6976 15e1 280F0000 		.4byte	.LASF307
 6977 15e5 01       		.byte	0x1
 6978 15e6 5502     		.2byte	0x255
 6979 15e8 AB0D0000 		.4byte	0xdab
ARM GAS  /var/folders/47/g7cdn6zj55s1hhv4njp6x8_h0000gn/T//cc224n80.s 			page 125


 6980 15ec 01       		.uleb128 0x1
 6981 15ed 50       		.byte	0x50
 6982 15ee 4C       		.uleb128 0x4c
 6983 15ef 76616C00 		.ascii	"val\000"
 6984 15f3 01       		.byte	0x1
 6985 15f4 5602     		.2byte	0x256
 6986 15f6 25000000 		.4byte	0x25
 6987 15fa 02       		.uleb128 0x2
 6988 15fb 90       		.byte	0x90
 6989 15fc 40       		.uleb128 0x40
 6990 15fd 00       		.byte	0
 6991 15fe 43       		.uleb128 0x43
 6992 15ff 50090000 		.4byte	.LASF311
 6993 1603 01       		.byte	0x1
 6994 1604 5F02     		.2byte	0x25f
 6995 1606 25000000 		.4byte	0x25
 6996 160a 00000000 		.4byte	.LFB284
 6997 160e 24000000 		.4byte	.LFE284-.LFB284
 6998 1612 01       		.uleb128 0x1
 6999 1613 9C       		.byte	0x9c
 7000 1614 3C160000 		.4byte	0x163c
 7001 1618 48       		.uleb128 0x48
 7002 1619 72657400 		.ascii	"ret\000"
 7003 161d 01       		.byte	0x1
 7004 161e 6002     		.2byte	0x260
 7005 1620 25000000 		.4byte	0x25
 7006 1624 04       		.byte	0x4
 7007 1625 00000000 		.4byte	0
 7008 1629 3E       		.uleb128 0x3e
 7009 162a 12000000 		.4byte	.LVL57
 7010 162e E1260000 		.4byte	0x26e1
 7011 1632 3E       		.uleb128 0x3e
 7012 1633 1C000000 		.4byte	.LVL58
 7013 1637 EC260000 		.4byte	0x26ec
 7014 163b 00       		.byte	0
 7015 163c 43       		.uleb128 0x43
 7016 163d 7A120000 		.4byte	.LASF312
 7017 1641 01       		.byte	0x1
 7018 1642 7302     		.2byte	0x273
 7019 1644 25000000 		.4byte	0x25
 7020 1648 00000000 		.4byte	.LFB285
 7021 164c 24000000 		.4byte	.LFE285-.LFB285
 7022 1650 01       		.uleb128 0x1
 7023 1651 9C       		.byte	0x9c
 7024 1652 7A160000 		.4byte	0x167a
 7025 1656 48       		.uleb128 0x48
 7026 1657 72657400 		.ascii	"ret\000"
 7027 165b 01       		.byte	0x1
 7028 165c 7402     		.2byte	0x274
 7029 165e 25000000 		.4byte	0x25
 7030 1662 04       		.byte	0x4
 7031 1663 00000000 		.4byte	0
 7032 1667 3E       		.uleb128 0x3e
 7033 1668 12000000 		.4byte	.LVL60
 7034 166c F7260000 		.4byte	0x26f7
 7035 1670 3E       		.uleb128 0x3e
 7036 1671 1C000000 		.4byte	.LVL61
ARM GAS  /var/folders/47/g7cdn6zj55s1hhv4njp6x8_h0000gn/T//cc224n80.s 			page 126


 7037 1675 02270000 		.4byte	0x2702
 7038 1679 00       		.byte	0
 7039 167a 43       		.uleb128 0x43
 7040 167b BE010000 		.4byte	.LASF313
 7041 167f 01       		.byte	0x1
 7042 1680 8702     		.2byte	0x287
 7043 1682 25000000 		.4byte	0x25
 7044 1686 00000000 		.4byte	.LFB286
 7045 168a 24000000 		.4byte	.LFE286-.LFB286
 7046 168e 01       		.uleb128 0x1
 7047 168f 9C       		.byte	0x9c
 7048 1690 B8160000 		.4byte	0x16b8
 7049 1694 48       		.uleb128 0x48
 7050 1695 72657400 		.ascii	"ret\000"
 7051 1699 01       		.byte	0x1
 7052 169a 8802     		.2byte	0x288
 7053 169c 25000000 		.4byte	0x25
 7054 16a0 04       		.byte	0x4
 7055 16a1 00000000 		.4byte	0
 7056 16a5 3E       		.uleb128 0x3e
 7057 16a6 12000000 		.4byte	.LVL63
 7058 16aa 0D270000 		.4byte	0x270d
 7059 16ae 3E       		.uleb128 0x3e
 7060 16af 1C000000 		.4byte	.LVL64
 7061 16b3 18270000 		.4byte	0x2718
 7062 16b7 00       		.byte	0
 7063 16b8 43       		.uleb128 0x43
 7064 16b9 690F0000 		.4byte	.LASF314
 7065 16bd 01       		.byte	0x1
 7066 16be 9B02     		.2byte	0x29b
 7067 16c0 25000000 		.4byte	0x25
 7068 16c4 00000000 		.4byte	.LFB287
 7069 16c8 24000000 		.4byte	.LFE287-.LFB287
 7070 16cc 01       		.uleb128 0x1
 7071 16cd 9C       		.byte	0x9c
 7072 16ce F6160000 		.4byte	0x16f6
 7073 16d2 48       		.uleb128 0x48
 7074 16d3 72657400 		.ascii	"ret\000"
 7075 16d7 01       		.byte	0x1
 7076 16d8 9C02     		.2byte	0x29c
 7077 16da 25000000 		.4byte	0x25
 7078 16de 04       		.byte	0x4
 7079 16df 00000000 		.4byte	0
 7080 16e3 3E       		.uleb128 0x3e
 7081 16e4 12000000 		.4byte	.LVL66
 7082 16e8 23270000 		.4byte	0x2723
 7083 16ec 3E       		.uleb128 0x3e
 7084 16ed 1C000000 		.4byte	.LVL67
 7085 16f1 2E270000 		.4byte	0x272e
 7086 16f5 00       		.byte	0
 7087 16f6 43       		.uleb128 0x43
 7088 16f7 55060000 		.4byte	.LASF315
 7089 16fb 01       		.byte	0x1
 7090 16fc AF02     		.2byte	0x2af
 7091 16fe 25000000 		.4byte	0x25
 7092 1702 00000000 		.4byte	.LFB288
 7093 1706 24000000 		.4byte	.LFE288-.LFB288
ARM GAS  /var/folders/47/g7cdn6zj55s1hhv4njp6x8_h0000gn/T//cc224n80.s 			page 127


 7094 170a 01       		.uleb128 0x1
 7095 170b 9C       		.byte	0x9c
 7096 170c 34170000 		.4byte	0x1734
 7097 1710 48       		.uleb128 0x48
 7098 1711 72657400 		.ascii	"ret\000"
 7099 1715 01       		.byte	0x1
 7100 1716 B002     		.2byte	0x2b0
 7101 1718 25000000 		.4byte	0x25
 7102 171c 04       		.byte	0x4
 7103 171d 00000000 		.4byte	0
 7104 1721 3E       		.uleb128 0x3e
 7105 1722 12000000 		.4byte	.LVL69
 7106 1726 39270000 		.4byte	0x2739
 7107 172a 3E       		.uleb128 0x3e
 7108 172b 1C000000 		.4byte	.LVL70
 7109 172f 44270000 		.4byte	0x2744
 7110 1733 00       		.byte	0
 7111 1734 43       		.uleb128 0x43
 7112 1735 65040000 		.4byte	.LASF316
 7113 1739 01       		.byte	0x1
 7114 173a C302     		.2byte	0x2c3
 7115 173c 25000000 		.4byte	0x25
 7116 1740 00000000 		.4byte	.LFB289
 7117 1744 24000000 		.4byte	.LFE289-.LFB289
 7118 1748 01       		.uleb128 0x1
 7119 1749 9C       		.byte	0x9c
 7120 174a 72170000 		.4byte	0x1772
 7121 174e 48       		.uleb128 0x48
 7122 174f 72657400 		.ascii	"ret\000"
 7123 1753 01       		.byte	0x1
 7124 1754 C402     		.2byte	0x2c4
 7125 1756 25000000 		.4byte	0x25
 7126 175a 04       		.byte	0x4
 7127 175b 00000000 		.4byte	0
 7128 175f 3E       		.uleb128 0x3e
 7129 1760 12000000 		.4byte	.LVL72
 7130 1764 4F270000 		.4byte	0x274f
 7131 1768 3E       		.uleb128 0x3e
 7132 1769 1C000000 		.4byte	.LVL73
 7133 176d 5A270000 		.4byte	0x275a
 7134 1771 00       		.byte	0
 7135 1772 43       		.uleb128 0x43
 7136 1773 9E130000 		.4byte	.LASF317
 7137 1777 01       		.byte	0x1
 7138 1778 D702     		.2byte	0x2d7
 7139 177a B1000000 		.4byte	0xb1
 7140 177e 00000000 		.4byte	.LFB290
 7141 1782 20000000 		.4byte	.LFE290-.LFB290
 7142 1786 01       		.uleb128 0x1
 7143 1787 9C       		.byte	0x9c
 7144 1788 BC170000 		.4byte	0x17bc
 7145 178c 44       		.uleb128 0x44
 7146 178d 280F0000 		.4byte	.LASF307
 7147 1791 01       		.byte	0x1
 7148 1792 D702     		.2byte	0x2d7
 7149 1794 AB0D0000 		.4byte	0xdab
 7150 1798 B5010000 		.4byte	.LLST10
ARM GAS  /var/folders/47/g7cdn6zj55s1hhv4njp6x8_h0000gn/T//cc224n80.s 			page 128


 7151 179c 45       		.uleb128 0x45
 7152 179d 72657400 		.ascii	"ret\000"
 7153 17a1 01       		.byte	0x1
 7154 17a2 D802     		.2byte	0x2d8
 7155 17a4 B1000000 		.4byte	0xb1
 7156 17a8 00       		.byte	0
 7157 17a9 3E       		.uleb128 0x3e
 7158 17aa 12000000 		.4byte	.LVL75
 7159 17ae 65270000 		.4byte	0x2765
 7160 17b2 3E       		.uleb128 0x3e
 7161 17b3 1A000000 		.4byte	.LVL78
 7162 17b7 7A270000 		.4byte	0x277a
 7163 17bb 00       		.byte	0
 7164 17bc 43       		.uleb128 0x43
 7165 17bd 3A160000 		.4byte	.LASF318
 7166 17c1 01       		.byte	0x1
 7167 17c2 EB02     		.2byte	0x2eb
 7168 17c4 B1000000 		.4byte	0xb1
 7169 17c8 00000000 		.4byte	.LFB291
 7170 17cc 20000000 		.4byte	.LFE291-.LFB291
 7171 17d0 01       		.uleb128 0x1
 7172 17d1 9C       		.byte	0x9c
 7173 17d2 06180000 		.4byte	0x1806
 7174 17d6 44       		.uleb128 0x44
 7175 17d7 280F0000 		.4byte	.LASF307
 7176 17db 01       		.byte	0x1
 7177 17dc EB02     		.2byte	0x2eb
 7178 17de AB0D0000 		.4byte	0xdab
 7179 17e2 08020000 		.4byte	.LLST11
 7180 17e6 45       		.uleb128 0x45
 7181 17e7 72657400 		.ascii	"ret\000"
 7182 17eb 01       		.byte	0x1
 7183 17ec EC02     		.2byte	0x2ec
 7184 17ee B1000000 		.4byte	0xb1
 7185 17f2 00       		.byte	0
 7186 17f3 3E       		.uleb128 0x3e
 7187 17f4 12000000 		.4byte	.LVL80
 7188 17f8 8F270000 		.4byte	0x278f
 7189 17fc 3E       		.uleb128 0x3e
 7190 17fd 1A000000 		.4byte	.LVL83
 7191 1801 A4270000 		.4byte	0x27a4
 7192 1805 00       		.byte	0
 7193 1806 43       		.uleb128 0x43
 7194 1807 560E0000 		.4byte	.LASF319
 7195 180b 01       		.byte	0x1
 7196 180c FF02     		.2byte	0x2ff
 7197 180e 25000000 		.4byte	0x25
 7198 1812 00000000 		.4byte	.LFB292
 7199 1816 24000000 		.4byte	.LFE292-.LFB292
 7200 181a 01       		.uleb128 0x1
 7201 181b 9C       		.byte	0x9c
 7202 181c 44180000 		.4byte	0x1844
 7203 1820 48       		.uleb128 0x48
 7204 1821 72657400 		.ascii	"ret\000"
 7205 1825 01       		.byte	0x1
 7206 1826 0003     		.2byte	0x300
 7207 1828 25000000 		.4byte	0x25
ARM GAS  /var/folders/47/g7cdn6zj55s1hhv4njp6x8_h0000gn/T//cc224n80.s 			page 129


 7208 182c 04       		.byte	0x4
 7209 182d 00000000 		.4byte	0
 7210 1831 3E       		.uleb128 0x3e
 7211 1832 12000000 		.4byte	.LVL85
 7212 1836 B9270000 		.4byte	0x27b9
 7213 183a 3E       		.uleb128 0x3e
 7214 183b 1C000000 		.4byte	.LVL86
 7215 183f C4270000 		.4byte	0x27c4
 7216 1843 00       		.byte	0
 7217 1844 43       		.uleb128 0x43
 7218 1845 95070000 		.4byte	.LASF320
 7219 1849 01       		.byte	0x1
 7220 184a 1303     		.2byte	0x313
 7221 184c 25000000 		.4byte	0x25
 7222 1850 00000000 		.4byte	.LFB293
 7223 1854 20000000 		.4byte	.LFE293-.LFB293
 7224 1858 01       		.uleb128 0x1
 7225 1859 9C       		.byte	0x9c
 7226 185a 6F180000 		.4byte	0x186f
 7227 185e 30       		.uleb128 0x30
 7228 185f 72657300 		.ascii	"res\000"
 7229 1863 01       		.byte	0x1
 7230 1864 1403     		.2byte	0x314
 7231 1866 25000000 		.4byte	0x25
 7232 186a 5B020000 		.4byte	.LLST12
 7233 186e 00       		.byte	0
 7234 186f 43       		.uleb128 0x43
 7235 1870 B5090000 		.4byte	.LASF321
 7236 1874 01       		.byte	0x1
 7237 1875 1A03     		.2byte	0x31a
 7238 1877 25000000 		.4byte	0x25
 7239 187b 00000000 		.4byte	.LFB294
 7240 187f 20000000 		.4byte	.LFE294-.LFB294
 7241 1883 01       		.uleb128 0x1
 7242 1884 9C       		.byte	0x9c
 7243 1885 9A180000 		.4byte	0x189a
 7244 1889 30       		.uleb128 0x30
 7245 188a 72657300 		.ascii	"res\000"
 7246 188e 01       		.byte	0x1
 7247 188f 1B03     		.2byte	0x31b
 7248 1891 25000000 		.4byte	0x25
 7249 1895 81020000 		.4byte	.LLST13
 7250 1899 00       		.byte	0
 7251 189a 42       		.uleb128 0x42
 7252 189b 15180000 		.4byte	.LASF322
 7253 189f 01       		.byte	0x1
 7254 18a0 2103     		.2byte	0x321
 7255 18a2 25000000 		.4byte	0x25
 7256 18a6 00000000 		.4byte	.LFB295
 7257 18aa 0C000000 		.4byte	.LFE295-.LFB295
 7258 18ae 01       		.uleb128 0x1
 7259 18af 9C       		.byte	0x9c
 7260 18b0 43       		.uleb128 0x43
 7261 18b1 9C0D0000 		.4byte	.LASF323
 7262 18b5 01       		.byte	0x1
 7263 18b6 2503     		.2byte	0x325
 7264 18b8 25000000 		.4byte	0x25
ARM GAS  /var/folders/47/g7cdn6zj55s1hhv4njp6x8_h0000gn/T//cc224n80.s 			page 130


 7265 18bc 00000000 		.4byte	.LFB296
 7266 18c0 24000000 		.4byte	.LFE296-.LFB296
 7267 18c4 01       		.uleb128 0x1
 7268 18c5 9C       		.byte	0x9c
 7269 18c6 EE180000 		.4byte	0x18ee
 7270 18ca 48       		.uleb128 0x48
 7271 18cb 72657400 		.ascii	"ret\000"
 7272 18cf 01       		.byte	0x1
 7273 18d0 2603     		.2byte	0x326
 7274 18d2 25000000 		.4byte	0x25
 7275 18d6 04       		.byte	0x4
 7276 18d7 00000000 		.4byte	0
 7277 18db 3E       		.uleb128 0x3e
 7278 18dc 12000000 		.4byte	.LVL92
 7279 18e0 CF270000 		.4byte	0x27cf
 7280 18e4 3E       		.uleb128 0x3e
 7281 18e5 1C000000 		.4byte	.LVL93
 7282 18e9 DA270000 		.4byte	0x27da
 7283 18ed 00       		.byte	0
 7284 18ee 42       		.uleb128 0x42
 7285 18ef F60D0000 		.4byte	.LASF324
 7286 18f3 01       		.byte	0x1
 7287 18f4 3903     		.2byte	0x339
 7288 18f6 25000000 		.4byte	0x25
 7289 18fa 00000000 		.4byte	.LFB297
 7290 18fe 0C000000 		.4byte	.LFE297-.LFB297
 7291 1902 01       		.uleb128 0x1
 7292 1903 9C       		.byte	0x9c
 7293 1904 46       		.uleb128 0x46
 7294 1905 31120000 		.4byte	.LASF325
 7295 1909 01       		.byte	0x1
 7296 190a 3D03     		.2byte	0x33d
 7297 190c 00000000 		.4byte	.LFB298
 7298 1910 48000000 		.4byte	.LFE298-.LFB298
 7299 1914 01       		.uleb128 0x1
 7300 1915 9C       		.byte	0x9c
 7301 1916 54190000 		.4byte	0x1954
 7302 191a 44       		.uleb128 0x44
 7303 191b FB100000 		.4byte	.LASF326
 7304 191f 01       		.byte	0x1
 7305 1920 3D03     		.2byte	0x33d
 7306 1922 AB0D0000 		.4byte	0xdab
 7307 1926 A7020000 		.4byte	.LLST14
 7308 192a 2C       		.uleb128 0x2c
 7309 192b 6C656E00 		.ascii	"len\000"
 7310 192f 01       		.byte	0x1
 7311 1930 3D03     		.2byte	0x33d
 7312 1932 E0000000 		.4byte	0xe0
 7313 1936 C8020000 		.4byte	.LLST15
 7314 193a 44       		.uleb128 0x44
 7315 193b 101F0000 		.4byte	.LASF327
 7316 193f 01       		.byte	0x1
 7317 1940 3D03     		.2byte	0x33d
 7318 1942 CA000000 		.4byte	0xca
 7319 1946 1E030000 		.4byte	.LLST16
 7320 194a 3A       		.uleb128 0x3a
 7321 194b 2A000000 		.4byte	.LVL99
ARM GAS  /var/folders/47/g7cdn6zj55s1hhv4njp6x8_h0000gn/T//cc224n80.s 			page 131


 7322 194f E5270000 		.4byte	0x27e5
 7323 1953 00       		.byte	0
 7324 1954 43       		.uleb128 0x43
 7325 1955 DF100000 		.4byte	.LASF328
 7326 1959 01       		.byte	0x1
 7327 195a 5703     		.2byte	0x357
 7328 195c B1000000 		.4byte	0xb1
 7329 1960 00000000 		.4byte	.LFB299
 7330 1964 40000000 		.4byte	.LFE299-.LFB299
 7331 1968 01       		.uleb128 0x1
 7332 1969 9C       		.byte	0x9c
 7333 196a 91190000 		.4byte	0x1991
 7334 196e 33       		.uleb128 0x33
 7335 196f 6E1B0000 		.4byte	.LASF329
 7336 1973 01       		.byte	0x1
 7337 1974 5E03     		.2byte	0x35e
 7338 1976 B1000000 		.4byte	0xb1
 7339 197a 58030000 		.4byte	.LLST17
 7340 197e 3A       		.uleb128 0x3a
 7341 197f 06000000 		.4byte	.LVL100
 7342 1983 78130000 		.4byte	0x1378
 7343 1987 3A       		.uleb128 0x3a
 7344 1988 28000000 		.4byte	.LVL104
 7345 198c F0270000 		.4byte	0x27f0
 7346 1990 00       		.byte	0
 7347 1991 49       		.uleb128 0x49
 7348 1992 0A100000 		.4byte	0x100a
 7349 1996 00000000 		.4byte	.LFB267
 7350 199a 48000000 		.4byte	.LFE267-.LFB267
 7351 199e 01       		.uleb128 0x1
 7352 199f 9C       		.byte	0x9c
 7353 19a0 F6190000 		.4byte	0x19f6
 7354 19a4 4D       		.uleb128 0x4d
 7355 19a5 17100000 		.4byte	0x1017
 7356 19a9 79030000 		.4byte	.LLST18
 7357 19ad 4E       		.uleb128 0x4e
 7358 19ae 18000000 		.4byte	.Ldebug_ranges0+0x18
 7359 19b2 EC190000 		.4byte	0x19ec
 7360 19b6 4D       		.uleb128 0x4d
 7361 19b7 17100000 		.4byte	0x1017
 7362 19bb F9030000 		.4byte	.LLST19
 7363 19bf 39       		.uleb128 0x39
 7364 19c0 2E000000 		.4byte	.LVL110
 7365 19c4 F7270000 		.4byte	0x27f7
 7366 19c8 D7190000 		.4byte	0x19d7
 7367 19cc 35       		.uleb128 0x35
 7368 19cd 02       		.uleb128 0x2
 7369 19ce 90       		.byte	0x90
 7370 19cf 40       		.uleb128 0x40
 7371 19d0 05       		.uleb128 0x5
 7372 19d1 F3       		.byte	0xf3
 7373 19d2 03       		.uleb128 0x3
 7374 19d3 F5       		.byte	0xf5
 7375 19d4 40       		.uleb128 0x40
 7376 19d5 25       		.uleb128 0x25
 7377 19d6 00       		.byte	0
 7378 19d7 47       		.uleb128 0x47
ARM GAS  /var/folders/47/g7cdn6zj55s1hhv4njp6x8_h0000gn/T//cc224n80.s 			page 132


 7379 19d8 44000000 		.4byte	.LVL114
 7380 19dc 08280000 		.4byte	0x2808
 7381 19e0 35       		.uleb128 0x35
 7382 19e1 02       		.uleb128 0x2
 7383 19e2 90       		.byte	0x90
 7384 19e3 40       		.uleb128 0x40
 7385 19e4 05       		.uleb128 0x5
 7386 19e5 F3       		.byte	0xf3
 7387 19e6 03       		.uleb128 0x3
 7388 19e7 F5       		.byte	0xf5
 7389 19e8 40       		.uleb128 0x40
 7390 19e9 25       		.uleb128 0x25
 7391 19ea 00       		.byte	0
 7392 19eb 00       		.byte	0
 7393 19ec 3A       		.uleb128 0x3a
 7394 19ed 0E000000 		.4byte	.LVL107
 7395 19f1 54190000 		.4byte	0x1954
 7396 19f5 00       		.byte	0
 7397 19f6 46       		.uleb128 0x46
 7398 19f7 53080000 		.4byte	.LASF330
 7399 19fb 01       		.byte	0x1
 7400 19fc B501     		.2byte	0x1b5
 7401 19fe 00000000 		.4byte	.LFB274
 7402 1a02 0C000000 		.4byte	.LFE274-.LFB274
 7403 1a06 01       		.uleb128 0x1
 7404 1a07 9C       		.byte	0x9c
 7405 1a08 231A0000 		.4byte	0x1a23
 7406 1a0c 47       		.uleb128 0x47
 7407 1a0d 08000000 		.4byte	.LVL115
 7408 1a11 0A100000 		.4byte	0x100a
 7409 1a15 35       		.uleb128 0x35
 7410 1a16 02       		.uleb128 0x2
 7411 1a17 90       		.byte	0x90
 7412 1a18 40       		.uleb128 0x40
 7413 1a19 07       		.uleb128 0x7
 7414 1a1a F4       		.byte	0xf4
 7415 1a1b 25       		.uleb128 0x25
 7416 1a1c 04       		.byte	0x4
 7417 1a1d 00000000 		.4byte	0
 7418 1a21 00       		.byte	0
 7419 1a22 00       		.byte	0
 7420 1a23 46       		.uleb128 0x46
 7421 1a24 B31A0000 		.4byte	.LASF331
 7422 1a28 01       		.byte	0x1
 7423 1a29 3E01     		.2byte	0x13e
 7424 1a2b 00000000 		.4byte	.LFB268
 7425 1a2f 48000000 		.4byte	.LFE268-.LFB268
 7426 1a33 01       		.uleb128 0x1
 7427 1a34 9C       		.byte	0x9c
 7428 1a35 7F1A0000 		.4byte	0x1a7f
 7429 1a39 44       		.uleb128 0x44
 7430 1a3a C60C0000 		.4byte	.LASF275
 7431 1a3e 01       		.byte	0x1
 7432 1a3f 3E01     		.2byte	0x13e
 7433 1a41 25000000 		.4byte	0x25
 7434 1a45 51040000 		.4byte	.LLST20
 7435 1a49 3A       		.uleb128 0x3a
ARM GAS  /var/folders/47/g7cdn6zj55s1hhv4njp6x8_h0000gn/T//cc224n80.s 			page 133


 7436 1a4a 0E000000 		.4byte	.LVL117
 7437 1a4e 54190000 		.4byte	0x1954
 7438 1a52 39       		.uleb128 0x39
 7439 1a53 2E000000 		.4byte	.LVL119
 7440 1a57 19280000 		.4byte	0x2819
 7441 1a5b 6A1A0000 		.4byte	0x1a6a
 7442 1a5f 35       		.uleb128 0x35
 7443 1a60 02       		.uleb128 0x2
 7444 1a61 90       		.byte	0x90
 7445 1a62 40       		.uleb128 0x40
 7446 1a63 05       		.uleb128 0x5
 7447 1a64 F3       		.byte	0xf3
 7448 1a65 03       		.uleb128 0x3
 7449 1a66 F5       		.byte	0xf5
 7450 1a67 40       		.uleb128 0x40
 7451 1a68 25       		.uleb128 0x25
 7452 1a69 00       		.byte	0
 7453 1a6a 47       		.uleb128 0x47
 7454 1a6b 44000000 		.4byte	.LVL123
 7455 1a6f 2A280000 		.4byte	0x282a
 7456 1a73 35       		.uleb128 0x35
 7457 1a74 02       		.uleb128 0x2
 7458 1a75 90       		.byte	0x90
 7459 1a76 40       		.uleb128 0x40
 7460 1a77 05       		.uleb128 0x5
 7461 1a78 F3       		.byte	0xf3
 7462 1a79 03       		.uleb128 0x3
 7463 1a7a F5       		.byte	0xf5
 7464 1a7b 40       		.uleb128 0x40
 7465 1a7c 25       		.uleb128 0x25
 7466 1a7d 00       		.byte	0
 7467 1a7e 00       		.byte	0
 7468 1a7f 46       		.uleb128 0x46
 7469 1a80 FF040000 		.4byte	.LASF332
 7470 1a84 01       		.byte	0x1
 7471 1a85 5201     		.2byte	0x152
 7472 1a87 00000000 		.4byte	.LFB269
 7473 1a8b 48000000 		.4byte	.LFE269-.LFB269
 7474 1a8f 01       		.uleb128 0x1
 7475 1a90 9C       		.byte	0x9c
 7476 1a91 DB1A0000 		.4byte	0x1adb
 7477 1a95 2C       		.uleb128 0x2c
 7478 1a96 72706D00 		.ascii	"rpm\000"
 7479 1a9a 01       		.byte	0x1
 7480 1a9b 5201     		.2byte	0x152
 7481 1a9d 25000000 		.4byte	0x25
 7482 1aa1 D1040000 		.4byte	.LLST21
 7483 1aa5 3A       		.uleb128 0x3a
 7484 1aa6 0E000000 		.4byte	.LVL125
 7485 1aaa 54190000 		.4byte	0x1954
 7486 1aae 39       		.uleb128 0x39
 7487 1aaf 2E000000 		.4byte	.LVL127
 7488 1ab3 3B280000 		.4byte	0x283b
 7489 1ab7 C61A0000 		.4byte	0x1ac6
 7490 1abb 35       		.uleb128 0x35
 7491 1abc 02       		.uleb128 0x2
 7492 1abd 90       		.byte	0x90
ARM GAS  /var/folders/47/g7cdn6zj55s1hhv4njp6x8_h0000gn/T//cc224n80.s 			page 134


 7493 1abe 40       		.uleb128 0x40
 7494 1abf 05       		.uleb128 0x5
 7495 1ac0 F3       		.byte	0xf3
 7496 1ac1 03       		.uleb128 0x3
 7497 1ac2 F5       		.byte	0xf5
 7498 1ac3 40       		.uleb128 0x40
 7499 1ac4 25       		.uleb128 0x25
 7500 1ac5 00       		.byte	0
 7501 1ac6 47       		.uleb128 0x47
 7502 1ac7 44000000 		.4byte	.LVL131
 7503 1acb 4C280000 		.4byte	0x284c
 7504 1acf 35       		.uleb128 0x35
 7505 1ad0 02       		.uleb128 0x2
 7506 1ad1 90       		.byte	0x90
 7507 1ad2 40       		.uleb128 0x40
 7508 1ad3 05       		.uleb128 0x5
 7509 1ad4 F3       		.byte	0xf3
 7510 1ad5 03       		.uleb128 0x3
 7511 1ad6 F5       		.byte	0xf5
 7512 1ad7 40       		.uleb128 0x40
 7513 1ad8 25       		.uleb128 0x25
 7514 1ad9 00       		.byte	0
 7515 1ada 00       		.byte	0
 7516 1adb 46       		.uleb128 0x46
 7517 1adc 22170000 		.4byte	.LASF333
 7518 1ae0 01       		.byte	0x1
 7519 1ae1 7701     		.2byte	0x177
 7520 1ae3 00000000 		.4byte	.LFB271
 7521 1ae7 54000000 		.4byte	.LFE271-.LFB271
 7522 1aeb 01       		.uleb128 0x1
 7523 1aec 9C       		.byte	0x9c
 7524 1aed 371B0000 		.4byte	0x1b37
 7525 1af1 2C       		.uleb128 0x2c
 7526 1af2 706F7300 		.ascii	"pos\000"
 7527 1af6 01       		.byte	0x1
 7528 1af7 7701     		.2byte	0x177
 7529 1af9 25000000 		.4byte	0x25
 7530 1afd 51050000 		.4byte	.LLST22
 7531 1b01 3A       		.uleb128 0x3a
 7532 1b02 0E000000 		.4byte	.LVL133
 7533 1b06 54190000 		.4byte	0x1954
 7534 1b0a 39       		.uleb128 0x39
 7535 1b0b 34000000 		.4byte	.LVL135
 7536 1b0f 5D280000 		.4byte	0x285d
 7537 1b13 221B0000 		.4byte	0x1b22
 7538 1b17 35       		.uleb128 0x35
 7539 1b18 02       		.uleb128 0x2
 7540 1b19 90       		.byte	0x90
 7541 1b1a 40       		.uleb128 0x40
 7542 1b1b 05       		.uleb128 0x5
 7543 1b1c F3       		.byte	0xf3
 7544 1b1d 03       		.uleb128 0x3
 7545 1b1e F5       		.byte	0xf5
 7546 1b1f 40       		.uleb128 0x40
 7547 1b20 25       		.uleb128 0x25
 7548 1b21 00       		.byte	0
 7549 1b22 47       		.uleb128 0x47
ARM GAS  /var/folders/47/g7cdn6zj55s1hhv4njp6x8_h0000gn/T//cc224n80.s 			page 135


 7550 1b23 4A000000 		.4byte	.LVL139
 7551 1b27 6E280000 		.4byte	0x286e
 7552 1b2b 35       		.uleb128 0x35
 7553 1b2c 02       		.uleb128 0x2
 7554 1b2d 90       		.byte	0x90
 7555 1b2e 40       		.uleb128 0x40
 7556 1b2f 05       		.uleb128 0x5
 7557 1b30 F3       		.byte	0xf3
 7558 1b31 03       		.uleb128 0x3
 7559 1b32 F5       		.byte	0xf5
 7560 1b33 40       		.uleb128 0x40
 7561 1b34 25       		.uleb128 0x25
 7562 1b35 00       		.byte	0
 7563 1b36 00       		.byte	0
 7564 1b37 49       		.uleb128 0x49
 7565 1b38 24100000 		.4byte	0x1024
 7566 1b3c 00000000 		.4byte	.LFB272
 7567 1b40 48000000 		.4byte	.LFE272-.LFB272
 7568 1b44 01       		.uleb128 0x1
 7569 1b45 9C       		.byte	0x9c
 7570 1b46 9C1B0000 		.4byte	0x1b9c
 7571 1b4a 4D       		.uleb128 0x4d
 7572 1b4b 31100000 		.4byte	0x1031
 7573 1b4f D4050000 		.4byte	.LLST23
 7574 1b53 4E       		.uleb128 0x4e
 7575 1b54 40000000 		.4byte	.Ldebug_ranges0+0x40
 7576 1b58 921B0000 		.4byte	0x1b92
 7577 1b5c 4D       		.uleb128 0x4d
 7578 1b5d 31100000 		.4byte	0x1031
 7579 1b61 54060000 		.4byte	.LLST24
 7580 1b65 39       		.uleb128 0x39
 7581 1b66 2E000000 		.4byte	.LVL144
 7582 1b6a 7F280000 		.4byte	0x287f
 7583 1b6e 7D1B0000 		.4byte	0x1b7d
 7584 1b72 35       		.uleb128 0x35
 7585 1b73 02       		.uleb128 0x2
 7586 1b74 90       		.byte	0x90
 7587 1b75 40       		.uleb128 0x40
 7588 1b76 05       		.uleb128 0x5
 7589 1b77 F3       		.byte	0xf3
 7590 1b78 03       		.uleb128 0x3
 7591 1b79 F5       		.byte	0xf5
 7592 1b7a 40       		.uleb128 0x40
 7593 1b7b 25       		.uleb128 0x25
 7594 1b7c 00       		.byte	0
 7595 1b7d 47       		.uleb128 0x47
 7596 1b7e 44000000 		.4byte	.LVL148
 7597 1b82 90280000 		.4byte	0x2890
 7598 1b86 35       		.uleb128 0x35
 7599 1b87 02       		.uleb128 0x2
 7600 1b88 90       		.byte	0x90
 7601 1b89 40       		.uleb128 0x40
 7602 1b8a 05       		.uleb128 0x5
 7603 1b8b F3       		.byte	0xf3
 7604 1b8c 03       		.uleb128 0x3
 7605 1b8d F5       		.byte	0xf5
 7606 1b8e 40       		.uleb128 0x40
ARM GAS  /var/folders/47/g7cdn6zj55s1hhv4njp6x8_h0000gn/T//cc224n80.s 			page 136


 7607 1b8f 25       		.uleb128 0x25
 7608 1b90 00       		.byte	0
 7609 1b91 00       		.byte	0
 7610 1b92 3A       		.uleb128 0x3a
 7611 1b93 0E000000 		.4byte	.LVL141
 7612 1b97 54190000 		.4byte	0x1954
 7613 1b9b 00       		.byte	0
 7614 1b9c 46       		.uleb128 0x46
 7615 1b9d BD160000 		.4byte	.LASF334
 7616 1ba1 01       		.byte	0x1
 7617 1ba2 BC01     		.2byte	0x1bc
 7618 1ba4 00000000 		.4byte	.LFB275
 7619 1ba8 0C000000 		.4byte	.LFE275-.LFB275
 7620 1bac 01       		.uleb128 0x1
 7621 1bad 9C       		.byte	0x9c
 7622 1bae C91B0000 		.4byte	0x1bc9
 7623 1bb2 47       		.uleb128 0x47
 7624 1bb3 08000000 		.4byte	.LVL149
 7625 1bb7 24100000 		.4byte	0x1024
 7626 1bbb 35       		.uleb128 0x35
 7627 1bbc 02       		.uleb128 0x2
 7628 1bbd 90       		.byte	0x90
 7629 1bbe 40       		.uleb128 0x40
 7630 1bbf 07       		.uleb128 0x7
 7631 1bc0 F4       		.byte	0xf4
 7632 1bc1 25       		.uleb128 0x25
 7633 1bc2 04       		.byte	0x4
 7634 1bc3 00000000 		.4byte	0
 7635 1bc7 00       		.byte	0
 7636 1bc8 00       		.byte	0
 7637 1bc9 46       		.uleb128 0x46
 7638 1bca 62190000 		.4byte	.LASF335
 7639 1bce 01       		.byte	0x1
 7640 1bcf A101     		.2byte	0x1a1
 7641 1bd1 00000000 		.4byte	.LFB273
 7642 1bd5 48000000 		.4byte	.LFE273-.LFB273
 7643 1bd9 01       		.uleb128 0x1
 7644 1bda 9C       		.byte	0x9c
 7645 1bdb 251C0000 		.4byte	0x1c25
 7646 1bdf 44       		.uleb128 0x44
 7647 1be0 12100000 		.4byte	.LASF243
 7648 1be4 01       		.byte	0x1
 7649 1be5 A101     		.2byte	0x1a1
 7650 1be7 25000000 		.4byte	0x25
 7651 1beb AC060000 		.4byte	.LLST25
 7652 1bef 3A       		.uleb128 0x3a
 7653 1bf0 0E000000 		.4byte	.LVL151
 7654 1bf4 54190000 		.4byte	0x1954
 7655 1bf8 39       		.uleb128 0x39
 7656 1bf9 2E000000 		.4byte	.LVL153
 7657 1bfd A1280000 		.4byte	0x28a1
 7658 1c01 101C0000 		.4byte	0x1c10
 7659 1c05 35       		.uleb128 0x35
 7660 1c06 02       		.uleb128 0x2
 7661 1c07 90       		.byte	0x90
 7662 1c08 40       		.uleb128 0x40
 7663 1c09 05       		.uleb128 0x5
ARM GAS  /var/folders/47/g7cdn6zj55s1hhv4njp6x8_h0000gn/T//cc224n80.s 			page 137


 7664 1c0a F3       		.byte	0xf3
 7665 1c0b 03       		.uleb128 0x3
 7666 1c0c F5       		.byte	0xf5
 7667 1c0d 40       		.uleb128 0x40
 7668 1c0e 25       		.uleb128 0x25
 7669 1c0f 00       		.byte	0
 7670 1c10 47       		.uleb128 0x47
 7671 1c11 44000000 		.4byte	.LVL157
 7672 1c15 B2280000 		.4byte	0x28b2
 7673 1c19 35       		.uleb128 0x35
 7674 1c1a 02       		.uleb128 0x2
 7675 1c1b 90       		.byte	0x90
 7676 1c1c 40       		.uleb128 0x40
 7677 1c1d 05       		.uleb128 0x5
 7678 1c1e F3       		.byte	0xf3
 7679 1c1f 03       		.uleb128 0x3
 7680 1c20 F5       		.byte	0xf5
 7681 1c21 40       		.uleb128 0x40
 7682 1c22 25       		.uleb128 0x25
 7683 1c23 00       		.byte	0
 7684 1c24 00       		.byte	0
 7685 1c25 46       		.uleb128 0x46
 7686 1c26 E71C0000 		.4byte	.LASF336
 7687 1c2a 01       		.byte	0x1
 7688 1c2b 6B03     		.2byte	0x36b
 7689 1c2d 00000000 		.4byte	.LFB300
 7690 1c31 44010000 		.4byte	.LFE300-.LFB300
 7691 1c35 01       		.uleb128 0x1
 7692 1c36 9C       		.byte	0x9c
 7693 1c37 991D0000 		.4byte	0x1d99
 7694 1c3b 44       		.uleb128 0x44
 7695 1c3c E2140000 		.4byte	.LASF242
 7696 1c40 01       		.byte	0x1
 7697 1c41 6B03     		.2byte	0x36b
 7698 1c43 AF090000 		.4byte	0x9af
 7699 1c47 2C070000 		.4byte	.LLST26
 7700 1c4b 2F       		.uleb128 0x2f
 7701 1c4c 3C000000 		.4byte	.LBB95
 7702 1c50 08010000 		.4byte	.LBE95-.LBB95
 7703 1c54 7D1D0000 		.4byte	0x1d7d
 7704 1c58 32       		.uleb128 0x32
 7705 1c59 F2030000 		.4byte	.LASF337
 7706 1c5d 01       		.byte	0x1
 7707 1c5e 7003     		.2byte	0x370
 7708 1c60 991D0000 		.4byte	0x1d99
 7709 1c64 03       		.uleb128 0x3
 7710 1c65 91       		.byte	0x91
 7711 1c66 A87F     		.sleb128 -88
 7712 1c68 32       		.uleb128 0x32
 7713 1c69 E5030000 		.4byte	.LASF338
 7714 1c6d 01       		.byte	0x1
 7715 1c6e 7103     		.2byte	0x371
 7716 1c70 991D0000 		.4byte	0x1d99
 7717 1c74 03       		.uleb128 0x3
 7718 1c75 91       		.byte	0x91
 7719 1c76 AC7F     		.sleb128 -84
 7720 1c78 32       		.uleb128 0x32
ARM GAS  /var/folders/47/g7cdn6zj55s1hhv4njp6x8_h0000gn/T//cc224n80.s 			page 138


 7721 1c79 D2170000 		.4byte	.LASF251
 7722 1c7d 01       		.byte	0x1
 7723 1c7e 7203     		.2byte	0x372
 7724 1c80 991D0000 		.4byte	0x1d99
 7725 1c84 03       		.uleb128 0x3
 7726 1c85 91       		.byte	0x91
 7727 1c86 B07F     		.sleb128 -80
 7728 1c88 32       		.uleb128 0x32
 7729 1c89 E2080000 		.4byte	.LASF339
 7730 1c8d 01       		.byte	0x1
 7731 1c8e 7503     		.2byte	0x375
 7732 1c90 900E0000 		.4byte	0xe90
 7733 1c94 03       		.uleb128 0x3
 7734 1c95 91       		.byte	0x91
 7735 1c96 B47F     		.sleb128 -76
 7736 1c98 4F       		.uleb128 0x4f
 7737 1c99 3E100000 		.4byte	0x103e
 7738 1c9d 3C000000 		.4byte	.LBB96
 7739 1ca1 06000000 		.4byte	.LBE96-.LBB96
 7740 1ca5 01       		.byte	0x1
 7741 1ca6 6F03     		.2byte	0x36f
 7742 1ca8 D51C0000 		.4byte	0x1cd5
 7743 1cac 50       		.uleb128 0x50
 7744 1cad A40F0000 		.4byte	0xfa4
 7745 1cb1 3C000000 		.4byte	.LBB97
 7746 1cb5 06000000 		.4byte	.LBE97-.LBB97
 7747 1cb9 13       		.byte	0x13
 7748 1cba 5C01     		.2byte	0x15c
 7749 1cbc 50       		.uleb128 0x50
 7750 1cbd 8A0F0000 		.4byte	0xf8a
 7751 1cc1 3C000000 		.4byte	.LBB98
 7752 1cc5 06000000 		.4byte	.LBE98-.LBB98
 7753 1cc9 0C       		.byte	0xc
 7754 1cca BF01     		.2byte	0x1bf
 7755 1ccc 51       		.uleb128 0x51
 7756 1ccd 970F0000 		.4byte	0xf97
 7757 1cd1 20       		.byte	0x20
 7758 1cd2 00       		.byte	0
 7759 1cd3 00       		.byte	0
 7760 1cd4 00       		.byte	0
 7761 1cd5 4F       		.uleb128 0x4f
 7762 1cd6 47100000 		.4byte	0x1047
 7763 1cda 52000000 		.4byte	.LBB100
 7764 1cde 04000000 		.4byte	.LBE100-.LBB100
 7765 1ce2 01       		.byte	0x1
 7766 1ce3 7303     		.2byte	0x373
 7767 1ce5 211D0000 		.4byte	0x1d21
 7768 1ce9 31       		.uleb128 0x31
 7769 1cea 52000000 		.4byte	.LBB101
 7770 1cee 04000000 		.4byte	.LBE101-.LBB101
 7771 1cf2 52       		.uleb128 0x52
 7772 1cf3 54100000 		.4byte	0x1054
 7773 1cf7 50       		.uleb128 0x50
 7774 1cf8 AD0F0000 		.4byte	0xfad
 7775 1cfc 52000000 		.4byte	.LBB102
 7776 1d00 04000000 		.4byte	.LBE102-.LBB102
 7777 1d04 13       		.byte	0x13
ARM GAS  /var/folders/47/g7cdn6zj55s1hhv4njp6x8_h0000gn/T//cc224n80.s 			page 139


 7778 1d05 7301     		.2byte	0x173
 7779 1d07 50       		.uleb128 0x50
 7780 1d08 8A0F0000 		.4byte	0xf8a
 7781 1d0c 52000000 		.4byte	.LBB103
 7782 1d10 04000000 		.4byte	.LBE103-.LBB103
 7783 1d14 0C       		.byte	0xc
 7784 1d15 CD01     		.2byte	0x1cd
 7785 1d17 51       		.uleb128 0x51
 7786 1d18 970F0000 		.4byte	0xf97
 7787 1d1c 00       		.byte	0
 7788 1d1d 00       		.byte	0
 7789 1d1e 00       		.byte	0
 7790 1d1f 00       		.byte	0
 7791 1d20 00       		.byte	0
 7792 1d21 3A       		.uleb128 0x3a
 7793 1d22 5E000000 		.4byte	.LVL164
 7794 1d26 FE150000 		.4byte	0x15fe
 7795 1d2a 3A       		.uleb128 0x3a
 7796 1d2b 68000000 		.4byte	.LVL165
 7797 1d2f 3C160000 		.4byte	0x163c
 7798 1d33 3A       		.uleb128 0x3a
 7799 1d34 90000000 		.4byte	.LVL166
 7800 1d38 5C140000 		.4byte	0x145c
 7801 1d3c 3A       		.uleb128 0x3a
 7802 1d3d 98000000 		.4byte	.LVL167
 7803 1d41 E0140000 		.4byte	0x14e0
 7804 1d45 38       		.uleb128 0x38
 7805 1d46 A2000000 		.4byte	.LVL168
 7806 1d4a 72170000 		.4byte	0x1772
 7807 1d4e 591D0000 		.4byte	0x1d59
 7808 1d52 35       		.uleb128 0x35
 7809 1d53 01       		.uleb128 0x1
 7810 1d54 50       		.byte	0x50
 7811 1d55 02       		.uleb128 0x2
 7812 1d56 76       		.byte	0x76
 7813 1d57 00       		.sleb128 0
 7814 1d58 00       		.byte	0
 7815 1d59 3A       		.uleb128 0x3a
 7816 1d5a BA000000 		.4byte	.LVL169
 7817 1d5e E5270000 		.4byte	0x27e5
 7818 1d62 3A       		.uleb128 0x3a
 7819 1d63 E0000000 		.4byte	.LVL170
 7820 1d67 C3280000 		.4byte	0x28c3
 7821 1d6b 34       		.uleb128 0x34
 7822 1d6c 0A010000 		.4byte	.LVL171
 7823 1d70 D9280000 		.4byte	0x28d9
 7824 1d74 35       		.uleb128 0x35
 7825 1d75 01       		.uleb128 0x1
 7826 1d76 50       		.byte	0x50
 7827 1d77 03       		.uleb128 0x3
 7828 1d78 91       		.byte	0x91
 7829 1d79 B47F     		.sleb128 -76
 7830 1d7b 00       		.byte	0
 7831 1d7c 00       		.byte	0
 7832 1d7d 3A       		.uleb128 0x3a
 7833 1d7e 0A000000 		.4byte	.LVL159
 7834 1d82 A8120000 		.4byte	0x12a8
ARM GAS  /var/folders/47/g7cdn6zj55s1hhv4njp6x8_h0000gn/T//cc224n80.s 			page 140


 7835 1d86 3A       		.uleb128 0x3a
 7836 1d87 2C000000 		.4byte	.LVL160
 7837 1d8b F0280000 		.4byte	0x28f0
 7838 1d8f 3A       		.uleb128 0x3a
 7839 1d90 36000000 		.4byte	.LVL161
 7840 1d94 F0270000 		.4byte	0x27f0
 7841 1d98 00       		.byte	0
 7842 1d99 05       		.uleb128 0x5
 7843 1d9a B1000000 		.4byte	0xb1
 7844 1d9e 49       		.uleb128 0x49
 7845 1d9f 89100000 		.4byte	0x1089
 7846 1da3 00000000 		.4byte	.LFB309
 7847 1da7 C8010000 		.4byte	.LFE309-.LFB309
 7848 1dab 01       		.uleb128 0x1
 7849 1dac 9C       		.byte	0x9c
 7850 1dad 371E0000 		.4byte	0x1e37
 7851 1db1 4A       		.uleb128 0x4a
 7852 1db2 A2100000 		.4byte	0x10a2
 7853 1db6 4D070000 		.4byte	.LLST27
 7854 1dba 4A       		.uleb128 0x4a
 7855 1dbb AE100000 		.4byte	0x10ae
 7856 1dbf 79070000 		.4byte	.LLST28
 7857 1dc3 2E       		.uleb128 0x2e
 7858 1dc4 96100000 		.4byte	0x1096
 7859 1dc8 06       		.uleb128 0x6
 7860 1dc9 03       		.byte	0x3
 7861 1dca 00000000 		.4byte	m_conf
 7862 1dce 9F       		.byte	0x9f
 7863 1dcf 2F       		.uleb128 0x2f
 7864 1dd0 BA000000 		.4byte	.LBB105
 7865 1dd4 A2000000 		.4byte	.LBE105-.LBB105
 7866 1dd8 FC1D0000 		.4byte	0x1dfc
 7867 1ddc 4A       		.uleb128 0x4a
 7868 1ddd BB100000 		.4byte	0x10bb
 7869 1de1 B1070000 		.4byte	.LLST29
 7870 1de5 34       		.uleb128 0x34
 7871 1de6 F0000000 		.4byte	.LVL182
 7872 1dea F7280000 		.4byte	0x28f7
 7873 1dee 35       		.uleb128 0x35
 7874 1def 02       		.uleb128 0x2
 7875 1df0 90       		.byte	0x90
 7876 1df1 44       		.uleb128 0x44
 7877 1df2 07       		.uleb128 0x7
 7878 1df3 F4       		.byte	0xf4
 7879 1df4 25       		.uleb128 0x25
 7880 1df5 04       		.byte	0x4
 7881 1df6 00000000 		.4byte	0
 7882 1dfa 00       		.byte	0
 7883 1dfb 00       		.byte	0
 7884 1dfc 3A       		.uleb128 0x3a
 7885 1dfd 32000000 		.4byte	.LVL173
 7886 1e01 C3280000 		.4byte	0x28c3
 7887 1e05 38       		.uleb128 0x38
 7888 1e06 74010000 		.4byte	.LVL184
 7889 1e0a F7280000 		.4byte	0x28f7
 7890 1e0e 271E0000 		.4byte	0x1e27
 7891 1e12 35       		.uleb128 0x35
ARM GAS  /var/folders/47/g7cdn6zj55s1hhv4njp6x8_h0000gn/T//cc224n80.s 			page 141


 7892 1e13 02       		.uleb128 0x2
 7893 1e14 90       		.byte	0x90
 7894 1e15 44       		.uleb128 0x44
 7895 1e16 07       		.uleb128 0x7
 7896 1e17 F4       		.byte	0xf4
 7897 1e18 25       		.uleb128 0x25
 7898 1e19 04       		.byte	0x4
 7899 1e1a 00000000 		.4byte	0
 7900 1e1e 35       		.uleb128 0x35
 7901 1e1f 02       		.uleb128 0x2
 7902 1e20 90       		.byte	0x90
 7903 1e21 40       		.uleb128 0x40
 7904 1e22 03       		.uleb128 0x3
 7905 1e23 F5       		.byte	0xf5
 7906 1e24 50       		.uleb128 0x50
 7907 1e25 25       		.uleb128 0x25
 7908 1e26 00       		.byte	0
 7909 1e27 34       		.uleb128 0x34
 7910 1e28 9C010000 		.4byte	.LVL189
 7911 1e2c 251C0000 		.4byte	0x1c25
 7912 1e30 35       		.uleb128 0x35
 7913 1e31 01       		.uleb128 0x1
 7914 1e32 50       		.byte	0x50
 7915 1e33 01       		.uleb128 0x1
 7916 1e34 35       		.byte	0x35
 7917 1e35 00       		.byte	0
 7918 1e36 00       		.byte	0
 7919 1e37 36       		.uleb128 0x36
 7920 1e38 2C1B0000 		.4byte	.LASF340
 7921 1e3c 01       		.byte	0x1
 7922 1e3d 9D       		.byte	0x9d
 7923 1e3e 00000000 		.4byte	.LFB258
 7924 1e42 D0000000 		.4byte	.LFE258-.LFB258
 7925 1e46 01       		.uleb128 0x1
 7926 1e47 9C       		.byte	0x9c
 7927 1e48 501F0000 		.4byte	0x1f50
 7928 1e4c 37       		.uleb128 0x37
 7929 1e4d E8140000 		.4byte	.LASF290
 7930 1e51 01       		.byte	0x1
 7931 1e52 9D       		.byte	0x9d
 7932 1e53 82120000 		.4byte	0x1282
 7933 1e57 DD070000 		.4byte	.LLST30
 7934 1e5b 3A       		.uleb128 0x3a
 7935 1e5c 16000000 		.4byte	.LVL191
 7936 1e60 20290000 		.4byte	0x2920
 7937 1e64 38       		.uleb128 0x38
 7938 1e65 46000000 		.4byte	.LVL192
 7939 1e69 BB250000 		.4byte	0x25bb
 7940 1e6d 851E0000 		.4byte	0x1e85
 7941 1e71 35       		.uleb128 0x35
 7942 1e72 01       		.uleb128 0x1
 7943 1e73 52       		.byte	0x52
 7944 1e74 03       		.uleb128 0x3
 7945 1e75 0A       		.byte	0xa
 7946 1e76 3401     		.2byte	0x134
 7947 1e78 35       		.uleb128 0x35
 7948 1e79 01       		.uleb128 0x1
ARM GAS  /var/folders/47/g7cdn6zj55s1hhv4njp6x8_h0000gn/T//cc224n80.s 			page 142


 7949 1e7a 51       		.byte	0x51
 7950 1e7b 02       		.uleb128 0x2
 7951 1e7c 74       		.byte	0x74
 7952 1e7d 00       		.sleb128 0
 7953 1e7e 35       		.uleb128 0x35
 7954 1e7f 01       		.uleb128 0x1
 7955 1e80 50       		.byte	0x50
 7956 1e81 02       		.uleb128 0x2
 7957 1e82 75       		.byte	0x75
 7958 1e83 00       		.sleb128 0
 7959 1e84 00       		.byte	0
 7960 1e85 3A       		.uleb128 0x3a
 7961 1e86 4A000000 		.4byte	.LVL193
 7962 1e8a 9E1D0000 		.4byte	0x1d9e
 7963 1e8e 39       		.uleb128 0x39
 7964 1e8f 60000000 		.4byte	.LVL195
 7965 1e93 27290000 		.4byte	0x2927
 7966 1e97 A51E0000 		.4byte	0x1ea5
 7967 1e9b 35       		.uleb128 0x35
 7968 1e9c 01       		.uleb128 0x1
 7969 1e9d 50       		.byte	0x50
 7970 1e9e 05       		.uleb128 0x5
 7971 1e9f 03       		.byte	0x3
 7972 1ea0 00000000 		.4byte	.LANCHOR11
 7973 1ea4 00       		.byte	0
 7974 1ea5 39       		.uleb128 0x39
 7975 1ea6 6C000000 		.4byte	.LVL198
 7976 1eaa 38290000 		.4byte	0x2938
 7977 1eae BC1E0000 		.4byte	0x1ebc
 7978 1eb2 35       		.uleb128 0x35
 7979 1eb3 01       		.uleb128 0x1
 7980 1eb4 50       		.byte	0x50
 7981 1eb5 05       		.uleb128 0x5
 7982 1eb6 03       		.byte	0x3
 7983 1eb7 00000000 		.4byte	.LANCHOR11
 7984 1ebb 00       		.byte	0
 7985 1ebc 3A       		.uleb128 0x3a
 7986 1ebd 76000000 		.4byte	.LVL199
 7987 1ec1 49290000 		.4byte	0x2949
 7988 1ec5 38       		.uleb128 0x38
 7989 1ec6 82000000 		.4byte	.LVL200
 7990 1eca BB250000 		.4byte	0x25bb
 7991 1ece E61E0000 		.4byte	0x1ee6
 7992 1ed2 35       		.uleb128 0x35
 7993 1ed3 01       		.uleb128 0x1
 7994 1ed4 52       		.byte	0x52
 7995 1ed5 03       		.uleb128 0x3
 7996 1ed6 0A       		.byte	0xa
 7997 1ed7 3401     		.2byte	0x134
 7998 1ed9 35       		.uleb128 0x35
 7999 1eda 01       		.uleb128 0x1
 8000 1edb 51       		.byte	0x51
 8001 1edc 02       		.uleb128 0x2
 8002 1edd 74       		.byte	0x74
 8003 1ede 00       		.sleb128 0
 8004 1edf 35       		.uleb128 0x35
 8005 1ee0 01       		.uleb128 0x1
ARM GAS  /var/folders/47/g7cdn6zj55s1hhv4njp6x8_h0000gn/T//cc224n80.s 			page 143


 8006 1ee1 50       		.byte	0x50
 8007 1ee2 02       		.uleb128 0x2
 8008 1ee3 75       		.byte	0x75
 8009 1ee4 00       		.sleb128 0
 8010 1ee5 00       		.byte	0
 8011 1ee6 38       		.uleb128 0x38
 8012 1ee7 88000000 		.4byte	.LVL201
 8013 1eeb 20260000 		.4byte	0x2620
 8014 1eef FA1E0000 		.4byte	0x1efa
 8015 1ef3 35       		.uleb128 0x35
 8016 1ef4 01       		.uleb128 0x1
 8017 1ef5 50       		.byte	0x50
 8018 1ef6 02       		.uleb128 0x2
 8019 1ef7 75       		.byte	0x75
 8020 1ef8 00       		.sleb128 0
 8021 1ef9 00       		.byte	0
 8022 1efa 3A       		.uleb128 0x3a
 8023 1efb 8E000000 		.4byte	.LVL202
 8024 1eff 19260000 		.4byte	0x2619
 8025 1f03 3A       		.uleb128 0x3a
 8026 1f04 9E000000 		.4byte	.LVL203
 8027 1f08 50290000 		.4byte	0x2950
 8028 1f0c 3A       		.uleb128 0x3a
 8029 1f0d A8000000 		.4byte	.LVL204
 8030 1f11 31260000 		.4byte	0x2631
 8031 1f15 3A       		.uleb128 0x3a
 8032 1f16 B8000000 		.4byte	.LVL205
 8033 1f1a 61290000 		.4byte	0x2961
 8034 1f1e 38       		.uleb128 0x38
 8035 1f1f C4000000 		.4byte	.LVL206
 8036 1f23 BB250000 		.4byte	0x25bb
 8037 1f27 3F1F0000 		.4byte	0x1f3f
 8038 1f2b 35       		.uleb128 0x35
 8039 1f2c 01       		.uleb128 0x1
 8040 1f2d 52       		.byte	0x52
 8041 1f2e 03       		.uleb128 0x3
 8042 1f2f 0A       		.byte	0xa
 8043 1f30 3401     		.2byte	0x134
 8044 1f32 35       		.uleb128 0x35
 8045 1f33 01       		.uleb128 0x1
 8046 1f34 51       		.byte	0x51
 8047 1f35 02       		.uleb128 0x2
 8048 1f36 74       		.byte	0x74
 8049 1f37 00       		.sleb128 0
 8050 1f38 35       		.uleb128 0x35
 8051 1f39 01       		.uleb128 0x1
 8052 1f3a 50       		.byte	0x50
 8053 1f3b 02       		.uleb128 0x2
 8054 1f3c 75       		.byte	0x75
 8055 1f3d 00       		.sleb128 0
 8056 1f3e 00       		.byte	0
 8057 1f3f 34       		.uleb128 0x34
 8058 1f40 CA000000 		.4byte	.LVL207
 8059 1f44 08260000 		.4byte	0x2608
 8060 1f48 35       		.uleb128 0x35
 8061 1f49 01       		.uleb128 0x1
 8062 1f4a 50       		.byte	0x50
ARM GAS  /var/folders/47/g7cdn6zj55s1hhv4njp6x8_h0000gn/T//cc224n80.s 			page 144


 8063 1f4b 02       		.uleb128 0x2
 8064 1f4c 75       		.byte	0x75
 8065 1f4d 00       		.sleb128 0
 8066 1f4e 00       		.byte	0
 8067 1f4f 00       		.byte	0
 8068 1f50 2B       		.uleb128 0x2b
 8069 1f51 84020000 		.4byte	.LASF342
 8070 1f55 01       		.byte	0x1
 8071 1f56 5C04     		.2byte	0x45c
 8072 1f58 00000000 		.4byte	.LFB304
 8073 1f5c 60000000 		.4byte	.LFE304-.LFB304
 8074 1f60 01       		.uleb128 0x1
 8075 1f61 9C       		.byte	0x9c
 8076 1f62 C31F0000 		.4byte	0x1fc3
 8077 1f66 2C       		.uleb128 0x2c
 8078 1f67 61726700 		.ascii	"arg\000"
 8079 1f6b 01       		.byte	0x1
 8080 1f6c 5C04     		.2byte	0x45c
 8081 1f6e 87030000 		.4byte	0x387
 8082 1f72 2D080000 		.4byte	.LLST31
 8083 1f76 2D       		.uleb128 0x2d
 8084 1f77 C80F0000 		.4byte	0xfc8
 8085 1f7b 00000000 		.4byte	.LBB106
 8086 1f7f 68000000 		.4byte	.Ldebug_ranges0+0x68
 8087 1f83 01       		.byte	0x1
 8088 1f84 5F04     		.2byte	0x45f
 8089 1f86 971F0000 		.4byte	0x1f97
 8090 1f8a 2E       		.uleb128 0x2e
 8091 1f8b D40F0000 		.4byte	0xfd4
 8092 1f8f 06       		.uleb128 0x6
 8093 1f90 03       		.byte	0x3
 8094 1f91 20000000 		.4byte	.LC2
 8095 1f95 9F       		.byte	0x9f
 8096 1f96 00       		.byte	0
 8097 1f97 3A       		.uleb128 0x3a
 8098 1f98 24000000 		.4byte	.LVL210
 8099 1f9c 9E1D0000 		.4byte	0x1d9e
 8100 1fa0 38       		.uleb128 0x38
 8101 1fa1 2A000000 		.4byte	.LVL211
 8102 1fa5 68290000 		.4byte	0x2968
 8103 1fa9 B31F0000 		.4byte	0x1fb3
 8104 1fad 35       		.uleb128 0x35
 8105 1fae 01       		.uleb128 0x1
 8106 1faf 50       		.byte	0x50
 8107 1fb0 01       		.uleb128 0x1
 8108 1fb1 3A       		.byte	0x3a
 8109 1fb2 00       		.byte	0
 8110 1fb3 34       		.uleb128 0x34
 8111 1fb4 36000000 		.4byte	.LVL212
 8112 1fb8 251C0000 		.4byte	0x1c25
 8113 1fbc 35       		.uleb128 0x35
 8114 1fbd 01       		.uleb128 0x1
 8115 1fbe 50       		.byte	0x50
 8116 1fbf 01       		.uleb128 0x1
 8117 1fc0 33       		.byte	0x33
 8118 1fc1 00       		.byte	0
 8119 1fc2 00       		.byte	0
ARM GAS  /var/folders/47/g7cdn6zj55s1hhv4njp6x8_h0000gn/T//cc224n80.s 			page 145


 8120 1fc3 53       		.uleb128 0x53
 8121 1fc4 C0120000 		.4byte	.LASF343
 8122 1fc8 01       		.byte	0x1
 8123 1fc9 9903     		.2byte	0x399
 8124 1fcb 00000000 		.4byte	.LFB301
 8125 1fcf A4040000 		.4byte	.LFE301-.LFB301
 8126 1fd3 01       		.uleb128 0x1
 8127 1fd4 9C       		.byte	0x9c
 8128 1fd5 FD210000 		.4byte	0x21fd
 8129 1fd9 33       		.uleb128 0x33
 8130 1fda 1E1B0000 		.4byte	.LASF344
 8131 1fde 01       		.byte	0x1
 8132 1fdf 9C03     		.2byte	0x39c
 8133 1fe1 D4100000 		.4byte	0x10d4
 8134 1fe5 4E080000 		.4byte	.LLST32
 8135 1fe9 32       		.uleb128 0x32
 8136 1fea 13020000 		.4byte	.LASF345
 8137 1fee 01       		.byte	0x1
 8138 1fef 9F03     		.2byte	0x39f
 8139 1ff1 B1000000 		.4byte	0xb1
 8140 1ff5 05       		.uleb128 0x5
 8141 1ff6 03       		.byte	0x3
 8142 1ff7 00000000 		.4byte	wrong_voltage_iterations.10488
 8143 1ffb 33       		.uleb128 0x33
 8144 1ffc 12100000 		.4byte	.LASF243
 8145 2000 01       		.byte	0x1
 8146 2001 B603     		.2byte	0x3b6
 8147 2003 D4100000 		.4byte	0x10d4
 8148 2007 7A080000 		.4byte	.LLST33
 8149 200b 33       		.uleb128 0x33
 8150 200c 34050000 		.4byte	.LASF346
 8151 2010 01       		.byte	0x1
 8152 2011 B703     		.2byte	0x3b7
 8153 2013 D4100000 		.4byte	0x10d4
 8154 2017 B2080000 		.4byte	.LLST34
 8155 201b 33       		.uleb128 0x33
 8156 201c B1160000 		.4byte	.LASF347
 8157 2020 01       		.byte	0x1
 8158 2021 BD03     		.2byte	0x3bd
 8159 2023 25000000 		.4byte	0x25
 8160 2027 EA080000 		.4byte	.LLST35
 8161 202b 33       		.uleb128 0x33
 8162 202c A8000000 		.4byte	.LASF348
 8163 2030 01       		.byte	0x1
 8164 2031 BE03     		.2byte	0x3be
 8165 2033 25000000 		.4byte	0x25
 8166 2037 46090000 		.4byte	.LLST36
 8167 203b 33       		.uleb128 0x33
 8168 203c EE020000 		.4byte	.LASF349
 8169 2040 01       		.byte	0x1
 8170 2041 D103     		.2byte	0x3d1
 8171 2043 D4100000 		.4byte	0x10d4
 8172 2047 8A090000 		.4byte	.LLST37
 8173 204b 4C       		.uleb128 0x4c
 8174 204c 6100     		.ascii	"a\000"
 8175 204e 01       		.byte	0x1
 8176 204f F003     		.2byte	0x3f0
ARM GAS  /var/folders/47/g7cdn6zj55s1hhv4njp6x8_h0000gn/T//cc224n80.s 			page 146


 8177 2051 B1000000 		.4byte	0xb1
 8178 2055 05       		.uleb128 0x5
 8179 2056 03       		.byte	0x3
 8180 2057 00000000 		.4byte	a.10496
 8181 205b 4E       		.uleb128 0x4e
 8182 205c 80000000 		.4byte	.Ldebug_ranges0+0x80
 8183 2060 89200000 		.4byte	0x2089
 8184 2064 32       		.uleb128 0x32
 8185 2065 49140000 		.4byte	.LASF350
 8186 2069 01       		.byte	0x1
 8187 206a D403     		.2byte	0x3d4
 8188 206c 25000000 		.4byte	0x25
 8189 2070 05       		.uleb128 0x5
 8190 2071 03       		.byte	0x3
 8191 2072 00000000 		.4byte	curr_diff_sum.10494
 8192 2076 32       		.uleb128 0x32
 8193 2077 B31B0000 		.4byte	.LASF351
 8194 207b 01       		.byte	0x1
 8195 207c D503     		.2byte	0x3d5
 8196 207e 25000000 		.4byte	0x25
 8197 2082 05       		.uleb128 0x5
 8198 2083 03       		.byte	0x3
 8199 2084 00000000 		.4byte	curr_diff_samples.10495
 8200 2088 00       		.byte	0
 8201 2089 2D       		.uleb128 0x2d
 8202 208a 77100000 		.4byte	0x1077
 8203 208e C0030000 		.4byte	.LBB115
 8204 2092 B0000000 		.4byte	.Ldebug_ranges0+0xb0
 8205 2096 01       		.byte	0x1
 8206 2097 1204     		.2byte	0x412
 8207 2099 DA200000 		.4byte	0x20da
 8208 209d 54       		.uleb128 0x54
 8209 209e B60F0000 		.4byte	0xfb6
 8210 20a2 C0030000 		.4byte	.LBB116
 8211 20a6 B0000000 		.4byte	.Ldebug_ranges0+0xb0
 8212 20aa 13       		.byte	0x13
 8213 20ab 8401     		.2byte	0x184
 8214 20ad 54       		.uleb128 0x54
 8215 20ae A40F0000 		.4byte	0xfa4
 8216 20b2 C0030000 		.4byte	.LBB117
 8217 20b6 B0000000 		.4byte	.Ldebug_ranges0+0xb0
 8218 20ba 0C       		.byte	0xc
 8219 20bb DB01     		.2byte	0x1db
 8220 20bd 54       		.uleb128 0x54
 8221 20be 8A0F0000 		.4byte	0xf8a
 8222 20c2 C0030000 		.4byte	.LBB118
 8223 20c6 B0000000 		.4byte	.Ldebug_ranges0+0xb0
 8224 20ca 0C       		.byte	0xc
 8225 20cb BF01     		.2byte	0x1bf
 8226 20cd 4D       		.uleb128 0x4d
 8227 20ce 970F0000 		.4byte	0xf97
 8228 20d2 E6090000 		.4byte	.LLST38
 8229 20d6 00       		.byte	0
 8230 20d7 00       		.byte	0
 8231 20d8 00       		.byte	0
 8232 20d9 00       		.byte	0
 8233 20da 4F       		.uleb128 0x4f
ARM GAS  /var/folders/47/g7cdn6zj55s1hhv4njp6x8_h0000gn/T//cc224n80.s 			page 147


 8234 20db 80100000 		.4byte	0x1080
 8235 20df D0030000 		.4byte	.LBB125
 8236 20e3 06000000 		.4byte	.LBE125-.LBB125
 8237 20e7 01       		.byte	0x1
 8238 20e8 1404     		.2byte	0x414
 8239 20ea 2B210000 		.4byte	0x212b
 8240 20ee 50       		.uleb128 0x50
 8241 20ef BF0F0000 		.4byte	0xfbf
 8242 20f3 D0030000 		.4byte	.LBB126
 8243 20f7 06000000 		.4byte	.LBE126-.LBB126
 8244 20fb 13       		.byte	0x13
 8245 20fc 9A01     		.2byte	0x19a
 8246 20fe 50       		.uleb128 0x50
 8247 20ff AD0F0000 		.4byte	0xfad
 8248 2103 D0030000 		.4byte	.LBB127
 8249 2107 06000000 		.4byte	.LBE127-.LBB127
 8250 210b 0C       		.byte	0xc
 8251 210c E601     		.2byte	0x1e6
 8252 210e 50       		.uleb128 0x50
 8253 210f 8A0F0000 		.4byte	0xf8a
 8254 2113 D0030000 		.4byte	.LBB128
 8255 2117 06000000 		.4byte	.LBE128-.LBB128
 8256 211b 0C       		.byte	0xc
 8257 211c CD01     		.2byte	0x1cd
 8258 211e 4D       		.uleb128 0x4d
 8259 211f 970F0000 		.4byte	0xf97
 8260 2123 FB090000 		.4byte	.LLST39
 8261 2127 00       		.byte	0
 8262 2128 00       		.byte	0
 8263 2129 00       		.byte	0
 8264 212a 00       		.byte	0
 8265 212b 3A       		.uleb128 0x3a
 8266 212c 16000000 		.4byte	.LVL213
 8267 2130 79290000 		.4byte	0x2979
 8268 2134 3A       		.uleb128 0x3a
 8269 2135 5E000000 		.4byte	.LVL215
 8270 2139 78130000 		.4byte	0x1378
 8271 213d 3A       		.uleb128 0x3a
 8272 213e 76000000 		.4byte	.LVL217
 8273 2142 3C160000 		.4byte	0x163c
 8274 2146 3A       		.uleb128 0x3a
 8275 2147 7E000000 		.4byte	.LVL219
 8276 214b 34170000 		.4byte	0x1734
 8277 214f 3A       		.uleb128 0x3a
 8278 2150 C2000000 		.4byte	.LVL221
 8279 2154 FE150000 		.4byte	0x15fe
 8280 2158 3A       		.uleb128 0x3a
 8281 2159 F2000000 		.4byte	.LVL226
 8282 215d EC0F0000 		.4byte	0xfec
 8283 2161 38       		.uleb128 0x38
 8284 2162 76010000 		.4byte	.LVL235
 8285 2166 251C0000 		.4byte	0x1c25
 8286 216a 74210000 		.4byte	0x2174
 8287 216e 35       		.uleb128 0x35
 8288 216f 01       		.uleb128 0x1
 8289 2170 50       		.byte	0x50
 8290 2171 01       		.uleb128 0x1
ARM GAS  /var/folders/47/g7cdn6zj55s1hhv4njp6x8_h0000gn/T//cc224n80.s 			page 148


 8291 2172 34       		.byte	0x34
 8292 2173 00       		.byte	0
 8293 2174 3A       		.uleb128 0x3a
 8294 2175 8E010000 		.4byte	.LVL237
 8295 2179 251C0000 		.4byte	0x1c25
 8296 217d 3A       		.uleb128 0x3a
 8297 217e 92010000 		.4byte	.LVL238
 8298 2182 78130000 		.4byte	0x1378
 8299 2186 3A       		.uleb128 0x3a
 8300 2187 DC010000 		.4byte	.LVL240
 8301 218b 78130000 		.4byte	0x1378
 8302 218f 3A       		.uleb128 0x3a
 8303 2190 E4010000 		.4byte	.LVL241
 8304 2194 E5270000 		.4byte	0x27e5
 8305 2198 3A       		.uleb128 0x3a
 8306 2199 08020000 		.4byte	.LVL244
 8307 219d 78130000 		.4byte	0x1378
 8308 21a1 3A       		.uleb128 0x3a
 8309 21a2 88020000 		.4byte	.LVL245
 8310 21a6 FE150000 		.4byte	0x15fe
 8311 21aa 3A       		.uleb128 0x3a
 8312 21ab C6020000 		.4byte	.LVL247
 8313 21af E5270000 		.4byte	0x27e5
 8314 21b3 3A       		.uleb128 0x3a
 8315 21b4 CC020000 		.4byte	.LVL248
 8316 21b8 80290000 		.4byte	0x2980
 8317 21bc 3A       		.uleb128 0x3a
 8318 21bd EC020000 		.4byte	.LVL249
 8319 21c1 8B290000 		.4byte	0x298b
 8320 21c5 3A       		.uleb128 0x3a
 8321 21c6 00030000 		.4byte	.LVL252
 8322 21ca 96290000 		.4byte	0x2996
 8323 21ce 3A       		.uleb128 0x3a
 8324 21cf 08030000 		.4byte	.LVL254
 8325 21d3 A1290000 		.4byte	0x29a1
 8326 21d7 38       		.uleb128 0x38
 8327 21d8 D0030000 		.4byte	.LVL258
 8328 21dc AC290000 		.4byte	0x29ac
 8329 21e0 EA210000 		.4byte	0x21ea
 8330 21e4 35       		.uleb128 0x35
 8331 21e5 01       		.uleb128 0x1
 8332 21e6 51       		.byte	0x51
 8333 21e7 01       		.uleb128 0x1
 8334 21e8 31       		.byte	0x31
 8335 21e9 00       		.byte	0
 8336 21ea 3A       		.uleb128 0x3a
 8337 21eb DE030000 		.4byte	.LVL260
 8338 21ef E5270000 		.4byte	0x27e5
 8339 21f3 3A       		.uleb128 0x3a
 8340 21f4 06040000 		.4byte	.LVL261
 8341 21f8 E5270000 		.4byte	0x27e5
 8342 21fc 00       		.byte	0
 8343 21fd 46       		.uleb128 0x46
 8344 21fe 85140000 		.4byte	.LASF352
 8345 2202 01       		.byte	0x1
 8346 2203 1C04     		.2byte	0x41c
 8347 2205 00000000 		.4byte	.LFB302
ARM GAS  /var/folders/47/g7cdn6zj55s1hhv4njp6x8_h0000gn/T//cc224n80.s 			page 149


 8348 2209 1C000000 		.4byte	.LFE302-.LFB302
 8349 220d 01       		.uleb128 0x1
 8350 220e 9C       		.byte	0x9c
 8351 220f 26220000 		.4byte	0x2226
 8352 2213 3E       		.uleb128 0x3e
 8353 2214 12000000 		.4byte	.LVL262
 8354 2218 C2290000 		.4byte	0x29c2
 8355 221c 3E       		.uleb128 0x3e
 8356 221d 18000000 		.4byte	.LVL263
 8357 2221 C9290000 		.4byte	0x29c9
 8358 2225 00       		.byte	0
 8359 2226 55       		.uleb128 0x55
 8360 2227 30100000 		.4byte	.LASF353
 8361 222b 01       		.byte	0x1
 8362 222c 2C       		.byte	0x2c
 8363 222d CF100000 		.4byte	0x10cf
 8364 2231 05       		.uleb128 0x5
 8365 2232 03       		.byte	0x3
 8366 2233 00000000 		.4byte	m_conf
 8367 2237 55       		.uleb128 0x55
 8368 2238 B0040000 		.4byte	.LASF354
 8369 223c 01       		.byte	0x1
 8370 223d 2D       		.byte	0x2d
 8371 223e AF090000 		.4byte	0x9af
 8372 2242 05       		.uleb128 0x5
 8373 2243 03       		.byte	0x3
 8374 2244 00000000 		.4byte	m_fault_now
 8375 2248 55       		.uleb128 0x55
 8376 2249 D9060000 		.4byte	.LASF355
 8377 224d 01       		.byte	0x1
 8378 224e 2E       		.byte	0x2e
 8379 224f B1000000 		.4byte	0xb1
 8380 2253 05       		.uleb128 0x5
 8381 2254 03       		.byte	0x3
 8382 2255 00000000 		.4byte	m_ignore_iterations
 8383 2259 55       		.uleb128 0x55
 8384 225a 5F100000 		.4byte	.LASF356
 8385 225e 01       		.byte	0x1
 8386 225f 2F       		.byte	0x2f
 8387 2260 6A220000 		.4byte	0x226a
 8388 2264 05       		.uleb128 0x5
 8389 2265 03       		.byte	0x3
 8390 2266 00000000 		.4byte	m_cycles_running
 8391 226a 05       		.uleb128 0x5
 8392 226b B8000000 		.4byte	0xb8
 8393 226f 55       		.uleb128 0x55
 8394 2270 2A1F0000 		.4byte	.LASF357
 8395 2274 01       		.byte	0x1
 8396 2275 30       		.byte	0x30
 8397 2276 80220000 		.4byte	0x2280
 8398 227a 05       		.uleb128 0x5
 8399 227b 03       		.byte	0x3
 8400 227c 00000000 		.4byte	m_lock_enabled
 8401 2280 05       		.uleb128 0x5
 8402 2281 AB0D0000 		.4byte	0xdab
 8403 2285 55       		.uleb128 0x55
 8404 2286 1A050000 		.4byte	.LASF358
ARM GAS  /var/folders/47/g7cdn6zj55s1hhv4njp6x8_h0000gn/T//cc224n80.s 			page 150


 8405 228a 01       		.byte	0x1
 8406 228b 31       		.byte	0x31
 8407 228c 80220000 		.4byte	0x2280
 8408 2290 05       		.uleb128 0x5
 8409 2291 03       		.byte	0x3
 8410 2292 00000000 		.4byte	m_lock_override_once
 8411 2296 55       		.uleb128 0x55
 8412 2297 A6140000 		.4byte	.LASF359
 8413 229b 01       		.byte	0x1
 8414 229c 32       		.byte	0x32
 8415 229d A7220000 		.4byte	0x22a7
 8416 22a1 05       		.uleb128 0x5
 8417 22a2 03       		.byte	0x3
 8418 22a3 00000000 		.4byte	m_motor_current_sum
 8419 22a7 05       		.uleb128 0x5
 8420 22a8 25000000 		.4byte	0x25
 8421 22ac 55       		.uleb128 0x55
 8422 22ad DA170000 		.4byte	.LASF360
 8423 22b1 01       		.byte	0x1
 8424 22b2 33       		.byte	0x33
 8425 22b3 A7220000 		.4byte	0x22a7
 8426 22b7 05       		.uleb128 0x5
 8427 22b8 03       		.byte	0x3
 8428 22b9 00000000 		.4byte	m_input_current_sum
 8429 22bd 55       		.uleb128 0x55
 8430 22be F6140000 		.4byte	.LASF361
 8431 22c2 01       		.byte	0x1
 8432 22c3 34       		.byte	0x34
 8433 22c4 A7220000 		.4byte	0x22a7
 8434 22c8 05       		.uleb128 0x5
 8435 22c9 03       		.byte	0x3
 8436 22ca 00000000 		.4byte	m_motor_current_iterations
 8437 22ce 55       		.uleb128 0x55
 8438 22cf DB0D0000 		.4byte	.LASF362
 8439 22d3 01       		.byte	0x1
 8440 22d4 35       		.byte	0x35
 8441 22d5 A7220000 		.4byte	0x22a7
 8442 22d9 05       		.uleb128 0x5
 8443 22da 03       		.byte	0x3
 8444 22db 00000000 		.4byte	m_input_current_iterations
 8445 22df 55       		.uleb128 0x55
 8446 22e0 1A0F0000 		.4byte	.LASF363
 8447 22e4 01       		.byte	0x1
 8448 22e5 36       		.byte	0x36
 8449 22e6 A7220000 		.4byte	0x22a7
 8450 22ea 05       		.uleb128 0x5
 8451 22eb 03       		.byte	0x3
 8452 22ec 00000000 		.4byte	m_amp_seconds
 8453 22f0 55       		.uleb128 0x55
 8454 22f1 D10E0000 		.4byte	.LASF364
 8455 22f5 01       		.byte	0x1
 8456 22f6 37       		.byte	0x37
 8457 22f7 A7220000 		.4byte	0x22a7
 8458 22fb 05       		.uleb128 0x5
 8459 22fc 03       		.byte	0x3
 8460 22fd 00000000 		.4byte	m_amp_seconds_charged
 8461 2301 55       		.uleb128 0x55
ARM GAS  /var/folders/47/g7cdn6zj55s1hhv4njp6x8_h0000gn/T//cc224n80.s 			page 151


 8462 2302 58050000 		.4byte	.LASF365
 8463 2306 01       		.byte	0x1
 8464 2307 38       		.byte	0x38
 8465 2308 A7220000 		.4byte	0x22a7
 8466 230c 05       		.uleb128 0x5
 8467 230d 03       		.byte	0x3
 8468 230e 00000000 		.4byte	m_watt_seconds
 8469 2312 55       		.uleb128 0x55
 8470 2313 80050000 		.4byte	.LASF366
 8471 2317 01       		.byte	0x1
 8472 2318 39       		.byte	0x39
 8473 2319 A7220000 		.4byte	0x22a7
 8474 231d 05       		.uleb128 0x5
 8475 231e 03       		.byte	0x3
 8476 231f 00000000 		.4byte	m_watt_seconds_charged
 8477 2323 55       		.uleb128 0x55
 8478 2324 30000000 		.4byte	.LASF367
 8479 2328 01       		.byte	0x1
 8480 2329 3A       		.byte	0x3a
 8481 232a A7220000 		.4byte	0x22a7
 8482 232e 05       		.uleb128 0x5
 8483 232f 03       		.byte	0x3
 8484 2330 00000000 		.4byte	m_position_set
 8485 2334 17       		.uleb128 0x17
 8486 2335 D5000000 		.4byte	0xd5
 8487 2339 45230000 		.4byte	0x2345
 8488 233d 56       		.uleb128 0x56
 8489 233e BD040000 		.4byte	0x4bd
 8490 2342 CF07     		.2byte	0x7cf
 8491 2344 00       		.byte	0
 8492 2345 55       		.uleb128 0x55
 8493 2346 09190000 		.4byte	.LASF368
 8494 234a 01       		.byte	0x1
 8495 234b 3E       		.byte	0x3e
 8496 234c 56230000 		.4byte	0x2356
 8497 2350 05       		.uleb128 0x5
 8498 2351 03       		.byte	0x3
 8499 2352 00000000 		.4byte	m_curr0_samples
 8500 2356 05       		.uleb128 0x5
 8501 2357 34230000 		.4byte	0x2334
 8502 235b 55       		.uleb128 0x55
 8503 235c 23190000 		.4byte	.LASF369
 8504 2360 01       		.byte	0x1
 8505 2361 3F       		.byte	0x3f
 8506 2362 6C230000 		.4byte	0x236c
 8507 2366 05       		.uleb128 0x5
 8508 2367 03       		.byte	0x3
 8509 2368 00000000 		.4byte	m_curr1_samples
 8510 236c 05       		.uleb128 0x5
 8511 236d 34230000 		.4byte	0x2334
 8512 2371 55       		.uleb128 0x55
 8513 2372 E3070000 		.4byte	.LASF370
 8514 2376 01       		.byte	0x1
 8515 2377 40       		.byte	0x40
 8516 2378 82230000 		.4byte	0x2382
 8517 237c 05       		.uleb128 0x5
 8518 237d 03       		.byte	0x3
ARM GAS  /var/folders/47/g7cdn6zj55s1hhv4njp6x8_h0000gn/T//cc224n80.s 			page 152


 8519 237e 00000000 		.4byte	m_ph1_samples
 8520 2382 05       		.uleb128 0x5
 8521 2383 34230000 		.4byte	0x2334
 8522 2387 55       		.uleb128 0x55
 8523 2388 F1070000 		.4byte	.LASF371
 8524 238c 01       		.byte	0x1
 8525 238d 41       		.byte	0x41
 8526 238e 98230000 		.4byte	0x2398
 8527 2392 05       		.uleb128 0x5
 8528 2393 03       		.byte	0x3
 8529 2394 00000000 		.4byte	m_ph2_samples
 8530 2398 05       		.uleb128 0x5
 8531 2399 34230000 		.4byte	0x2334
 8532 239d 55       		.uleb128 0x55
 8533 239e E8080000 		.4byte	.LASF372
 8534 23a2 01       		.byte	0x1
 8535 23a3 42       		.byte	0x42
 8536 23a4 AE230000 		.4byte	0x23ae
 8537 23a8 05       		.uleb128 0x5
 8538 23a9 03       		.byte	0x3
 8539 23aa 00000000 		.4byte	m_ph3_samples
 8540 23ae 05       		.uleb128 0x5
 8541 23af 34230000 		.4byte	0x2334
 8542 23b3 55       		.uleb128 0x55
 8543 23b4 991F0000 		.4byte	.LASF373
 8544 23b8 01       		.byte	0x1
 8545 23b9 43       		.byte	0x43
 8546 23ba C4230000 		.4byte	0x23c4
 8547 23be 05       		.uleb128 0x5
 8548 23bf 03       		.byte	0x3
 8549 23c0 00000000 		.4byte	m_vzero_samples
 8550 23c4 05       		.uleb128 0x5
 8551 23c5 34230000 		.4byte	0x2334
 8552 23c9 17       		.uleb128 0x17
 8553 23ca CA000000 		.4byte	0xca
 8554 23ce DA230000 		.4byte	0x23da
 8555 23d2 56       		.uleb128 0x56
 8556 23d3 BD040000 		.4byte	0x4bd
 8557 23d7 CF07     		.2byte	0x7cf
 8558 23d9 00       		.byte	0
 8559 23da 55       		.uleb128 0x55
 8560 23db C3030000 		.4byte	.LASF374
 8561 23df 01       		.byte	0x1
 8562 23e0 44       		.byte	0x44
 8563 23e1 EB230000 		.4byte	0x23eb
 8564 23e5 05       		.uleb128 0x5
 8565 23e6 03       		.byte	0x3
 8566 23e7 00000000 		.4byte	m_status_samples
 8567 23eb 05       		.uleb128 0x5
 8568 23ec C9230000 		.4byte	0x23c9
 8569 23f0 55       		.uleb128 0x55
 8570 23f1 441F0000 		.4byte	.LASF375
 8571 23f5 01       		.byte	0x1
 8572 23f6 45       		.byte	0x45
 8573 23f7 01240000 		.4byte	0x2401
 8574 23fb 05       		.uleb128 0x5
 8575 23fc 03       		.byte	0x3
ARM GAS  /var/folders/47/g7cdn6zj55s1hhv4njp6x8_h0000gn/T//cc224n80.s 			page 153


 8576 23fd 00000000 		.4byte	m_curr_fir_samples
 8577 2401 05       		.uleb128 0x5
 8578 2402 34230000 		.4byte	0x2334
 8579 2406 55       		.uleb128 0x55
 8580 2407 671C0000 		.4byte	.LASF376
 8581 240b 01       		.byte	0x1
 8582 240c 46       		.byte	0x46
 8583 240d 17240000 		.4byte	0x2417
 8584 2411 05       		.uleb128 0x5
 8585 2412 03       		.byte	0x3
 8586 2413 00000000 		.4byte	m_f_sw_samples
 8587 2417 05       		.uleb128 0x5
 8588 2418 34230000 		.4byte	0x2334
 8589 241c 55       		.uleb128 0x55
 8590 241d 4D0B0000 		.4byte	.LASF377
 8591 2421 01       		.byte	0x1
 8592 2422 47       		.byte	0x47
 8593 2423 991D0000 		.4byte	0x1d99
 8594 2427 05       		.uleb128 0x5
 8595 2428 03       		.byte	0x3
 8596 2429 00000000 		.4byte	m_sample_len
 8597 242d 55       		.uleb128 0x55
 8598 242e 42070000 		.4byte	.LASF378
 8599 2432 01       		.byte	0x1
 8600 2433 48       		.byte	0x48
 8601 2434 991D0000 		.4byte	0x1d99
 8602 2438 05       		.uleb128 0x5
 8603 2439 03       		.byte	0x3
 8604 243a 00000000 		.4byte	m_sample_int
 8605 243e 55       		.uleb128 0x55
 8606 243f 5D1A0000 		.4byte	.LASF379
 8607 2443 01       		.byte	0x1
 8608 2444 49       		.byte	0x49
 8609 2445 991D0000 		.4byte	0x1d99
 8610 2449 05       		.uleb128 0x5
 8611 244a 03       		.byte	0x3
 8612 244b 00000000 		.4byte	m_sample_ready
 8613 244f 55       		.uleb128 0x55
 8614 2450 4C170000 		.4byte	.LASF380
 8615 2454 01       		.byte	0x1
 8616 2455 4A       		.byte	0x4a
 8617 2456 991D0000 		.4byte	0x1d99
 8618 245a 05       		.uleb128 0x5
 8619 245b 03       		.byte	0x3
 8620 245c 00000000 		.4byte	m_sample_now
 8621 2460 55       		.uleb128 0x55
 8622 2461 C3020000 		.4byte	.LASF381
 8623 2465 01       		.byte	0x1
 8624 2466 4B       		.byte	0x4b
 8625 2467 991D0000 		.4byte	0x1d99
 8626 246b 05       		.uleb128 0x5
 8627 246c 03       		.byte	0x3
 8628 246d 00000000 		.4byte	m_sample_at_start
 8629 2471 55       		.uleb128 0x55
 8630 2472 3E1D0000 		.4byte	.LASF382
 8631 2476 01       		.byte	0x1
 8632 2477 4C       		.byte	0x4c
ARM GAS  /var/folders/47/g7cdn6zj55s1hhv4njp6x8_h0000gn/T//cc224n80.s 			page 154


 8633 2478 991D0000 		.4byte	0x1d99
 8634 247c 05       		.uleb128 0x5
 8635 247d 03       		.byte	0x3
 8636 247e 00000000 		.4byte	m_start_comm
 8637 2482 55       		.uleb128 0x55
 8638 2483 200C0000 		.4byte	.LASF383
 8639 2487 01       		.byte	0x1
 8640 2488 4D       		.byte	0x4d
 8641 2489 A7220000 		.4byte	0x22a7
 8642 248d 05       		.uleb128 0x5
 8643 248e 03       		.byte	0x3
 8644 248f 00000000 		.4byte	m_last_adc_duration_sample
 8645 2493 55       		.uleb128 0x55
 8646 2494 020F0000 		.4byte	.LASF384
 8647 2498 01       		.byte	0x1
 8648 2499 53       		.byte	0x53
 8649 249a 750F0000 		.4byte	0xf75
 8650 249e 05       		.uleb128 0x5
 8651 249f 03       		.byte	0x3
 8652 24a0 00000000 		.4byte	pwn_done_func
 8653 24a4 17       		.uleb128 0x17
 8654 24a5 F4050000 		.4byte	0x5f4
 8655 24a9 B4240000 		.4byte	0x24b4
 8656 24ad 18       		.uleb128 0x18
 8657 24ae BD040000 		.4byte	0x4bd
 8658 24b2 B2       		.byte	0xb2
 8659 24b3 00       		.byte	0
 8660 24b4 55       		.uleb128 0x55
 8661 24b5 40030000 		.4byte	.LASF385
 8662 24b9 01       		.byte	0x1
 8663 24ba 56       		.byte	0x56
 8664 24bb A4240000 		.4byte	0x24a4
 8665 24bf 05       		.uleb128 0x5
 8666 24c0 03       		.byte	0x3
 8667 24c1 00000000 		.4byte	timer_thread_wa
 8668 24c5 55       		.uleb128 0x55
 8669 24c6 08120000 		.4byte	.LASF386
 8670 24ca 01       		.byte	0x1
 8671 24cb 58       		.byte	0x58
 8672 24cc A4240000 		.4byte	0x24a4
 8673 24d0 05       		.uleb128 0x5
 8674 24d1 03       		.byte	0x3
 8675 24d2 00000000 		.4byte	sample_send_thread_wa
 8676 24d6 55       		.uleb128 0x55
 8677 24d7 D51F0000 		.4byte	.LASF387
 8678 24db 01       		.byte	0x1
 8679 24dc 5A       		.byte	0x5a
 8680 24dd AA020000 		.4byte	0x2aa
 8681 24e1 05       		.uleb128 0x5
 8682 24e2 03       		.byte	0x3
 8683 24e3 00000000 		.4byte	sample_send_tp
 8684 24e7 57       		.uleb128 0x57
 8685 24e8 B6180000 		.4byte	.LASF388
 8686 24ec 14       		.byte	0x14
 8687 24ed A706     		.2byte	0x6a7
 8688 24ef 17010000 		.4byte	0x117
 8689 24f3 58       		.uleb128 0x58
ARM GAS  /var/folders/47/g7cdn6zj55s1hhv4njp6x8_h0000gn/T//cc224n80.s 			page 155


 8690 24f4 636800   		.ascii	"ch\000"
 8691 24f7 09       		.byte	0x9
 8692 24f8 0902     		.2byte	0x209
 8693 24fa 56040000 		.4byte	0x456
 8694 24fe 17       		.uleb128 0x17
 8695 24ff E0000000 		.4byte	0xe0
 8696 2503 0E250000 		.4byte	0x250e
 8697 2507 18       		.uleb128 0x18
 8698 2508 BD040000 		.4byte	0x4bd
 8699 250c 0B       		.byte	0xb
 8700 250d 00       		.byte	0
 8701 250e 59       		.uleb128 0x59
 8702 250f 5B110000 		.4byte	.LASF389
 8703 2513 01       		.byte	0x1
 8704 2514 28       		.byte	0x28
 8705 2515 1F250000 		.4byte	0x251f
 8706 2519 05       		.uleb128 0x5
 8707 251a 03       		.byte	0x3
 8708 251b 00000000 		.4byte	ADC_Value
 8709 251f 05       		.uleb128 0x5
 8710 2520 FE240000 		.4byte	0x24fe
 8711 2524 17       		.uleb128 0x17
 8712 2525 B1000000 		.4byte	0xb1
 8713 2529 34250000 		.4byte	0x2534
 8714 252d 18       		.uleb128 0x18
 8715 252e BD040000 		.4byte	0x4bd
 8716 2532 02       		.byte	0x2
 8717 2533 00       		.byte	0
 8718 2534 59       		.uleb128 0x59
 8719 2535 990C0000 		.4byte	.LASF390
 8720 2539 01       		.byte	0x1
 8721 253a 29       		.byte	0x29
 8722 253b 45250000 		.4byte	0x2545
 8723 253f 05       		.uleb128 0x5
 8724 2540 03       		.byte	0x3
 8725 2541 00000000 		.4byte	ADC_curr_norm_value
 8726 2545 05       		.uleb128 0x5
 8727 2546 24250000 		.4byte	0x2524
 8728 254a 17       		.uleb128 0x17
 8729 254b 25000000 		.4byte	0x25
 8730 254f 55250000 		.4byte	0x2555
 8731 2553 5A       		.uleb128 0x5a
 8732 2554 00       		.byte	0
 8733 2555 5B       		.uleb128 0x5b
 8734 2556 F2110000 		.4byte	.LASF391
 8735 255a 15       		.byte	0x15
 8736 255b 4E       		.byte	0x4e
 8737 255c 60250000 		.4byte	0x2560
 8738 2560 05       		.uleb128 0x5
 8739 2561 4A250000 		.4byte	0x254a
 8740 2565 5B       		.uleb128 0x5b
 8741 2566 64120000 		.4byte	.LASF392
 8742 256a 15       		.byte	0x15
 8743 256b 4F       		.byte	0x4f
 8744 256c 70250000 		.4byte	0x2570
 8745 2570 05       		.uleb128 0x5
 8746 2571 4A250000 		.4byte	0x254a
ARM GAS  /var/folders/47/g7cdn6zj55s1hhv4njp6x8_h0000gn/T//cc224n80.s 			page 156


 8747 2575 5B       		.uleb128 0x5b
 8748 2576 F51E0000 		.4byte	.LASF393
 8749 257a 15       		.byte	0x15
 8750 257b 50       		.byte	0x50
 8751 257c 80250000 		.4byte	0x2580
 8752 2580 05       		.uleb128 0x5
 8753 2581 4A250000 		.4byte	0x254a
 8754 2585 5B       		.uleb128 0x5b
 8755 2586 3A0A0000 		.4byte	.LASF394
 8756 258a 15       		.byte	0x15
 8757 258b 51       		.byte	0x51
 8758 258c 991D0000 		.4byte	0x1d99
 8759 2590 5C       		.uleb128 0x5c
 8760 2591 D01A0000 		.4byte	.LASF395
 8761 2595 16       		.byte	0x16
 8762 2596 24       		.byte	0x24
 8763 2597 A6250000 		.4byte	0x25a6
 8764 259b 0D       		.uleb128 0xd
 8765 259c 92080000 		.4byte	0x892
 8766 25a0 0D       		.uleb128 0xd
 8767 25a1 B1000000 		.4byte	0xb1
 8768 25a5 00       		.byte	0
 8769 25a6 5D       		.uleb128 0x5d
 8770 25a7 B71E0000 		.4byte	.LASF397
 8771 25ab 17       		.byte	0x17
 8772 25ac 8B       		.byte	0x8b
 8773 25ad 6E010000 		.4byte	0x16e
 8774 25b1 BB250000 		.4byte	0x25bb
 8775 25b5 0D       		.uleb128 0xd
 8776 25b6 6E010000 		.4byte	0x16e
 8777 25ba 00       		.byte	0
 8778 25bb 5E       		.uleb128 0x5e
 8779 25bc D4030000 		.4byte	.LASF398
 8780 25c0 87030000 		.4byte	0x387
 8781 25c4 D8250000 		.4byte	0x25d8
 8782 25c8 0D       		.uleb128 0xd
 8783 25c9 87030000 		.4byte	0x387
 8784 25cd 0D       		.uleb128 0xd
 8785 25ce D8250000 		.4byte	0x25d8
 8786 25d2 0D       		.uleb128 0xd
 8787 25d3 BD040000 		.4byte	0x4bd
 8788 25d7 00       		.byte	0
 8789 25d8 0A       		.uleb128 0xa
 8790 25d9 04       		.byte	0x4
 8791 25da DE250000 		.4byte	0x25de
 8792 25de 5F       		.uleb128 0x5f
 8793 25df 5D       		.uleb128 0x5d
 8794 25e0 C2050000 		.4byte	.LASF399
 8795 25e4 10       		.byte	0x10
 8796 25e5 89       		.byte	0x89
 8797 25e6 AA020000 		.4byte	0x2aa
 8798 25ea 08260000 		.4byte	0x2608
 8799 25ee 0D       		.uleb128 0xd
 8800 25ef 87030000 		.4byte	0x387
 8801 25f3 0D       		.uleb128 0xd
 8802 25f4 0C010000 		.4byte	0x10c
 8803 25f8 0D       		.uleb128 0xd
ARM GAS  /var/folders/47/g7cdn6zj55s1hhv4njp6x8_h0000gn/T//cc224n80.s 			page 157


 8804 25f9 58010000 		.4byte	0x158
 8805 25fd 0D       		.uleb128 0xd
 8806 25fe 76080000 		.4byte	0x876
 8807 2602 0D       		.uleb128 0xd
 8808 2603 87030000 		.4byte	0x387
 8809 2607 00       		.byte	0
 8810 2608 5C       		.uleb128 0x5c
 8811 2609 9C010000 		.4byte	.LASF400
 8812 260d 18       		.byte	0x18
 8813 260e 21       		.byte	0x21
 8814 260f 19260000 		.4byte	0x2619
 8815 2613 0D       		.uleb128 0xd
 8816 2614 C9100000 		.4byte	0x10c9
 8817 2618 00       		.byte	0
 8818 2619 60       		.uleb128 0x60
 8819 261a BD150000 		.4byte	.LASF437
 8820 261e 19       		.byte	0x19
 8821 261f 21       		.byte	0x21
 8822 2620 5C       		.uleb128 0x5c
 8823 2621 BC040000 		.4byte	.LASF401
 8824 2625 15       		.byte	0x15
 8825 2626 1F       		.byte	0x1f
 8826 2627 31260000 		.4byte	0x2631
 8827 262b 0D       		.uleb128 0xd
 8828 262c C9100000 		.4byte	0x10c9
 8829 2630 00       		.byte	0
 8830 2631 5C       		.uleb128 0x5c
 8831 2632 6C1A0000 		.4byte	.LASF402
 8832 2636 19       		.byte	0x19
 8833 2637 20       		.byte	0x20
 8834 2638 42260000 		.4byte	0x2642
 8835 263c 0D       		.uleb128 0xd
 8836 263d F6000000 		.4byte	0xf6
 8837 2641 00       		.byte	0
 8838 2642 61       		.uleb128 0x61
 8839 2643 DF130000 		.4byte	.LASF403
 8840 2647 18       		.byte	0x18
 8841 2648 25       		.byte	0x25
 8842 2649 AB0D0000 		.4byte	0xdab
 8843 264d 61       		.uleb128 0x61
 8844 264e EB1B0000 		.4byte	.LASF404
 8845 2652 15       		.byte	0x15
 8846 2653 47       		.byte	0x47
 8847 2654 AB0D0000 		.4byte	0xdab
 8848 2658 61       		.uleb128 0x61
 8849 2659 D00C0000 		.4byte	.LASF405
 8850 265d 18       		.byte	0x18
 8851 265e 24       		.byte	0x24
 8852 265f B9080000 		.4byte	0x8b9
 8853 2663 61       		.uleb128 0x61
 8854 2664 48050000 		.4byte	.LASF406
 8855 2668 15       		.byte	0x15
 8856 2669 30       		.byte	0x30
 8857 266a B9080000 		.4byte	0x8b9
 8858 266e 5C       		.uleb128 0x5c
 8859 266f 6C0C0000 		.4byte	.LASF407
 8860 2673 18       		.byte	0x18
ARM GAS  /var/folders/47/g7cdn6zj55s1hhv4njp6x8_h0000gn/T//cc224n80.s 			page 158


 8861 2674 31       		.byte	0x31
 8862 2675 89260000 		.4byte	0x2689
 8863 2679 0D       		.uleb128 0xd
 8864 267a 25000000 		.4byte	0x25
 8865 267e 0D       		.uleb128 0xd
 8866 267f 25000000 		.4byte	0x25
 8867 2683 0D       		.uleb128 0xd
 8868 2684 25000000 		.4byte	0x25
 8869 2688 00       		.byte	0
 8870 2689 61       		.uleb128 0x61
 8871 268a 67020000 		.4byte	.LASF408
 8872 268e 18       		.byte	0x18
 8873 268f 2D       		.byte	0x2d
 8874 2690 25000000 		.4byte	0x25
 8875 2694 61       		.uleb128 0x61
 8876 2695 F90F0000 		.4byte	.LASF409
 8877 2699 15       		.byte	0x15
 8878 269a 2C       		.byte	0x2c
 8879 269b 25000000 		.4byte	0x25
 8880 269f 61       		.uleb128 0x61
 8881 26a0 8A170000 		.4byte	.LASF410
 8882 26a4 18       		.byte	0x18
 8883 26a5 2E       		.byte	0x2e
 8884 26a6 25000000 		.4byte	0x25
 8885 26aa 61       		.uleb128 0x61
 8886 26ab 67050000 		.4byte	.LASF411
 8887 26af 15       		.byte	0x15
 8888 26b0 2D       		.byte	0x2d
 8889 26b1 25000000 		.4byte	0x25
 8890 26b5 61       		.uleb128 0x61
 8891 26b6 2E1A0000 		.4byte	.LASF412
 8892 26ba 18       		.byte	0x18
 8893 26bb 35       		.byte	0x35
 8894 26bc 25000000 		.4byte	0x25
 8895 26c0 61       		.uleb128 0x61
 8896 26c1 EC0B0000 		.4byte	.LASF413
 8897 26c5 15       		.byte	0x15
 8898 26c6 2E       		.byte	0x2e
 8899 26c7 25000000 		.4byte	0x25
 8900 26cb 61       		.uleb128 0x61
 8901 26cc 94160000 		.4byte	.LASF414
 8902 26d0 18       		.byte	0x18
 8903 26d1 36       		.byte	0x36
 8904 26d2 25000000 		.4byte	0x25
 8905 26d6 61       		.uleb128 0x61
 8906 26d7 500A0000 		.4byte	.LASF415
 8907 26db 15       		.byte	0x15
 8908 26dc 2F       		.byte	0x2f
 8909 26dd 25000000 		.4byte	0x25
 8910 26e1 61       		.uleb128 0x61
 8911 26e2 6B180000 		.4byte	.LASF416
 8912 26e6 18       		.byte	0x18
 8913 26e7 37       		.byte	0x37
 8914 26e8 25000000 		.4byte	0x25
 8915 26ec 61       		.uleb128 0x61
 8916 26ed C70F0000 		.4byte	.LASF417
 8917 26f1 15       		.byte	0x15
ARM GAS  /var/folders/47/g7cdn6zj55s1hhv4njp6x8_h0000gn/T//cc224n80.s 			page 159


 8918 26f2 36       		.byte	0x36
 8919 26f3 25000000 		.4byte	0x25
 8920 26f7 61       		.uleb128 0x61
 8921 26f8 5E0A0000 		.4byte	.LASF418
 8922 26fc 18       		.byte	0x18
 8923 26fd 38       		.byte	0x38
 8924 26fe 25000000 		.4byte	0x25
 8925 2702 61       		.uleb128 0x61
 8926 2703 48000000 		.4byte	.LASF419
 8927 2707 15       		.byte	0x15
 8928 2708 37       		.byte	0x37
 8929 2709 25000000 		.4byte	0x25
 8930 270d 61       		.uleb128 0x61
 8931 270e 2F060000 		.4byte	.LASF420
 8932 2712 18       		.byte	0x18
 8933 2713 3B       		.byte	0x3b
 8934 2714 25000000 		.4byte	0x25
 8935 2718 61       		.uleb128 0x61
 8936 2719 22130000 		.4byte	.LASF421
 8937 271d 15       		.byte	0x15
 8938 271e 38       		.byte	0x38
 8939 271f 25000000 		.4byte	0x25
 8940 2723 61       		.uleb128 0x61
 8941 2724 FD080000 		.4byte	.LASF422
 8942 2728 18       		.byte	0x18
 8943 2729 3C       		.byte	0x3c
 8944 272a 25000000 		.4byte	0x25
 8945 272e 61       		.uleb128 0x61
 8946 272f 3A040000 		.4byte	.LASF423
 8947 2733 15       		.byte	0x15
 8948 2734 39       		.byte	0x39
 8949 2735 25000000 		.4byte	0x25
 8950 2739 61       		.uleb128 0x61
 8951 273a DA120000 		.4byte	.LASF424
 8952 273e 18       		.byte	0x18
 8953 273f 3D       		.byte	0x3d
 8954 2740 25000000 		.4byte	0x25
 8955 2744 61       		.uleb128 0x61
 8956 2745 E7010000 		.4byte	.LASF425
 8957 2749 15       		.byte	0x15
 8958 274a 3A       		.byte	0x3a
 8959 274b 25000000 		.4byte	0x25
 8960 274f 61       		.uleb128 0x61
 8961 2750 8F090000 		.4byte	.LASF426
 8962 2754 18       		.byte	0x18
 8963 2755 3E       		.byte	0x3e
 8964 2756 25000000 		.4byte	0x25
 8965 275a 61       		.uleb128 0x61
 8966 275b 7E1C0000 		.4byte	.LASF427
 8967 275f 15       		.byte	0x15
 8968 2760 3B       		.byte	0x3b
 8969 2761 25000000 		.4byte	0x25
 8970 2765 5D       		.uleb128 0x5d
 8971 2766 4A150000 		.4byte	.LASF428
 8972 276a 18       		.byte	0x18
 8973 276b 3F       		.byte	0x3f
 8974 276c B1000000 		.4byte	0xb1
ARM GAS  /var/folders/47/g7cdn6zj55s1hhv4njp6x8_h0000gn/T//cc224n80.s 			page 160


 8975 2770 7A270000 		.4byte	0x277a
 8976 2774 0D       		.uleb128 0xd
 8977 2775 AB0D0000 		.4byte	0xdab
 8978 2779 00       		.byte	0
 8979 277a 5D       		.uleb128 0x5d
 8980 277b 1F040000 		.4byte	.LASF429
 8981 277f 15       		.byte	0x15
 8982 2780 33       		.byte	0x33
 8983 2781 B1000000 		.4byte	0xb1
 8984 2785 8F270000 		.4byte	0x278f
 8985 2789 0D       		.uleb128 0xd
 8986 278a AB0D0000 		.4byte	0xdab
 8987 278e 00       		.byte	0
 8988 278f 5D       		.uleb128 0x5d
 8989 2790 01010000 		.4byte	.LASF430
 8990 2794 18       		.byte	0x18
 8991 2795 40       		.byte	0x40
 8992 2796 B1000000 		.4byte	0xb1
 8993 279a A4270000 		.4byte	0x27a4
 8994 279e 0D       		.uleb128 0xd
 8995 279f AB0D0000 		.4byte	0xdab
 8996 27a3 00       		.byte	0
 8997 27a4 5D       		.uleb128 0x5d
 8998 27a5 04140000 		.4byte	.LASF431
 8999 27a9 15       		.byte	0x15
 9000 27aa 34       		.byte	0x34
 9001 27ab B1000000 		.4byte	0xb1
 9002 27af B9270000 		.4byte	0x27b9
 9003 27b3 0D       		.uleb128 0xd
 9004 27b4 AB0D0000 		.4byte	0xdab
 9005 27b8 00       		.byte	0
 9006 27b9 61       		.uleb128 0x61
 9007 27ba 37100000 		.4byte	.LASF432
 9008 27be 18       		.byte	0x18
 9009 27bf 4C       		.byte	0x4c
 9010 27c0 25000000 		.4byte	0x25
 9011 27c4 61       		.uleb128 0x61
 9012 27c5 A91F0000 		.4byte	.LASF433
 9013 27c9 15       		.byte	0x15
 9014 27ca 45       		.byte	0x45
 9015 27cb 25000000 		.4byte	0x25
 9016 27cf 61       		.uleb128 0x61
 9017 27d0 26030000 		.4byte	.LASF434
 9018 27d4 18       		.byte	0x18
 9019 27d5 34       		.byte	0x34
 9020 27d6 25000000 		.4byte	0x25
 9021 27da 61       		.uleb128 0x61
 9022 27db D6150000 		.4byte	.LASF435
 9023 27df 19       		.byte	0x19
 9024 27e0 23       		.byte	0x23
 9025 27e1 25000000 		.4byte	0x25
 9026 27e5 61       		.uleb128 0x61
 9027 27e6 3A010000 		.4byte	.LASF436
 9028 27ea 15       		.byte	0x15
 9029 27eb 2B       		.byte	0x2b
 9030 27ec B1000000 		.4byte	0xb1
 9031 27f0 60       		.uleb128 0x60
ARM GAS  /var/folders/47/g7cdn6zj55s1hhv4njp6x8_h0000gn/T//cc224n80.s 			page 161


 9032 27f1 E7150000 		.4byte	.LASF438
 9033 27f5 15       		.byte	0x15
 9034 27f6 35       		.byte	0x35
 9035 27f7 5C       		.uleb128 0x5c
 9036 27f8 87110000 		.4byte	.LASF439
 9037 27fc 18       		.byte	0x18
 9038 27fd 27       		.byte	0x27
 9039 27fe 08280000 		.4byte	0x2808
 9040 2802 0D       		.uleb128 0xd
 9041 2803 25000000 		.4byte	0x25
 9042 2807 00       		.byte	0
 9043 2808 5C       		.uleb128 0x5c
 9044 2809 1B1F0000 		.4byte	.LASF440
 9045 280d 15       		.byte	0x15
 9046 280e 23       		.byte	0x23
 9047 280f 19280000 		.4byte	0x2819
 9048 2813 0D       		.uleb128 0xd
 9049 2814 25000000 		.4byte	0x25
 9050 2818 00       		.byte	0
 9051 2819 5C       		.uleb128 0x5c
 9052 281a 3D0F0000 		.4byte	.LASF441
 9053 281e 18       		.byte	0x18
 9054 281f 28       		.byte	0x28
 9055 2820 2A280000 		.4byte	0x282a
 9056 2824 0D       		.uleb128 0xd
 9057 2825 25000000 		.4byte	0x25
 9058 2829 00       		.byte	0
 9059 282a 5C       		.uleb128 0x5c
 9060 282b 24010000 		.4byte	.LASF442
 9061 282f 15       		.byte	0x15
 9062 2830 24       		.byte	0x24
 9063 2831 3B280000 		.4byte	0x283b
 9064 2835 0D       		.uleb128 0xd
 9065 2836 25000000 		.4byte	0x25
 9066 283a 00       		.byte	0
 9067 283b 5C       		.uleb128 0x5c
 9068 283c 100A0000 		.4byte	.LASF443
 9069 2840 18       		.byte	0x18
 9070 2841 29       		.byte	0x29
 9071 2842 4C280000 		.4byte	0x284c
 9072 2846 0D       		.uleb128 0xd
 9073 2847 25000000 		.4byte	0x25
 9074 284b 00       		.byte	0
 9075 284c 5C       		.uleb128 0x5c
 9076 284d 50120000 		.4byte	.LASF444
 9077 2851 15       		.byte	0x15
 9078 2852 25       		.byte	0x25
 9079 2853 5D280000 		.4byte	0x285d
 9080 2857 0D       		.uleb128 0xd
 9081 2858 25000000 		.4byte	0x25
 9082 285c 00       		.byte	0
 9083 285d 5C       		.uleb128 0x5c
 9084 285e 34150000 		.4byte	.LASF445
 9085 2862 18       		.byte	0x18
 9086 2863 2A       		.byte	0x2a
 9087 2864 6E280000 		.4byte	0x286e
 9088 2868 0D       		.uleb128 0xd
ARM GAS  /var/folders/47/g7cdn6zj55s1hhv4njp6x8_h0000gn/T//cc224n80.s 			page 162


 9089 2869 25000000 		.4byte	0x25
 9090 286d 00       		.byte	0
 9091 286e 5C       		.uleb128 0x5c
 9092 286f 0E0C0000 		.4byte	.LASF446
 9093 2873 15       		.byte	0x15
 9094 2874 26       		.byte	0x26
 9095 2875 7F280000 		.4byte	0x287f
 9096 2879 0D       		.uleb128 0xd
 9097 287a 25000000 		.4byte	0x25
 9098 287e 00       		.byte	0
 9099 287f 5C       		.uleb128 0x5c
 9100 2880 1A100000 		.4byte	.LASF447
 9101 2884 18       		.byte	0x18
 9102 2885 2B       		.byte	0x2b
 9103 2886 90280000 		.4byte	0x2890
 9104 288a 0D       		.uleb128 0xd
 9105 288b 25000000 		.4byte	0x25
 9106 288f 00       		.byte	0
 9107 2890 5C       		.uleb128 0x5c
 9108 2891 ED060000 		.4byte	.LASF448
 9109 2895 15       		.byte	0x15
 9110 2896 27       		.byte	0x27
 9111 2897 A1280000 		.4byte	0x28a1
 9112 289b 0D       		.uleb128 0xd
 9113 289c 25000000 		.4byte	0x25
 9114 28a0 00       		.byte	0
 9115 28a1 5C       		.uleb128 0x5c
 9116 28a2 3A1C0000 		.4byte	.LASF449
 9117 28a6 18       		.byte	0x18
 9118 28a7 2C       		.byte	0x2c
 9119 28a8 B2280000 		.4byte	0x28b2
 9120 28ac 0D       		.uleb128 0xd
 9121 28ad 25000000 		.4byte	0x25
 9122 28b1 00       		.byte	0
 9123 28b2 5C       		.uleb128 0x5c
 9124 28b3 B60B0000 		.4byte	.LASF450
 9125 28b7 15       		.byte	0x15
 9126 28b8 28       		.byte	0x28
 9127 28b9 C3280000 		.4byte	0x28c3
 9128 28bd 0D       		.uleb128 0xd
 9129 28be 25000000 		.4byte	0x25
 9130 28c2 00       		.byte	0
 9131 28c3 62       		.uleb128 0x62
 9132 28c4 EE170000 		.4byte	.LASF451
 9133 28c8 1A       		.byte	0x1a
 9134 28c9 5101     		.2byte	0x151
 9135 28cb 25000000 		.4byte	0x25
 9136 28cf D9280000 		.4byte	0x28d9
 9137 28d3 0D       		.uleb128 0xd
 9138 28d4 25000000 		.4byte	0x25
 9139 28d8 00       		.byte	0
 9140 28d9 5C       		.uleb128 0x5c
 9141 28da 6D140000 		.4byte	.LASF452
 9142 28de 1B       		.byte	0x1b
 9143 28df 20       		.byte	0x20
 9144 28e0 EA280000 		.4byte	0x28ea
 9145 28e4 0D       		.uleb128 0xd
ARM GAS  /var/folders/47/g7cdn6zj55s1hhv4njp6x8_h0000gn/T//cc224n80.s 			page 163


 9146 28e5 EA280000 		.4byte	0x28ea
 9147 28e9 00       		.byte	0
 9148 28ea 0A       		.uleb128 0xa
 9149 28eb 04       		.byte	0x4
 9150 28ec 900E0000 		.4byte	0xe90
 9151 28f0 60       		.uleb128 0x60
 9152 28f1 320E0000 		.4byte	.LASF453
 9153 28f5 18       		.byte	0x18
 9154 28f6 26       		.byte	0x26
 9155 28f7 5D       		.uleb128 0x5d
 9156 28f8 FF1B0000 		.4byte	.LASF454
 9157 28fc 1C       		.byte	0x1c
 9158 28fd 23       		.byte	0x23
 9159 28fe 25000000 		.4byte	0x25
 9160 2902 20290000 		.4byte	0x2920
 9161 2906 0D       		.uleb128 0xd
 9162 2907 25000000 		.4byte	0x25
 9163 290b 0D       		.uleb128 0xd
 9164 290c 25000000 		.4byte	0x25
 9165 2910 0D       		.uleb128 0xd
 9166 2911 25000000 		.4byte	0x25
 9167 2915 0D       		.uleb128 0xd
 9168 2916 25000000 		.4byte	0x25
 9169 291a 0D       		.uleb128 0xd
 9170 291b 25000000 		.4byte	0x25
 9171 291f 00       		.byte	0
 9172 2920 60       		.uleb128 0x60
 9173 2921 E3190000 		.4byte	.LASF455
 9174 2925 19       		.byte	0x19
 9175 2926 1F       		.byte	0x1f
 9176 2927 5C       		.uleb128 0x5c
 9177 2928 FB030000 		.4byte	.LASF456
 9178 292c 18       		.byte	0x18
 9179 292d 23       		.byte	0x23
 9180 292e 38290000 		.4byte	0x2938
 9181 2932 0D       		.uleb128 0xd
 9182 2933 C9100000 		.4byte	0x10c9
 9183 2937 00       		.byte	0
 9184 2938 5C       		.uleb128 0x5c
 9185 2939 220D0000 		.4byte	.LASF457
 9186 293d 15       		.byte	0x15
 9187 293e 21       		.byte	0x21
 9188 293f 49290000 		.4byte	0x2949
 9189 2943 0D       		.uleb128 0xd
 9190 2944 C9100000 		.4byte	0x10c9
 9191 2948 00       		.byte	0
 9192 2949 60       		.uleb128 0x60
 9193 294a D1140000 		.4byte	.LASF458
 9194 294e 18       		.byte	0x18
 9195 294f 22       		.byte	0x22
 9196 2950 5C       		.uleb128 0x5c
 9197 2951 0F170000 		.4byte	.LASF459
 9198 2955 19       		.byte	0x19
 9199 2956 26       		.byte	0x26
 9200 2957 61290000 		.4byte	0x2961
 9201 295b 0D       		.uleb128 0xd
 9202 295c F6000000 		.4byte	0xf6
ARM GAS  /var/folders/47/g7cdn6zj55s1hhv4njp6x8_h0000gn/T//cc224n80.s 			page 164


 9203 2960 00       		.byte	0
 9204 2961 60       		.uleb128 0x60
 9205 2962 DF0A0000 		.4byte	.LASF460
 9206 2966 15       		.byte	0x15
 9207 2967 20       		.byte	0x20
 9208 2968 5C       		.uleb128 0x5c
 9209 2969 2E0B0000 		.4byte	.LASF461
 9210 296d 10       		.byte	0x10
 9211 296e 96       		.byte	0x96
 9212 296f 79290000 		.4byte	0x2979
 9213 2973 0D       		.uleb128 0xd
 9214 2974 84010000 		.4byte	0x184
 9215 2978 00       		.byte	0
 9216 2979 60       		.uleb128 0x60
 9217 297a E2050000 		.4byte	.LASF462
 9218 297e 1D       		.byte	0x1d
 9219 297f 28       		.byte	0x28
 9220 2980 61       		.uleb128 0x61
 9221 2981 57140000 		.4byte	.LASF463
 9222 2985 15       		.byte	0x15
 9223 2986 40       		.byte	0x40
 9224 2987 B1000000 		.4byte	0xb1
 9225 298b 61       		.uleb128 0x61
 9226 298c CB1E0000 		.4byte	.LASF464
 9227 2990 15       		.byte	0x15
 9228 2991 44       		.byte	0x44
 9229 2992 25000000 		.4byte	0x25
 9230 2996 61       		.uleb128 0x61
 9231 2997 4F070000 		.4byte	.LASF465
 9232 299b 18       		.byte	0x18
 9233 299c 39       		.byte	0x39
 9234 299d 25000000 		.4byte	0x25
 9235 29a1 61       		.uleb128 0x61
 9236 29a2 FF070000 		.4byte	.LASF466
 9237 29a6 18       		.byte	0x18
 9238 29a7 3A       		.byte	0x3a
 9239 29a8 25000000 		.4byte	0x25
 9240 29ac 5C       		.uleb128 0x5c
 9241 29ad 50030000 		.4byte	.LASF467
 9242 29b1 17       		.byte	0x17
 9243 29b2 85       		.byte	0x85
 9244 29b3 C2290000 		.4byte	0x29c2
 9245 29b7 0D       		.uleb128 0xd
 9246 29b8 AA020000 		.4byte	0x2aa
 9247 29bc 0D       		.uleb128 0xd
 9248 29bd 6E010000 		.4byte	0x16e
 9249 29c1 00       		.byte	0
 9250 29c2 60       		.uleb128 0x60
 9251 29c3 F2190000 		.4byte	.LASF468
 9252 29c7 18       		.byte	0x18
 9253 29c8 4F       		.byte	0x4f
 9254 29c9 60       		.uleb128 0x60
 9255 29ca F3170000 		.4byte	.LASF469
 9256 29ce 15       		.byte	0x15
 9257 29cf 4A       		.byte	0x4a
 9258 29d0 00       		.byte	0
 9259              		.section	.debug_abbrev,"",%progbits
ARM GAS  /var/folders/47/g7cdn6zj55s1hhv4njp6x8_h0000gn/T//cc224n80.s 			page 165


 9260              	.Ldebug_abbrev0:
 9261 0000 01       		.uleb128 0x1
 9262 0001 11       		.uleb128 0x11
 9263 0002 01       		.byte	0x1
 9264 0003 25       		.uleb128 0x25
 9265 0004 0E       		.uleb128 0xe
 9266 0005 13       		.uleb128 0x13
 9267 0006 0B       		.uleb128 0xb
 9268 0007 03       		.uleb128 0x3
 9269 0008 0E       		.uleb128 0xe
 9270 0009 1B       		.uleb128 0x1b
 9271 000a 0E       		.uleb128 0xe
 9272 000b 55       		.uleb128 0x55
 9273 000c 17       		.uleb128 0x17
 9274 000d 11       		.uleb128 0x11
 9275 000e 01       		.uleb128 0x1
 9276 000f 10       		.uleb128 0x10
 9277 0010 17       		.uleb128 0x17
 9278 0011 00       		.byte	0
 9279 0012 00       		.byte	0
 9280 0013 02       		.uleb128 0x2
 9281 0014 24       		.uleb128 0x24
 9282 0015 00       		.byte	0
 9283 0016 0B       		.uleb128 0xb
 9284 0017 0B       		.uleb128 0xb
 9285 0018 3E       		.uleb128 0x3e
 9286 0019 0B       		.uleb128 0xb
 9287 001a 03       		.uleb128 0x3
 9288 001b 0E       		.uleb128 0xe
 9289 001c 00       		.byte	0
 9290 001d 00       		.byte	0
 9291 001e 03       		.uleb128 0x3
 9292 001f 16       		.uleb128 0x16
 9293 0020 00       		.byte	0
 9294 0021 03       		.uleb128 0x3
 9295 0022 0E       		.uleb128 0xe
 9296 0023 3A       		.uleb128 0x3a
 9297 0024 0B       		.uleb128 0xb
 9298 0025 3B       		.uleb128 0x3b
 9299 0026 0B       		.uleb128 0xb
 9300 0027 49       		.uleb128 0x49
 9301 0028 13       		.uleb128 0x13
 9302 0029 00       		.byte	0
 9303 002a 00       		.byte	0
 9304 002b 04       		.uleb128 0x4
 9305 002c 24       		.uleb128 0x24
 9306 002d 00       		.byte	0
 9307 002e 0B       		.uleb128 0xb
 9308 002f 0B       		.uleb128 0xb
 9309 0030 3E       		.uleb128 0x3e
 9310 0031 0B       		.uleb128 0xb
 9311 0032 03       		.uleb128 0x3
 9312 0033 08       		.uleb128 0x8
 9313 0034 00       		.byte	0
 9314 0035 00       		.byte	0
 9315 0036 05       		.uleb128 0x5
 9316 0037 35       		.uleb128 0x35
ARM GAS  /var/folders/47/g7cdn6zj55s1hhv4njp6x8_h0000gn/T//cc224n80.s 			page 166


 9317 0038 00       		.byte	0
 9318 0039 49       		.uleb128 0x49
 9319 003a 13       		.uleb128 0x13
 9320 003b 00       		.byte	0
 9321 003c 00       		.byte	0
 9322 003d 06       		.uleb128 0x6
 9323 003e 13       		.uleb128 0x13
 9324 003f 01       		.byte	0x1
 9325 0040 03       		.uleb128 0x3
 9326 0041 0E       		.uleb128 0xe
 9327 0042 0B       		.uleb128 0xb
 9328 0043 0B       		.uleb128 0xb
 9329 0044 3A       		.uleb128 0x3a
 9330 0045 0B       		.uleb128 0xb
 9331 0046 3B       		.uleb128 0x3b
 9332 0047 0B       		.uleb128 0xb
 9333 0048 01       		.uleb128 0x1
 9334 0049 13       		.uleb128 0x13
 9335 004a 00       		.byte	0
 9336 004b 00       		.byte	0
 9337 004c 07       		.uleb128 0x7
 9338 004d 0D       		.uleb128 0xd
 9339 004e 00       		.byte	0
 9340 004f 03       		.uleb128 0x3
 9341 0050 0E       		.uleb128 0xe
 9342 0051 3A       		.uleb128 0x3a
 9343 0052 0B       		.uleb128 0xb
 9344 0053 3B       		.uleb128 0x3b
 9345 0054 0B       		.uleb128 0xb
 9346 0055 49       		.uleb128 0x49
 9347 0056 13       		.uleb128 0x13
 9348 0057 38       		.uleb128 0x38
 9349 0058 0B       		.uleb128 0xb
 9350 0059 00       		.byte	0
 9351 005a 00       		.byte	0
 9352 005b 08       		.uleb128 0x8
 9353 005c 0D       		.uleb128 0xd
 9354 005d 00       		.byte	0
 9355 005e 03       		.uleb128 0x3
 9356 005f 08       		.uleb128 0x8
 9357 0060 3A       		.uleb128 0x3a
 9358 0061 0B       		.uleb128 0xb
 9359 0062 3B       		.uleb128 0x3b
 9360 0063 05       		.uleb128 0x5
 9361 0064 49       		.uleb128 0x49
 9362 0065 13       		.uleb128 0x13
 9363 0066 38       		.uleb128 0x38
 9364 0067 0B       		.uleb128 0xb
 9365 0068 00       		.byte	0
 9366 0069 00       		.byte	0
 9367 006a 09       		.uleb128 0x9
 9368 006b 0D       		.uleb128 0xd
 9369 006c 00       		.byte	0
 9370 006d 03       		.uleb128 0x3
 9371 006e 0E       		.uleb128 0xe
 9372 006f 3A       		.uleb128 0x3a
 9373 0070 0B       		.uleb128 0xb
ARM GAS  /var/folders/47/g7cdn6zj55s1hhv4njp6x8_h0000gn/T//cc224n80.s 			page 167


 9374 0071 3B       		.uleb128 0x3b
 9375 0072 05       		.uleb128 0x5
 9376 0073 49       		.uleb128 0x49
 9377 0074 13       		.uleb128 0x13
 9378 0075 38       		.uleb128 0x38
 9379 0076 0B       		.uleb128 0xb
 9380 0077 00       		.byte	0
 9381 0078 00       		.byte	0
 9382 0079 0A       		.uleb128 0xa
 9383 007a 0F       		.uleb128 0xf
 9384 007b 00       		.byte	0
 9385 007c 0B       		.uleb128 0xb
 9386 007d 0B       		.uleb128 0xb
 9387 007e 49       		.uleb128 0x49
 9388 007f 13       		.uleb128 0x13
 9389 0080 00       		.byte	0
 9390 0081 00       		.byte	0
 9391 0082 0B       		.uleb128 0xb
 9392 0083 13       		.uleb128 0x13
 9393 0084 01       		.byte	0x1
 9394 0085 03       		.uleb128 0x3
 9395 0086 0E       		.uleb128 0xe
 9396 0087 0B       		.uleb128 0xb
 9397 0088 0B       		.uleb128 0xb
 9398 0089 3A       		.uleb128 0x3a
 9399 008a 0B       		.uleb128 0xb
 9400 008b 3B       		.uleb128 0x3b
 9401 008c 05       		.uleb128 0x5
 9402 008d 01       		.uleb128 0x1
 9403 008e 13       		.uleb128 0x13
 9404 008f 00       		.byte	0
 9405 0090 00       		.byte	0
 9406 0091 0C       		.uleb128 0xc
 9407 0092 15       		.uleb128 0x15
 9408 0093 01       		.byte	0x1
 9409 0094 27       		.uleb128 0x27
 9410 0095 19       		.uleb128 0x19
 9411 0096 01       		.uleb128 0x1
 9412 0097 13       		.uleb128 0x13
 9413 0098 00       		.byte	0
 9414 0099 00       		.byte	0
 9415 009a 0D       		.uleb128 0xd
 9416 009b 05       		.uleb128 0x5
 9417 009c 00       		.byte	0
 9418 009d 49       		.uleb128 0x49
 9419 009e 13       		.uleb128 0x13
 9420 009f 00       		.byte	0
 9421 00a0 00       		.byte	0
 9422 00a1 0E       		.uleb128 0xe
 9423 00a2 0F       		.uleb128 0xf
 9424 00a3 00       		.byte	0
 9425 00a4 0B       		.uleb128 0xb
 9426 00a5 0B       		.uleb128 0xb
 9427 00a6 00       		.byte	0
 9428 00a7 00       		.byte	0
 9429 00a8 0F       		.uleb128 0xf
 9430 00a9 13       		.uleb128 0x13
ARM GAS  /var/folders/47/g7cdn6zj55s1hhv4njp6x8_h0000gn/T//cc224n80.s 			page 168


 9431 00aa 01       		.byte	0x1
 9432 00ab 03       		.uleb128 0x3
 9433 00ac 0E       		.uleb128 0xe
 9434 00ad 0B       		.uleb128 0xb
 9435 00ae 05       		.uleb128 0x5
 9436 00af 3A       		.uleb128 0x3a
 9437 00b0 0B       		.uleb128 0xb
 9438 00b1 3B       		.uleb128 0x3b
 9439 00b2 05       		.uleb128 0x5
 9440 00b3 01       		.uleb128 0x1
 9441 00b4 13       		.uleb128 0x13
 9442 00b5 00       		.byte	0
 9443 00b6 00       		.byte	0
 9444 00b7 10       		.uleb128 0x10
 9445 00b8 13       		.uleb128 0x13
 9446 00b9 01       		.byte	0x1
 9447 00ba 0B       		.uleb128 0xb
 9448 00bb 0B       		.uleb128 0xb
 9449 00bc 3A       		.uleb128 0x3a
 9450 00bd 0B       		.uleb128 0xb
 9451 00be 3B       		.uleb128 0x3b
 9452 00bf 05       		.uleb128 0x5
 9453 00c0 01       		.uleb128 0x1
 9454 00c1 13       		.uleb128 0x13
 9455 00c2 00       		.byte	0
 9456 00c3 00       		.byte	0
 9457 00c4 11       		.uleb128 0x11
 9458 00c5 16       		.uleb128 0x16
 9459 00c6 00       		.byte	0
 9460 00c7 03       		.uleb128 0x3
 9461 00c8 0E       		.uleb128 0xe
 9462 00c9 3A       		.uleb128 0x3a
 9463 00ca 0B       		.uleb128 0xb
 9464 00cb 3B       		.uleb128 0x3b
 9465 00cc 05       		.uleb128 0x5
 9466 00cd 49       		.uleb128 0x49
 9467 00ce 13       		.uleb128 0x13
 9468 00cf 00       		.byte	0
 9469 00d0 00       		.byte	0
 9470 00d1 12       		.uleb128 0x12
 9471 00d2 0D       		.uleb128 0xd
 9472 00d3 00       		.byte	0
 9473 00d4 03       		.uleb128 0x3
 9474 00d5 08       		.uleb128 0x8
 9475 00d6 3A       		.uleb128 0x3a
 9476 00d7 0B       		.uleb128 0xb
 9477 00d8 3B       		.uleb128 0x3b
 9478 00d9 0B       		.uleb128 0xb
 9479 00da 49       		.uleb128 0x49
 9480 00db 13       		.uleb128 0x13
 9481 00dc 38       		.uleb128 0x38
 9482 00dd 0B       		.uleb128 0xb
 9483 00de 00       		.byte	0
 9484 00df 00       		.byte	0
 9485 00e0 13       		.uleb128 0x13
 9486 00e1 13       		.uleb128 0x13
 9487 00e2 01       		.byte	0x1
ARM GAS  /var/folders/47/g7cdn6zj55s1hhv4njp6x8_h0000gn/T//cc224n80.s 			page 169


 9488 00e3 0B       		.uleb128 0xb
 9489 00e4 0B       		.uleb128 0xb
 9490 00e5 3A       		.uleb128 0x3a
 9491 00e6 0B       		.uleb128 0xb
 9492 00e7 3B       		.uleb128 0x3b
 9493 00e8 0B       		.uleb128 0xb
 9494 00e9 01       		.uleb128 0x1
 9495 00ea 13       		.uleb128 0x13
 9496 00eb 00       		.byte	0
 9497 00ec 00       		.byte	0
 9498 00ed 14       		.uleb128 0x14
 9499 00ee 17       		.uleb128 0x17
 9500 00ef 01       		.byte	0x1
 9501 00f0 0B       		.uleb128 0xb
 9502 00f1 0B       		.uleb128 0xb
 9503 00f2 3A       		.uleb128 0x3a
 9504 00f3 0B       		.uleb128 0xb
 9505 00f4 3B       		.uleb128 0x3b
 9506 00f5 0B       		.uleb128 0xb
 9507 00f6 01       		.uleb128 0x1
 9508 00f7 13       		.uleb128 0x13
 9509 00f8 00       		.byte	0
 9510 00f9 00       		.byte	0
 9511 00fa 15       		.uleb128 0x15
 9512 00fb 0D       		.uleb128 0xd
 9513 00fc 00       		.byte	0
 9514 00fd 03       		.uleb128 0x3
 9515 00fe 0E       		.uleb128 0xe
 9516 00ff 3A       		.uleb128 0x3a
 9517 0100 0B       		.uleb128 0xb
 9518 0101 3B       		.uleb128 0x3b
 9519 0102 05       		.uleb128 0x5
 9520 0103 49       		.uleb128 0x49
 9521 0104 13       		.uleb128 0x13
 9522 0105 00       		.byte	0
 9523 0106 00       		.byte	0
 9524 0107 16       		.uleb128 0x16
 9525 0108 26       		.uleb128 0x26
 9526 0109 00       		.byte	0
 9527 010a 49       		.uleb128 0x49
 9528 010b 13       		.uleb128 0x13
 9529 010c 00       		.byte	0
 9530 010d 00       		.byte	0
 9531 010e 17       		.uleb128 0x17
 9532 010f 01       		.uleb128 0x1
 9533 0110 01       		.byte	0x1
 9534 0111 49       		.uleb128 0x49
 9535 0112 13       		.uleb128 0x13
 9536 0113 01       		.uleb128 0x1
 9537 0114 13       		.uleb128 0x13
 9538 0115 00       		.byte	0
 9539 0116 00       		.byte	0
 9540 0117 18       		.uleb128 0x18
 9541 0118 21       		.uleb128 0x21
 9542 0119 00       		.byte	0
 9543 011a 49       		.uleb128 0x49
 9544 011b 13       		.uleb128 0x13
ARM GAS  /var/folders/47/g7cdn6zj55s1hhv4njp6x8_h0000gn/T//cc224n80.s 			page 170


 9545 011c 2F       		.uleb128 0x2f
 9546 011d 0B       		.uleb128 0xb
 9547 011e 00       		.byte	0
 9548 011f 00       		.byte	0
 9549 0120 19       		.uleb128 0x19
 9550 0121 04       		.uleb128 0x4
 9551 0122 01       		.byte	0x1
 9552 0123 0B       		.uleb128 0xb
 9553 0124 0B       		.uleb128 0xb
 9554 0125 3A       		.uleb128 0x3a
 9555 0126 0B       		.uleb128 0xb
 9556 0127 3B       		.uleb128 0x3b
 9557 0128 0B       		.uleb128 0xb
 9558 0129 01       		.uleb128 0x1
 9559 012a 13       		.uleb128 0x13
 9560 012b 00       		.byte	0
 9561 012c 00       		.byte	0
 9562 012d 1A       		.uleb128 0x1a
 9563 012e 28       		.uleb128 0x28
 9564 012f 00       		.byte	0
 9565 0130 03       		.uleb128 0x3
 9566 0131 0E       		.uleb128 0xe
 9567 0132 1C       		.uleb128 0x1c
 9568 0133 0D       		.uleb128 0xd
 9569 0134 00       		.byte	0
 9570 0135 00       		.byte	0
 9571 0136 1B       		.uleb128 0x1b
 9572 0137 13       		.uleb128 0x13
 9573 0138 01       		.byte	0x1
 9574 0139 0B       		.uleb128 0xb
 9575 013a 05       		.uleb128 0x5
 9576 013b 3A       		.uleb128 0x3a
 9577 013c 0B       		.uleb128 0xb
 9578 013d 3B       		.uleb128 0x3b
 9579 013e 0B       		.uleb128 0xb
 9580 013f 01       		.uleb128 0x1
 9581 0140 13       		.uleb128 0x13
 9582 0141 00       		.byte	0
 9583 0142 00       		.byte	0
 9584 0143 1C       		.uleb128 0x1c
 9585 0144 0D       		.uleb128 0xd
 9586 0145 00       		.byte	0
 9587 0146 03       		.uleb128 0x3
 9588 0147 0E       		.uleb128 0xe
 9589 0148 3A       		.uleb128 0x3a
 9590 0149 0B       		.uleb128 0xb
 9591 014a 3B       		.uleb128 0x3b
 9592 014b 0B       		.uleb128 0xb
 9593 014c 49       		.uleb128 0x49
 9594 014d 13       		.uleb128 0x13
 9595 014e 38       		.uleb128 0x38
 9596 014f 05       		.uleb128 0x5
 9597 0150 00       		.byte	0
 9598 0151 00       		.byte	0
 9599 0152 1D       		.uleb128 0x1d
 9600 0153 0D       		.uleb128 0xd
 9601 0154 00       		.byte	0
ARM GAS  /var/folders/47/g7cdn6zj55s1hhv4njp6x8_h0000gn/T//cc224n80.s 			page 171


 9602 0155 03       		.uleb128 0x3
 9603 0156 08       		.uleb128 0x8
 9604 0157 3A       		.uleb128 0x3a
 9605 0158 0B       		.uleb128 0xb
 9606 0159 3B       		.uleb128 0x3b
 9607 015a 0B       		.uleb128 0xb
 9608 015b 49       		.uleb128 0x49
 9609 015c 13       		.uleb128 0x13
 9610 015d 00       		.byte	0
 9611 015e 00       		.byte	0
 9612 015f 1E       		.uleb128 0x1e
 9613 0160 15       		.uleb128 0x15
 9614 0161 00       		.byte	0
 9615 0162 27       		.uleb128 0x27
 9616 0163 19       		.uleb128 0x19
 9617 0164 00       		.byte	0
 9618 0165 00       		.byte	0
 9619 0166 1F       		.uleb128 0x1f
 9620 0167 2E       		.uleb128 0x2e
 9621 0168 01       		.byte	0x1
 9622 0169 03       		.uleb128 0x3
 9623 016a 0E       		.uleb128 0xe
 9624 016b 3A       		.uleb128 0x3a
 9625 016c 0B       		.uleb128 0xb
 9626 016d 3B       		.uleb128 0x3b
 9627 016e 05       		.uleb128 0x5
 9628 016f 27       		.uleb128 0x27
 9629 0170 19       		.uleb128 0x19
 9630 0171 20       		.uleb128 0x20
 9631 0172 0B       		.uleb128 0xb
 9632 0173 01       		.uleb128 0x1
 9633 0174 13       		.uleb128 0x13
 9634 0175 00       		.byte	0
 9635 0176 00       		.byte	0
 9636 0177 20       		.uleb128 0x20
 9637 0178 05       		.uleb128 0x5
 9638 0179 00       		.byte	0
 9639 017a 03       		.uleb128 0x3
 9640 017b 0E       		.uleb128 0xe
 9641 017c 3A       		.uleb128 0x3a
 9642 017d 0B       		.uleb128 0xb
 9643 017e 3B       		.uleb128 0x3b
 9644 017f 05       		.uleb128 0x5
 9645 0180 49       		.uleb128 0x49
 9646 0181 13       		.uleb128 0x13
 9647 0182 00       		.byte	0
 9648 0183 00       		.byte	0
 9649 0184 21       		.uleb128 0x21
 9650 0185 2E       		.uleb128 0x2e
 9651 0186 00       		.byte	0
 9652 0187 03       		.uleb128 0x3
 9653 0188 0E       		.uleb128 0xe
 9654 0189 3A       		.uleb128 0x3a
 9655 018a 0B       		.uleb128 0xb
 9656 018b 3B       		.uleb128 0x3b
 9657 018c 05       		.uleb128 0x5
 9658 018d 27       		.uleb128 0x27
ARM GAS  /var/folders/47/g7cdn6zj55s1hhv4njp6x8_h0000gn/T//cc224n80.s 			page 172


 9659 018e 19       		.uleb128 0x19
 9660 018f 20       		.uleb128 0x20
 9661 0190 0B       		.uleb128 0xb
 9662 0191 00       		.byte	0
 9663 0192 00       		.byte	0
 9664 0193 22       		.uleb128 0x22
 9665 0194 2E       		.uleb128 0x2e
 9666 0195 01       		.byte	0x1
 9667 0196 03       		.uleb128 0x3
 9668 0197 0E       		.uleb128 0xe
 9669 0198 3A       		.uleb128 0x3a
 9670 0199 0B       		.uleb128 0xb
 9671 019a 3B       		.uleb128 0x3b
 9672 019b 0B       		.uleb128 0xb
 9673 019c 27       		.uleb128 0x27
 9674 019d 19       		.uleb128 0x19
 9675 019e 20       		.uleb128 0x20
 9676 019f 0B       		.uleb128 0xb
 9677 01a0 01       		.uleb128 0x1
 9678 01a1 13       		.uleb128 0x13
 9679 01a2 00       		.byte	0
 9680 01a3 00       		.byte	0
 9681 01a4 23       		.uleb128 0x23
 9682 01a5 05       		.uleb128 0x5
 9683 01a6 00       		.byte	0
 9684 01a7 03       		.uleb128 0x3
 9685 01a8 0E       		.uleb128 0xe
 9686 01a9 3A       		.uleb128 0x3a
 9687 01aa 0B       		.uleb128 0xb
 9688 01ab 3B       		.uleb128 0x3b
 9689 01ac 0B       		.uleb128 0xb
 9690 01ad 49       		.uleb128 0x49
 9691 01ae 13       		.uleb128 0x13
 9692 01af 00       		.byte	0
 9693 01b0 00       		.byte	0
 9694 01b1 24       		.uleb128 0x24
 9695 01b2 2E       		.uleb128 0x2e
 9696 01b3 00       		.byte	0
 9697 01b4 03       		.uleb128 0x3
 9698 01b5 0E       		.uleb128 0xe
 9699 01b6 3A       		.uleb128 0x3a
 9700 01b7 0B       		.uleb128 0xb
 9701 01b8 3B       		.uleb128 0x3b
 9702 01b9 0B       		.uleb128 0xb
 9703 01ba 27       		.uleb128 0x27
 9704 01bb 19       		.uleb128 0x19
 9705 01bc 49       		.uleb128 0x49
 9706 01bd 13       		.uleb128 0x13
 9707 01be 20       		.uleb128 0x20
 9708 01bf 0B       		.uleb128 0xb
 9709 01c0 00       		.byte	0
 9710 01c1 00       		.byte	0
 9711 01c2 25       		.uleb128 0x25
 9712 01c3 2E       		.uleb128 0x2e
 9713 01c4 01       		.byte	0x1
 9714 01c5 3F       		.uleb128 0x3f
 9715 01c6 19       		.uleb128 0x19
ARM GAS  /var/folders/47/g7cdn6zj55s1hhv4njp6x8_h0000gn/T//cc224n80.s 			page 173


 9716 01c7 03       		.uleb128 0x3
 9717 01c8 0E       		.uleb128 0xe
 9718 01c9 3A       		.uleb128 0x3a
 9719 01ca 0B       		.uleb128 0xb
 9720 01cb 3B       		.uleb128 0x3b
 9721 01cc 05       		.uleb128 0x5
 9722 01cd 27       		.uleb128 0x27
 9723 01ce 19       		.uleb128 0x19
 9724 01cf 49       		.uleb128 0x49
 9725 01d0 13       		.uleb128 0x13
 9726 01d1 20       		.uleb128 0x20
 9727 01d2 0B       		.uleb128 0xb
 9728 01d3 01       		.uleb128 0x1
 9729 01d4 13       		.uleb128 0x13
 9730 01d5 00       		.byte	0
 9731 01d6 00       		.byte	0
 9732 01d7 26       		.uleb128 0x26
 9733 01d8 34       		.uleb128 0x34
 9734 01d9 00       		.byte	0
 9735 01da 03       		.uleb128 0x3
 9736 01db 08       		.uleb128 0x8
 9737 01dc 3A       		.uleb128 0x3a
 9738 01dd 0B       		.uleb128 0xb
 9739 01de 3B       		.uleb128 0x3b
 9740 01df 05       		.uleb128 0x5
 9741 01e0 49       		.uleb128 0x49
 9742 01e1 13       		.uleb128 0x13
 9743 01e2 00       		.byte	0
 9744 01e3 00       		.byte	0
 9745 01e4 27       		.uleb128 0x27
 9746 01e5 2E       		.uleb128 0x2e
 9747 01e6 01       		.byte	0x1
 9748 01e7 3F       		.uleb128 0x3f
 9749 01e8 19       		.uleb128 0x19
 9750 01e9 03       		.uleb128 0x3
 9751 01ea 0E       		.uleb128 0xe
 9752 01eb 3A       		.uleb128 0x3a
 9753 01ec 0B       		.uleb128 0xb
 9754 01ed 3B       		.uleb128 0x3b
 9755 01ee 05       		.uleb128 0x5
 9756 01ef 27       		.uleb128 0x27
 9757 01f0 19       		.uleb128 0x19
 9758 01f1 20       		.uleb128 0x20
 9759 01f2 0B       		.uleb128 0xb
 9760 01f3 01       		.uleb128 0x1
 9761 01f4 13       		.uleb128 0x13
 9762 01f5 00       		.byte	0
 9763 01f6 00       		.byte	0
 9764 01f7 28       		.uleb128 0x28
 9765 01f8 34       		.uleb128 0x34
 9766 01f9 00       		.byte	0
 9767 01fa 03       		.uleb128 0x3
 9768 01fb 0E       		.uleb128 0xe
 9769 01fc 49       		.uleb128 0x49
 9770 01fd 13       		.uleb128 0x13
 9771 01fe 34       		.uleb128 0x34
 9772 01ff 19       		.uleb128 0x19
ARM GAS  /var/folders/47/g7cdn6zj55s1hhv4njp6x8_h0000gn/T//cc224n80.s 			page 174


 9773 0200 1C       		.uleb128 0x1c
 9774 0201 0E       		.uleb128 0xe
 9775 0202 00       		.byte	0
 9776 0203 00       		.byte	0
 9777 0204 29       		.uleb128 0x29
 9778 0205 34       		.uleb128 0x34
 9779 0206 00       		.byte	0
 9780 0207 03       		.uleb128 0x3
 9781 0208 0E       		.uleb128 0xe
 9782 0209 3A       		.uleb128 0x3a
 9783 020a 0B       		.uleb128 0xb
 9784 020b 3B       		.uleb128 0x3b
 9785 020c 05       		.uleb128 0x5
 9786 020d 49       		.uleb128 0x49
 9787 020e 13       		.uleb128 0x13
 9788 020f 00       		.byte	0
 9789 0210 00       		.byte	0
 9790 0211 2A       		.uleb128 0x2a
 9791 0212 0B       		.uleb128 0xb
 9792 0213 01       		.byte	0x1
 9793 0214 00       		.byte	0
 9794 0215 00       		.byte	0
 9795 0216 2B       		.uleb128 0x2b
 9796 0217 2E       		.uleb128 0x2e
 9797 0218 01       		.byte	0x1
 9798 0219 03       		.uleb128 0x3
 9799 021a 0E       		.uleb128 0xe
 9800 021b 3A       		.uleb128 0x3a
 9801 021c 0B       		.uleb128 0xb
 9802 021d 3B       		.uleb128 0x3b
 9803 021e 05       		.uleb128 0x5
 9804 021f 27       		.uleb128 0x27
 9805 0220 19       		.uleb128 0x19
 9806 0221 11       		.uleb128 0x11
 9807 0222 01       		.uleb128 0x1
 9808 0223 12       		.uleb128 0x12
 9809 0224 06       		.uleb128 0x6
 9810 0225 40       		.uleb128 0x40
 9811 0226 18       		.uleb128 0x18
 9812 0227 9742     		.uleb128 0x2117
 9813 0229 19       		.uleb128 0x19
 9814 022a 01       		.uleb128 0x1
 9815 022b 13       		.uleb128 0x13
 9816 022c 00       		.byte	0
 9817 022d 00       		.byte	0
 9818 022e 2C       		.uleb128 0x2c
 9819 022f 05       		.uleb128 0x5
 9820 0230 00       		.byte	0
 9821 0231 03       		.uleb128 0x3
 9822 0232 08       		.uleb128 0x8
 9823 0233 3A       		.uleb128 0x3a
 9824 0234 0B       		.uleb128 0xb
 9825 0235 3B       		.uleb128 0x3b
 9826 0236 05       		.uleb128 0x5
 9827 0237 49       		.uleb128 0x49
 9828 0238 13       		.uleb128 0x13
 9829 0239 02       		.uleb128 0x2
ARM GAS  /var/folders/47/g7cdn6zj55s1hhv4njp6x8_h0000gn/T//cc224n80.s 			page 175


 9830 023a 17       		.uleb128 0x17
 9831 023b 00       		.byte	0
 9832 023c 00       		.byte	0
 9833 023d 2D       		.uleb128 0x2d
 9834 023e 1D       		.uleb128 0x1d
 9835 023f 01       		.byte	0x1
 9836 0240 31       		.uleb128 0x31
 9837 0241 13       		.uleb128 0x13
 9838 0242 52       		.uleb128 0x52
 9839 0243 01       		.uleb128 0x1
 9840 0244 55       		.uleb128 0x55
 9841 0245 17       		.uleb128 0x17
 9842 0246 58       		.uleb128 0x58
 9843 0247 0B       		.uleb128 0xb
 9844 0248 59       		.uleb128 0x59
 9845 0249 05       		.uleb128 0x5
 9846 024a 01       		.uleb128 0x1
 9847 024b 13       		.uleb128 0x13
 9848 024c 00       		.byte	0
 9849 024d 00       		.byte	0
 9850 024e 2E       		.uleb128 0x2e
 9851 024f 05       		.uleb128 0x5
 9852 0250 00       		.byte	0
 9853 0251 31       		.uleb128 0x31
 9854 0252 13       		.uleb128 0x13
 9855 0253 02       		.uleb128 0x2
 9856 0254 18       		.uleb128 0x18
 9857 0255 00       		.byte	0
 9858 0256 00       		.byte	0
 9859 0257 2F       		.uleb128 0x2f
 9860 0258 0B       		.uleb128 0xb
 9861 0259 01       		.byte	0x1
 9862 025a 11       		.uleb128 0x11
 9863 025b 01       		.uleb128 0x1
 9864 025c 12       		.uleb128 0x12
 9865 025d 06       		.uleb128 0x6
 9866 025e 01       		.uleb128 0x1
 9867 025f 13       		.uleb128 0x13
 9868 0260 00       		.byte	0
 9869 0261 00       		.byte	0
 9870 0262 30       		.uleb128 0x30
 9871 0263 34       		.uleb128 0x34
 9872 0264 00       		.byte	0
 9873 0265 03       		.uleb128 0x3
 9874 0266 08       		.uleb128 0x8
 9875 0267 3A       		.uleb128 0x3a
 9876 0268 0B       		.uleb128 0xb
 9877 0269 3B       		.uleb128 0x3b
 9878 026a 05       		.uleb128 0x5
 9879 026b 49       		.uleb128 0x49
 9880 026c 13       		.uleb128 0x13
 9881 026d 02       		.uleb128 0x2
 9882 026e 17       		.uleb128 0x17
 9883 026f 00       		.byte	0
 9884 0270 00       		.byte	0
 9885 0271 31       		.uleb128 0x31
 9886 0272 0B       		.uleb128 0xb
ARM GAS  /var/folders/47/g7cdn6zj55s1hhv4njp6x8_h0000gn/T//cc224n80.s 			page 176


 9887 0273 01       		.byte	0x1
 9888 0274 11       		.uleb128 0x11
 9889 0275 01       		.uleb128 0x1
 9890 0276 12       		.uleb128 0x12
 9891 0277 06       		.uleb128 0x6
 9892 0278 00       		.byte	0
 9893 0279 00       		.byte	0
 9894 027a 32       		.uleb128 0x32
 9895 027b 34       		.uleb128 0x34
 9896 027c 00       		.byte	0
 9897 027d 03       		.uleb128 0x3
 9898 027e 0E       		.uleb128 0xe
 9899 027f 3A       		.uleb128 0x3a
 9900 0280 0B       		.uleb128 0xb
 9901 0281 3B       		.uleb128 0x3b
 9902 0282 05       		.uleb128 0x5
 9903 0283 49       		.uleb128 0x49
 9904 0284 13       		.uleb128 0x13
 9905 0285 02       		.uleb128 0x2
 9906 0286 18       		.uleb128 0x18
 9907 0287 00       		.byte	0
 9908 0288 00       		.byte	0
 9909 0289 33       		.uleb128 0x33
 9910 028a 34       		.uleb128 0x34
 9911 028b 00       		.byte	0
 9912 028c 03       		.uleb128 0x3
 9913 028d 0E       		.uleb128 0xe
 9914 028e 3A       		.uleb128 0x3a
 9915 028f 0B       		.uleb128 0xb
 9916 0290 3B       		.uleb128 0x3b
 9917 0291 05       		.uleb128 0x5
 9918 0292 49       		.uleb128 0x49
 9919 0293 13       		.uleb128 0x13
 9920 0294 02       		.uleb128 0x2
 9921 0295 17       		.uleb128 0x17
 9922 0296 00       		.byte	0
 9923 0297 00       		.byte	0
 9924 0298 34       		.uleb128 0x34
 9925 0299 898201   		.uleb128 0x4109
 9926 029c 01       		.byte	0x1
 9927 029d 11       		.uleb128 0x11
 9928 029e 01       		.uleb128 0x1
 9929 029f 31       		.uleb128 0x31
 9930 02a0 13       		.uleb128 0x13
 9931 02a1 00       		.byte	0
 9932 02a2 00       		.byte	0
 9933 02a3 35       		.uleb128 0x35
 9934 02a4 8A8201   		.uleb128 0x410a
 9935 02a7 00       		.byte	0
 9936 02a8 02       		.uleb128 0x2
 9937 02a9 18       		.uleb128 0x18
 9938 02aa 9142     		.uleb128 0x2111
 9939 02ac 18       		.uleb128 0x18
 9940 02ad 00       		.byte	0
 9941 02ae 00       		.byte	0
 9942 02af 36       		.uleb128 0x36
 9943 02b0 2E       		.uleb128 0x2e
ARM GAS  /var/folders/47/g7cdn6zj55s1hhv4njp6x8_h0000gn/T//cc224n80.s 			page 177


 9944 02b1 01       		.byte	0x1
 9945 02b2 3F       		.uleb128 0x3f
 9946 02b3 19       		.uleb128 0x19
 9947 02b4 03       		.uleb128 0x3
 9948 02b5 0E       		.uleb128 0xe
 9949 02b6 3A       		.uleb128 0x3a
 9950 02b7 0B       		.uleb128 0xb
 9951 02b8 3B       		.uleb128 0x3b
 9952 02b9 0B       		.uleb128 0xb
 9953 02ba 27       		.uleb128 0x27
 9954 02bb 19       		.uleb128 0x19
 9955 02bc 11       		.uleb128 0x11
 9956 02bd 01       		.uleb128 0x1
 9957 02be 12       		.uleb128 0x12
 9958 02bf 06       		.uleb128 0x6
 9959 02c0 40       		.uleb128 0x40
 9960 02c1 18       		.uleb128 0x18
 9961 02c2 9742     		.uleb128 0x2117
 9962 02c4 19       		.uleb128 0x19
 9963 02c5 01       		.uleb128 0x1
 9964 02c6 13       		.uleb128 0x13
 9965 02c7 00       		.byte	0
 9966 02c8 00       		.byte	0
 9967 02c9 37       		.uleb128 0x37
 9968 02ca 05       		.uleb128 0x5
 9969 02cb 00       		.byte	0
 9970 02cc 03       		.uleb128 0x3
 9971 02cd 0E       		.uleb128 0xe
 9972 02ce 3A       		.uleb128 0x3a
 9973 02cf 0B       		.uleb128 0xb
 9974 02d0 3B       		.uleb128 0x3b
 9975 02d1 0B       		.uleb128 0xb
 9976 02d2 49       		.uleb128 0x49
 9977 02d3 13       		.uleb128 0x13
 9978 02d4 02       		.uleb128 0x2
 9979 02d5 17       		.uleb128 0x17
 9980 02d6 00       		.byte	0
 9981 02d7 00       		.byte	0
 9982 02d8 38       		.uleb128 0x38
 9983 02d9 898201   		.uleb128 0x4109
 9984 02dc 01       		.byte	0x1
 9985 02dd 11       		.uleb128 0x11
 9986 02de 01       		.uleb128 0x1
 9987 02df 31       		.uleb128 0x31
 9988 02e0 13       		.uleb128 0x13
 9989 02e1 01       		.uleb128 0x1
 9990 02e2 13       		.uleb128 0x13
 9991 02e3 00       		.byte	0
 9992 02e4 00       		.byte	0
 9993 02e5 39       		.uleb128 0x39
 9994 02e6 898201   		.uleb128 0x4109
 9995 02e9 01       		.byte	0x1
 9996 02ea 11       		.uleb128 0x11
 9997 02eb 01       		.uleb128 0x1
 9998 02ec 9542     		.uleb128 0x2115
 9999 02ee 19       		.uleb128 0x19
 10000 02ef 31       		.uleb128 0x31
ARM GAS  /var/folders/47/g7cdn6zj55s1hhv4njp6x8_h0000gn/T//cc224n80.s 			page 178


 10001 02f0 13       		.uleb128 0x13
 10002 02f1 01       		.uleb128 0x1
 10003 02f2 13       		.uleb128 0x13
 10004 02f3 00       		.byte	0
 10005 02f4 00       		.byte	0
 10006 02f5 3A       		.uleb128 0x3a
 10007 02f6 898201   		.uleb128 0x4109
 10008 02f9 00       		.byte	0
 10009 02fa 11       		.uleb128 0x11
 10010 02fb 01       		.uleb128 0x1
 10011 02fc 31       		.uleb128 0x31
 10012 02fd 13       		.uleb128 0x13
 10013 02fe 00       		.byte	0
 10014 02ff 00       		.byte	0
 10015 0300 3B       		.uleb128 0x3b
 10016 0301 2E       		.uleb128 0x2e
 10017 0302 00       		.byte	0
 10018 0303 3F       		.uleb128 0x3f
 10019 0304 19       		.uleb128 0x19
 10020 0305 03       		.uleb128 0x3
 10021 0306 0E       		.uleb128 0xe
 10022 0307 3A       		.uleb128 0x3a
 10023 0308 0B       		.uleb128 0xb
 10024 0309 3B       		.uleb128 0x3b
 10025 030a 0B       		.uleb128 0xb
 10026 030b 27       		.uleb128 0x27
 10027 030c 19       		.uleb128 0x19
 10028 030d 49       		.uleb128 0x49
 10029 030e 13       		.uleb128 0x13
 10030 030f 11       		.uleb128 0x11
 10031 0310 01       		.uleb128 0x1
 10032 0311 12       		.uleb128 0x12
 10033 0312 06       		.uleb128 0x6
 10034 0313 40       		.uleb128 0x40
 10035 0314 18       		.uleb128 0x18
 10036 0315 9742     		.uleb128 0x2117
 10037 0317 19       		.uleb128 0x19
 10038 0318 00       		.byte	0
 10039 0319 00       		.byte	0
 10040 031a 3C       		.uleb128 0x3c
 10041 031b 2E       		.uleb128 0x2e
 10042 031c 01       		.byte	0x1
 10043 031d 3F       		.uleb128 0x3f
 10044 031e 19       		.uleb128 0x19
 10045 031f 03       		.uleb128 0x3
 10046 0320 0E       		.uleb128 0xe
 10047 0321 3A       		.uleb128 0x3a
 10048 0322 0B       		.uleb128 0xb
 10049 0323 3B       		.uleb128 0x3b
 10050 0324 0B       		.uleb128 0xb
 10051 0325 27       		.uleb128 0x27
 10052 0326 19       		.uleb128 0x19
 10053 0327 49       		.uleb128 0x49
 10054 0328 13       		.uleb128 0x13
 10055 0329 11       		.uleb128 0x11
 10056 032a 01       		.uleb128 0x1
 10057 032b 12       		.uleb128 0x12
ARM GAS  /var/folders/47/g7cdn6zj55s1hhv4njp6x8_h0000gn/T//cc224n80.s 			page 179


 10058 032c 06       		.uleb128 0x6
 10059 032d 40       		.uleb128 0x40
 10060 032e 18       		.uleb128 0x18
 10061 032f 9742     		.uleb128 0x2117
 10062 0331 19       		.uleb128 0x19
 10063 0332 01       		.uleb128 0x1
 10064 0333 13       		.uleb128 0x13
 10065 0334 00       		.byte	0
 10066 0335 00       		.byte	0
 10067 0336 3D       		.uleb128 0x3d
 10068 0337 34       		.uleb128 0x34
 10069 0338 00       		.byte	0
 10070 0339 03       		.uleb128 0x3
 10071 033a 08       		.uleb128 0x8
 10072 033b 3A       		.uleb128 0x3a
 10073 033c 0B       		.uleb128 0xb
 10074 033d 3B       		.uleb128 0x3b
 10075 033e 0B       		.uleb128 0xb
 10076 033f 49       		.uleb128 0x49
 10077 0340 13       		.uleb128 0x13
 10078 0341 1C       		.uleb128 0x1c
 10079 0342 0B       		.uleb128 0xb
 10080 0343 00       		.byte	0
 10081 0344 00       		.byte	0
 10082 0345 3E       		.uleb128 0x3e
 10083 0346 898201   		.uleb128 0x4109
 10084 0349 00       		.byte	0
 10085 034a 11       		.uleb128 0x11
 10086 034b 01       		.uleb128 0x1
 10087 034c 9542     		.uleb128 0x2115
 10088 034e 19       		.uleb128 0x19
 10089 034f 31       		.uleb128 0x31
 10090 0350 13       		.uleb128 0x13
 10091 0351 00       		.byte	0
 10092 0352 00       		.byte	0
 10093 0353 3F       		.uleb128 0x3f
 10094 0354 05       		.uleb128 0x5
 10095 0355 00       		.byte	0
 10096 0356 03       		.uleb128 0x3
 10097 0357 0E       		.uleb128 0xe
 10098 0358 3A       		.uleb128 0x3a
 10099 0359 0B       		.uleb128 0xb
 10100 035a 3B       		.uleb128 0x3b
 10101 035b 0B       		.uleb128 0xb
 10102 035c 49       		.uleb128 0x49
 10103 035d 13       		.uleb128 0x13
 10104 035e 02       		.uleb128 0x2
 10105 035f 18       		.uleb128 0x18
 10106 0360 00       		.byte	0
 10107 0361 00       		.byte	0
 10108 0362 40       		.uleb128 0x40
 10109 0363 2E       		.uleb128 0x2e
 10110 0364 00       		.byte	0
 10111 0365 3F       		.uleb128 0x3f
 10112 0366 19       		.uleb128 0x19
 10113 0367 03       		.uleb128 0x3
 10114 0368 0E       		.uleb128 0xe
ARM GAS  /var/folders/47/g7cdn6zj55s1hhv4njp6x8_h0000gn/T//cc224n80.s 			page 180


 10115 0369 3A       		.uleb128 0x3a
 10116 036a 0B       		.uleb128 0xb
 10117 036b 3B       		.uleb128 0x3b
 10118 036c 0B       		.uleb128 0xb
 10119 036d 27       		.uleb128 0x27
 10120 036e 19       		.uleb128 0x19
 10121 036f 11       		.uleb128 0x11
 10122 0370 01       		.uleb128 0x1
 10123 0371 12       		.uleb128 0x12
 10124 0372 06       		.uleb128 0x6
 10125 0373 40       		.uleb128 0x40
 10126 0374 18       		.uleb128 0x18
 10127 0375 9742     		.uleb128 0x2117
 10128 0377 19       		.uleb128 0x19
 10129 0378 00       		.byte	0
 10130 0379 00       		.byte	0
 10131 037a 41       		.uleb128 0x41
 10132 037b 2E       		.uleb128 0x2e
 10133 037c 00       		.byte	0
 10134 037d 3F       		.uleb128 0x3f
 10135 037e 19       		.uleb128 0x19
 10136 037f 03       		.uleb128 0x3
 10137 0380 0E       		.uleb128 0xe
 10138 0381 3A       		.uleb128 0x3a
 10139 0382 0B       		.uleb128 0xb
 10140 0383 3B       		.uleb128 0x3b
 10141 0384 05       		.uleb128 0x5
 10142 0385 27       		.uleb128 0x27
 10143 0386 19       		.uleb128 0x19
 10144 0387 11       		.uleb128 0x11
 10145 0388 01       		.uleb128 0x1
 10146 0389 12       		.uleb128 0x12
 10147 038a 06       		.uleb128 0x6
 10148 038b 40       		.uleb128 0x40
 10149 038c 18       		.uleb128 0x18
 10150 038d 9742     		.uleb128 0x2117
 10151 038f 19       		.uleb128 0x19
 10152 0390 00       		.byte	0
 10153 0391 00       		.byte	0
 10154 0392 42       		.uleb128 0x42
 10155 0393 2E       		.uleb128 0x2e
 10156 0394 00       		.byte	0
 10157 0395 3F       		.uleb128 0x3f
 10158 0396 19       		.uleb128 0x19
 10159 0397 03       		.uleb128 0x3
 10160 0398 0E       		.uleb128 0xe
 10161 0399 3A       		.uleb128 0x3a
 10162 039a 0B       		.uleb128 0xb
 10163 039b 3B       		.uleb128 0x3b
 10164 039c 05       		.uleb128 0x5
 10165 039d 27       		.uleb128 0x27
 10166 039e 19       		.uleb128 0x19
 10167 039f 49       		.uleb128 0x49
 10168 03a0 13       		.uleb128 0x13
 10169 03a1 11       		.uleb128 0x11
 10170 03a2 01       		.uleb128 0x1
 10171 03a3 12       		.uleb128 0x12
ARM GAS  /var/folders/47/g7cdn6zj55s1hhv4njp6x8_h0000gn/T//cc224n80.s 			page 181


 10172 03a4 06       		.uleb128 0x6
 10173 03a5 40       		.uleb128 0x40
 10174 03a6 18       		.uleb128 0x18
 10175 03a7 9742     		.uleb128 0x2117
 10176 03a9 19       		.uleb128 0x19
 10177 03aa 00       		.byte	0
 10178 03ab 00       		.byte	0
 10179 03ac 43       		.uleb128 0x43
 10180 03ad 2E       		.uleb128 0x2e
 10181 03ae 01       		.byte	0x1
 10182 03af 3F       		.uleb128 0x3f
 10183 03b0 19       		.uleb128 0x19
 10184 03b1 03       		.uleb128 0x3
 10185 03b2 0E       		.uleb128 0xe
 10186 03b3 3A       		.uleb128 0x3a
 10187 03b4 0B       		.uleb128 0xb
 10188 03b5 3B       		.uleb128 0x3b
 10189 03b6 05       		.uleb128 0x5
 10190 03b7 27       		.uleb128 0x27
 10191 03b8 19       		.uleb128 0x19
 10192 03b9 49       		.uleb128 0x49
 10193 03ba 13       		.uleb128 0x13
 10194 03bb 11       		.uleb128 0x11
 10195 03bc 01       		.uleb128 0x1
 10196 03bd 12       		.uleb128 0x12
 10197 03be 06       		.uleb128 0x6
 10198 03bf 40       		.uleb128 0x40
 10199 03c0 18       		.uleb128 0x18
 10200 03c1 9742     		.uleb128 0x2117
 10201 03c3 19       		.uleb128 0x19
 10202 03c4 01       		.uleb128 0x1
 10203 03c5 13       		.uleb128 0x13
 10204 03c6 00       		.byte	0
 10205 03c7 00       		.byte	0
 10206 03c8 44       		.uleb128 0x44
 10207 03c9 05       		.uleb128 0x5
 10208 03ca 00       		.byte	0
 10209 03cb 03       		.uleb128 0x3
 10210 03cc 0E       		.uleb128 0xe
 10211 03cd 3A       		.uleb128 0x3a
 10212 03ce 0B       		.uleb128 0xb
 10213 03cf 3B       		.uleb128 0x3b
 10214 03d0 05       		.uleb128 0x5
 10215 03d1 49       		.uleb128 0x49
 10216 03d2 13       		.uleb128 0x13
 10217 03d3 02       		.uleb128 0x2
 10218 03d4 17       		.uleb128 0x17
 10219 03d5 00       		.byte	0
 10220 03d6 00       		.byte	0
 10221 03d7 45       		.uleb128 0x45
 10222 03d8 34       		.uleb128 0x34
 10223 03d9 00       		.byte	0
 10224 03da 03       		.uleb128 0x3
 10225 03db 08       		.uleb128 0x8
 10226 03dc 3A       		.uleb128 0x3a
 10227 03dd 0B       		.uleb128 0xb
 10228 03de 3B       		.uleb128 0x3b
ARM GAS  /var/folders/47/g7cdn6zj55s1hhv4njp6x8_h0000gn/T//cc224n80.s 			page 182


 10229 03df 05       		.uleb128 0x5
 10230 03e0 49       		.uleb128 0x49
 10231 03e1 13       		.uleb128 0x13
 10232 03e2 1C       		.uleb128 0x1c
 10233 03e3 0B       		.uleb128 0xb
 10234 03e4 00       		.byte	0
 10235 03e5 00       		.byte	0
 10236 03e6 46       		.uleb128 0x46
 10237 03e7 2E       		.uleb128 0x2e
 10238 03e8 01       		.byte	0x1
 10239 03e9 3F       		.uleb128 0x3f
 10240 03ea 19       		.uleb128 0x19
 10241 03eb 03       		.uleb128 0x3
 10242 03ec 0E       		.uleb128 0xe
 10243 03ed 3A       		.uleb128 0x3a
 10244 03ee 0B       		.uleb128 0xb
 10245 03ef 3B       		.uleb128 0x3b
 10246 03f0 05       		.uleb128 0x5
 10247 03f1 27       		.uleb128 0x27
 10248 03f2 19       		.uleb128 0x19
 10249 03f3 11       		.uleb128 0x11
 10250 03f4 01       		.uleb128 0x1
 10251 03f5 12       		.uleb128 0x12
 10252 03f6 06       		.uleb128 0x6
 10253 03f7 40       		.uleb128 0x40
 10254 03f8 18       		.uleb128 0x18
 10255 03f9 9742     		.uleb128 0x2117
 10256 03fb 19       		.uleb128 0x19
 10257 03fc 01       		.uleb128 0x1
 10258 03fd 13       		.uleb128 0x13
 10259 03fe 00       		.byte	0
 10260 03ff 00       		.byte	0
 10261 0400 47       		.uleb128 0x47
 10262 0401 898201   		.uleb128 0x4109
 10263 0404 01       		.byte	0x1
 10264 0405 11       		.uleb128 0x11
 10265 0406 01       		.uleb128 0x1
 10266 0407 9542     		.uleb128 0x2115
 10267 0409 19       		.uleb128 0x19
 10268 040a 31       		.uleb128 0x31
 10269 040b 13       		.uleb128 0x13
 10270 040c 00       		.byte	0
 10271 040d 00       		.byte	0
 10272 040e 48       		.uleb128 0x48
 10273 040f 34       		.uleb128 0x34
 10274 0410 00       		.byte	0
 10275 0411 03       		.uleb128 0x3
 10276 0412 08       		.uleb128 0x8
 10277 0413 3A       		.uleb128 0x3a
 10278 0414 0B       		.uleb128 0xb
 10279 0415 3B       		.uleb128 0x3b
 10280 0416 05       		.uleb128 0x5
 10281 0417 49       		.uleb128 0x49
 10282 0418 13       		.uleb128 0x13
 10283 0419 1C       		.uleb128 0x1c
 10284 041a 0A       		.uleb128 0xa
 10285 041b 00       		.byte	0
ARM GAS  /var/folders/47/g7cdn6zj55s1hhv4njp6x8_h0000gn/T//cc224n80.s 			page 183


 10286 041c 00       		.byte	0
 10287 041d 49       		.uleb128 0x49
 10288 041e 2E       		.uleb128 0x2e
 10289 041f 01       		.byte	0x1
 10290 0420 31       		.uleb128 0x31
 10291 0421 13       		.uleb128 0x13
 10292 0422 11       		.uleb128 0x11
 10293 0423 01       		.uleb128 0x1
 10294 0424 12       		.uleb128 0x12
 10295 0425 06       		.uleb128 0x6
 10296 0426 40       		.uleb128 0x40
 10297 0427 18       		.uleb128 0x18
 10298 0428 9742     		.uleb128 0x2117
 10299 042a 19       		.uleb128 0x19
 10300 042b 01       		.uleb128 0x1
 10301 042c 13       		.uleb128 0x13
 10302 042d 00       		.byte	0
 10303 042e 00       		.byte	0
 10304 042f 4A       		.uleb128 0x4a
 10305 0430 34       		.uleb128 0x34
 10306 0431 00       		.byte	0
 10307 0432 31       		.uleb128 0x31
 10308 0433 13       		.uleb128 0x13
 10309 0434 02       		.uleb128 0x2
 10310 0435 17       		.uleb128 0x17
 10311 0436 00       		.byte	0
 10312 0437 00       		.byte	0
 10313 0438 4B       		.uleb128 0x4b
 10314 0439 05       		.uleb128 0x5
 10315 043a 00       		.byte	0
 10316 043b 03       		.uleb128 0x3
 10317 043c 0E       		.uleb128 0xe
 10318 043d 3A       		.uleb128 0x3a
 10319 043e 0B       		.uleb128 0xb
 10320 043f 3B       		.uleb128 0x3b
 10321 0440 05       		.uleb128 0x5
 10322 0441 49       		.uleb128 0x49
 10323 0442 13       		.uleb128 0x13
 10324 0443 02       		.uleb128 0x2
 10325 0444 18       		.uleb128 0x18
 10326 0445 00       		.byte	0
 10327 0446 00       		.byte	0
 10328 0447 4C       		.uleb128 0x4c
 10329 0448 34       		.uleb128 0x34
 10330 0449 00       		.byte	0
 10331 044a 03       		.uleb128 0x3
 10332 044b 08       		.uleb128 0x8
 10333 044c 3A       		.uleb128 0x3a
 10334 044d 0B       		.uleb128 0xb
 10335 044e 3B       		.uleb128 0x3b
 10336 044f 05       		.uleb128 0x5
 10337 0450 49       		.uleb128 0x49
 10338 0451 13       		.uleb128 0x13
 10339 0452 02       		.uleb128 0x2
 10340 0453 18       		.uleb128 0x18
 10341 0454 00       		.byte	0
 10342 0455 00       		.byte	0
ARM GAS  /var/folders/47/g7cdn6zj55s1hhv4njp6x8_h0000gn/T//cc224n80.s 			page 184


 10343 0456 4D       		.uleb128 0x4d
 10344 0457 05       		.uleb128 0x5
 10345 0458 00       		.byte	0
 10346 0459 31       		.uleb128 0x31
 10347 045a 13       		.uleb128 0x13
 10348 045b 02       		.uleb128 0x2
 10349 045c 17       		.uleb128 0x17
 10350 045d 00       		.byte	0
 10351 045e 00       		.byte	0
 10352 045f 4E       		.uleb128 0x4e
 10353 0460 0B       		.uleb128 0xb
 10354 0461 01       		.byte	0x1
 10355 0462 55       		.uleb128 0x55
 10356 0463 17       		.uleb128 0x17
 10357 0464 01       		.uleb128 0x1
 10358 0465 13       		.uleb128 0x13
 10359 0466 00       		.byte	0
 10360 0467 00       		.byte	0
 10361 0468 4F       		.uleb128 0x4f
 10362 0469 1D       		.uleb128 0x1d
 10363 046a 01       		.byte	0x1
 10364 046b 31       		.uleb128 0x31
 10365 046c 13       		.uleb128 0x13
 10366 046d 11       		.uleb128 0x11
 10367 046e 01       		.uleb128 0x1
 10368 046f 12       		.uleb128 0x12
 10369 0470 06       		.uleb128 0x6
 10370 0471 58       		.uleb128 0x58
 10371 0472 0B       		.uleb128 0xb
 10372 0473 59       		.uleb128 0x59
 10373 0474 05       		.uleb128 0x5
 10374 0475 01       		.uleb128 0x1
 10375 0476 13       		.uleb128 0x13
 10376 0477 00       		.byte	0
 10377 0478 00       		.byte	0
 10378 0479 50       		.uleb128 0x50
 10379 047a 1D       		.uleb128 0x1d
 10380 047b 01       		.byte	0x1
 10381 047c 31       		.uleb128 0x31
 10382 047d 13       		.uleb128 0x13
 10383 047e 11       		.uleb128 0x11
 10384 047f 01       		.uleb128 0x1
 10385 0480 12       		.uleb128 0x12
 10386 0481 06       		.uleb128 0x6
 10387 0482 58       		.uleb128 0x58
 10388 0483 0B       		.uleb128 0xb
 10389 0484 59       		.uleb128 0x59
 10390 0485 05       		.uleb128 0x5
 10391 0486 00       		.byte	0
 10392 0487 00       		.byte	0
 10393 0488 51       		.uleb128 0x51
 10394 0489 05       		.uleb128 0x5
 10395 048a 00       		.byte	0
 10396 048b 31       		.uleb128 0x31
 10397 048c 13       		.uleb128 0x13
 10398 048d 1C       		.uleb128 0x1c
 10399 048e 0B       		.uleb128 0xb
ARM GAS  /var/folders/47/g7cdn6zj55s1hhv4njp6x8_h0000gn/T//cc224n80.s 			page 185


 10400 048f 00       		.byte	0
 10401 0490 00       		.byte	0
 10402 0491 52       		.uleb128 0x52
 10403 0492 34       		.uleb128 0x34
 10404 0493 00       		.byte	0
 10405 0494 31       		.uleb128 0x31
 10406 0495 13       		.uleb128 0x13
 10407 0496 00       		.byte	0
 10408 0497 00       		.byte	0
 10409 0498 53       		.uleb128 0x53
 10410 0499 2E       		.uleb128 0x2e
 10411 049a 01       		.byte	0x1
 10412 049b 3F       		.uleb128 0x3f
 10413 049c 19       		.uleb128 0x19
 10414 049d 03       		.uleb128 0x3
 10415 049e 0E       		.uleb128 0xe
 10416 049f 3A       		.uleb128 0x3a
 10417 04a0 0B       		.uleb128 0xb
 10418 04a1 3B       		.uleb128 0x3b
 10419 04a2 05       		.uleb128 0x5
 10420 04a3 27       		.uleb128 0x27
 10421 04a4 19       		.uleb128 0x19
 10422 04a5 11       		.uleb128 0x11
 10423 04a6 01       		.uleb128 0x1
 10424 04a7 12       		.uleb128 0x12
 10425 04a8 06       		.uleb128 0x6
 10426 04a9 40       		.uleb128 0x40
 10427 04aa 18       		.uleb128 0x18
 10428 04ab 9642     		.uleb128 0x2116
 10429 04ad 19       		.uleb128 0x19
 10430 04ae 01       		.uleb128 0x1
 10431 04af 13       		.uleb128 0x13
 10432 04b0 00       		.byte	0
 10433 04b1 00       		.byte	0
 10434 04b2 54       		.uleb128 0x54
 10435 04b3 1D       		.uleb128 0x1d
 10436 04b4 01       		.byte	0x1
 10437 04b5 31       		.uleb128 0x31
 10438 04b6 13       		.uleb128 0x13
 10439 04b7 52       		.uleb128 0x52
 10440 04b8 01       		.uleb128 0x1
 10441 04b9 55       		.uleb128 0x55
 10442 04ba 17       		.uleb128 0x17
 10443 04bb 58       		.uleb128 0x58
 10444 04bc 0B       		.uleb128 0xb
 10445 04bd 59       		.uleb128 0x59
 10446 04be 05       		.uleb128 0x5
 10447 04bf 00       		.byte	0
 10448 04c0 00       		.byte	0
 10449 04c1 55       		.uleb128 0x55
 10450 04c2 34       		.uleb128 0x34
 10451 04c3 00       		.byte	0
 10452 04c4 03       		.uleb128 0x3
 10453 04c5 0E       		.uleb128 0xe
 10454 04c6 3A       		.uleb128 0x3a
 10455 04c7 0B       		.uleb128 0xb
 10456 04c8 3B       		.uleb128 0x3b
ARM GAS  /var/folders/47/g7cdn6zj55s1hhv4njp6x8_h0000gn/T//cc224n80.s 			page 186


 10457 04c9 0B       		.uleb128 0xb
 10458 04ca 49       		.uleb128 0x49
 10459 04cb 13       		.uleb128 0x13
 10460 04cc 02       		.uleb128 0x2
 10461 04cd 18       		.uleb128 0x18
 10462 04ce 00       		.byte	0
 10463 04cf 00       		.byte	0
 10464 04d0 56       		.uleb128 0x56
 10465 04d1 21       		.uleb128 0x21
 10466 04d2 00       		.byte	0
 10467 04d3 49       		.uleb128 0x49
 10468 04d4 13       		.uleb128 0x13
 10469 04d5 2F       		.uleb128 0x2f
 10470 04d6 05       		.uleb128 0x5
 10471 04d7 00       		.byte	0
 10472 04d8 00       		.byte	0
 10473 04d9 57       		.uleb128 0x57
 10474 04da 34       		.uleb128 0x34
 10475 04db 00       		.byte	0
 10476 04dc 03       		.uleb128 0x3
 10477 04dd 0E       		.uleb128 0xe
 10478 04de 3A       		.uleb128 0x3a
 10479 04df 0B       		.uleb128 0xb
 10480 04e0 3B       		.uleb128 0x3b
 10481 04e1 05       		.uleb128 0x5
 10482 04e2 49       		.uleb128 0x49
 10483 04e3 13       		.uleb128 0x13
 10484 04e4 3F       		.uleb128 0x3f
 10485 04e5 19       		.uleb128 0x19
 10486 04e6 3C       		.uleb128 0x3c
 10487 04e7 19       		.uleb128 0x19
 10488 04e8 00       		.byte	0
 10489 04e9 00       		.byte	0
 10490 04ea 58       		.uleb128 0x58
 10491 04eb 34       		.uleb128 0x34
 10492 04ec 00       		.byte	0
 10493 04ed 03       		.uleb128 0x3
 10494 04ee 08       		.uleb128 0x8
 10495 04ef 3A       		.uleb128 0x3a
 10496 04f0 0B       		.uleb128 0xb
 10497 04f1 3B       		.uleb128 0x3b
 10498 04f2 05       		.uleb128 0x5
 10499 04f3 49       		.uleb128 0x49
 10500 04f4 13       		.uleb128 0x13
 10501 04f5 3F       		.uleb128 0x3f
 10502 04f6 19       		.uleb128 0x19
 10503 04f7 3C       		.uleb128 0x3c
 10504 04f8 19       		.uleb128 0x19
 10505 04f9 00       		.byte	0
 10506 04fa 00       		.byte	0
 10507 04fb 59       		.uleb128 0x59
 10508 04fc 34       		.uleb128 0x34
 10509 04fd 00       		.byte	0
 10510 04fe 03       		.uleb128 0x3
 10511 04ff 0E       		.uleb128 0xe
 10512 0500 3A       		.uleb128 0x3a
 10513 0501 0B       		.uleb128 0xb
ARM GAS  /var/folders/47/g7cdn6zj55s1hhv4njp6x8_h0000gn/T//cc224n80.s 			page 187


 10514 0502 3B       		.uleb128 0x3b
 10515 0503 0B       		.uleb128 0xb
 10516 0504 49       		.uleb128 0x49
 10517 0505 13       		.uleb128 0x13
 10518 0506 3F       		.uleb128 0x3f
 10519 0507 19       		.uleb128 0x19
 10520 0508 02       		.uleb128 0x2
 10521 0509 18       		.uleb128 0x18
 10522 050a 00       		.byte	0
 10523 050b 00       		.byte	0
 10524 050c 5A       		.uleb128 0x5a
 10525 050d 21       		.uleb128 0x21
 10526 050e 00       		.byte	0
 10527 050f 00       		.byte	0
 10528 0510 00       		.byte	0
 10529 0511 5B       		.uleb128 0x5b
 10530 0512 34       		.uleb128 0x34
 10531 0513 00       		.byte	0
 10532 0514 03       		.uleb128 0x3
 10533 0515 0E       		.uleb128 0xe
 10534 0516 3A       		.uleb128 0x3a
 10535 0517 0B       		.uleb128 0xb
 10536 0518 3B       		.uleb128 0x3b
 10537 0519 0B       		.uleb128 0xb
 10538 051a 49       		.uleb128 0x49
 10539 051b 13       		.uleb128 0x13
 10540 051c 3F       		.uleb128 0x3f
 10541 051d 19       		.uleb128 0x19
 10542 051e 3C       		.uleb128 0x3c
 10543 051f 19       		.uleb128 0x19
 10544 0520 00       		.byte	0
 10545 0521 00       		.byte	0
 10546 0522 5C       		.uleb128 0x5c
 10547 0523 2E       		.uleb128 0x2e
 10548 0524 01       		.byte	0x1
 10549 0525 3F       		.uleb128 0x3f
 10550 0526 19       		.uleb128 0x19
 10551 0527 03       		.uleb128 0x3
 10552 0528 0E       		.uleb128 0xe
 10553 0529 3A       		.uleb128 0x3a
 10554 052a 0B       		.uleb128 0xb
 10555 052b 3B       		.uleb128 0x3b
 10556 052c 0B       		.uleb128 0xb
 10557 052d 27       		.uleb128 0x27
 10558 052e 19       		.uleb128 0x19
 10559 052f 3C       		.uleb128 0x3c
 10560 0530 19       		.uleb128 0x19
 10561 0531 01       		.uleb128 0x1
 10562 0532 13       		.uleb128 0x13
 10563 0533 00       		.byte	0
 10564 0534 00       		.byte	0
 10565 0535 5D       		.uleb128 0x5d
 10566 0536 2E       		.uleb128 0x2e
 10567 0537 01       		.byte	0x1
 10568 0538 3F       		.uleb128 0x3f
 10569 0539 19       		.uleb128 0x19
 10570 053a 03       		.uleb128 0x3
ARM GAS  /var/folders/47/g7cdn6zj55s1hhv4njp6x8_h0000gn/T//cc224n80.s 			page 188


 10571 053b 0E       		.uleb128 0xe
 10572 053c 3A       		.uleb128 0x3a
 10573 053d 0B       		.uleb128 0xb
 10574 053e 3B       		.uleb128 0x3b
 10575 053f 0B       		.uleb128 0xb
 10576 0540 27       		.uleb128 0x27
 10577 0541 19       		.uleb128 0x19
 10578 0542 49       		.uleb128 0x49
 10579 0543 13       		.uleb128 0x13
 10580 0544 3C       		.uleb128 0x3c
 10581 0545 19       		.uleb128 0x19
 10582 0546 01       		.uleb128 0x1
 10583 0547 13       		.uleb128 0x13
 10584 0548 00       		.byte	0
 10585 0549 00       		.byte	0
 10586 054a 5E       		.uleb128 0x5e
 10587 054b 2E       		.uleb128 0x2e
 10588 054c 01       		.byte	0x1
 10589 054d 3F       		.uleb128 0x3f
 10590 054e 19       		.uleb128 0x19
 10591 054f 03       		.uleb128 0x3
 10592 0550 0E       		.uleb128 0xe
 10593 0551 27       		.uleb128 0x27
 10594 0552 19       		.uleb128 0x19
 10595 0553 49       		.uleb128 0x49
 10596 0554 13       		.uleb128 0x13
 10597 0555 34       		.uleb128 0x34
 10598 0556 19       		.uleb128 0x19
 10599 0557 3C       		.uleb128 0x3c
 10600 0558 19       		.uleb128 0x19
 10601 0559 01       		.uleb128 0x1
 10602 055a 13       		.uleb128 0x13
 10603 055b 00       		.byte	0
 10604 055c 00       		.byte	0
 10605 055d 5F       		.uleb128 0x5f
 10606 055e 26       		.uleb128 0x26
 10607 055f 00       		.byte	0
 10608 0560 00       		.byte	0
 10609 0561 00       		.byte	0
 10610 0562 60       		.uleb128 0x60
 10611 0563 2E       		.uleb128 0x2e
 10612 0564 00       		.byte	0
 10613 0565 3F       		.uleb128 0x3f
 10614 0566 19       		.uleb128 0x19
 10615 0567 03       		.uleb128 0x3
 10616 0568 0E       		.uleb128 0xe
 10617 0569 3A       		.uleb128 0x3a
 10618 056a 0B       		.uleb128 0xb
 10619 056b 3B       		.uleb128 0x3b
 10620 056c 0B       		.uleb128 0xb
 10621 056d 27       		.uleb128 0x27
 10622 056e 19       		.uleb128 0x19
 10623 056f 3C       		.uleb128 0x3c
 10624 0570 19       		.uleb128 0x19
 10625 0571 00       		.byte	0
 10626 0572 00       		.byte	0
 10627 0573 61       		.uleb128 0x61
ARM GAS  /var/folders/47/g7cdn6zj55s1hhv4njp6x8_h0000gn/T//cc224n80.s 			page 189


 10628 0574 2E       		.uleb128 0x2e
 10629 0575 00       		.byte	0
 10630 0576 3F       		.uleb128 0x3f
 10631 0577 19       		.uleb128 0x19
 10632 0578 03       		.uleb128 0x3
 10633 0579 0E       		.uleb128 0xe
 10634 057a 3A       		.uleb128 0x3a
 10635 057b 0B       		.uleb128 0xb
 10636 057c 3B       		.uleb128 0x3b
 10637 057d 0B       		.uleb128 0xb
 10638 057e 27       		.uleb128 0x27
 10639 057f 19       		.uleb128 0x19
 10640 0580 49       		.uleb128 0x49
 10641 0581 13       		.uleb128 0x13
 10642 0582 3C       		.uleb128 0x3c
 10643 0583 19       		.uleb128 0x19
 10644 0584 00       		.byte	0
 10645 0585 00       		.byte	0
 10646 0586 62       		.uleb128 0x62
 10647 0587 2E       		.uleb128 0x2e
 10648 0588 01       		.byte	0x1
 10649 0589 3F       		.uleb128 0x3f
 10650 058a 19       		.uleb128 0x19
 10651 058b 03       		.uleb128 0x3
 10652 058c 0E       		.uleb128 0xe
 10653 058d 3A       		.uleb128 0x3a
 10654 058e 0B       		.uleb128 0xb
 10655 058f 3B       		.uleb128 0x3b
 10656 0590 05       		.uleb128 0x5
 10657 0591 27       		.uleb128 0x27
 10658 0592 19       		.uleb128 0x19
 10659 0593 49       		.uleb128 0x49
 10660 0594 13       		.uleb128 0x13
 10661 0595 3C       		.uleb128 0x3c
 10662 0596 19       		.uleb128 0x19
 10663 0597 01       		.uleb128 0x1
 10664 0598 13       		.uleb128 0x13
 10665 0599 00       		.byte	0
 10666 059a 00       		.byte	0
 10667 059b 00       		.byte	0
 10668              		.section	.debug_loc,"",%progbits
 10669              	.Ldebug_loc0:
 10670              	.LLST0:
 10671 0000 00000000 		.4byte	.LVL0
 10672 0004 2A000000 		.4byte	.LVL1
 10673 0008 0100     		.2byte	0x1
 10674 000a 50       		.byte	0x50
 10675 000b 2A000000 		.4byte	.LVL1
 10676 000f 30010000 		.4byte	.LFE305
 10677 0013 0400     		.2byte	0x4
 10678 0015 F3       		.byte	0xf3
 10679 0016 01       		.uleb128 0x1
 10680 0017 50       		.byte	0x50
 10681 0018 9F       		.byte	0x9f
 10682 0019 00000000 		.4byte	0
 10683 001d 00000000 		.4byte	0
 10684              	.LLST1:
ARM GAS  /var/folders/47/g7cdn6zj55s1hhv4njp6x8_h0000gn/T//cc224n80.s 			page 190


 10685 0021 30000000 		.4byte	.LVL2
 10686 0025 3A000000 		.4byte	.LVL3
 10687 0029 0200     		.2byte	0x2
 10688 002b 30       		.byte	0x30
 10689 002c 9F       		.byte	0x9f
 10690 002d 3A000000 		.4byte	.LVL3
 10691 0031 EB000000 		.4byte	.LVL10-1
 10692 0035 0100     		.2byte	0x1
 10693 0037 53       		.byte	0x53
 10694 0038 EB000000 		.4byte	.LVL10-1
 10695 003c F4000000 		.4byte	.LVL11
 10696 0040 0300     		.2byte	0x3
 10697 0042 91       		.byte	0x91
 10698 0043 BC7F     		.sleb128 -68
 10699 0045 F4000000 		.4byte	.LVL11
 10700 0049 30010000 		.4byte	.LFE305
 10701 004d 0100     		.2byte	0x1
 10702 004f 53       		.byte	0x53
 10703 0050 00000000 		.4byte	0
 10704 0054 00000000 		.4byte	0
 10705              	.LLST2:
 10706 0058 3A000000 		.4byte	.LVL3
 10707 005c 84000000 		.4byte	.LVL4
 10708 0060 0200     		.2byte	0x2
 10709 0062 31       		.byte	0x31
 10710 0063 9F       		.byte	0x9f
 10711 0064 84000000 		.4byte	.LVL4
 10712 0068 88000000 		.4byte	.LVL5
 10713 006c 0200     		.2byte	0x2
 10714 006e 33       		.byte	0x33
 10715 006f 9F       		.byte	0x9f
 10716 0070 88000000 		.4byte	.LVL5
 10717 0074 90000000 		.4byte	.LVL6
 10718 0078 0200     		.2byte	0x2
 10719 007a 37       		.byte	0x37
 10720 007b 9F       		.byte	0x9f
 10721 007c 90000000 		.4byte	.LVL6
 10722 0080 CA000000 		.4byte	.LVL7
 10723 0084 0200     		.2byte	0x2
 10724 0086 39       		.byte	0x39
 10725 0087 9F       		.byte	0x9f
 10726 0088 CA000000 		.4byte	.LVL7
 10727 008c E0000000 		.4byte	.LVL8
 10728 0090 0200     		.2byte	0x2
 10729 0092 3B       		.byte	0x3b
 10730 0093 9F       		.byte	0x9f
 10731 0094 E0000000 		.4byte	.LVL8
 10732 0098 E4000000 		.4byte	.LVL9
 10733 009c 0200     		.2byte	0x2
 10734 009e 40       		.byte	0x40
 10735 009f 9F       		.byte	0x9f
 10736 00a0 E4000000 		.4byte	.LVL9
 10737 00a4 30010000 		.4byte	.LFE305
 10738 00a8 0200     		.2byte	0x2
 10739 00aa 41       		.byte	0x41
 10740 00ab 9F       		.byte	0x9f
 10741 00ac 00000000 		.4byte	0
ARM GAS  /var/folders/47/g7cdn6zj55s1hhv4njp6x8_h0000gn/T//cc224n80.s 			page 191


 10742 00b0 00000000 		.4byte	0
 10743              	.LLST3:
 10744 00b4 00000000 		.4byte	.LVL12
 10745 00b8 24000000 		.4byte	.LVL13
 10746 00bc 0100     		.2byte	0x1
 10747 00be 50       		.byte	0x50
 10748 00bf 24000000 		.4byte	.LVL13
 10749 00c3 27000000 		.4byte	.LVL14-1
 10750 00c7 0100     		.2byte	0x1
 10751 00c9 51       		.byte	0x51
 10752 00ca 27000000 		.4byte	.LVL14-1
 10753 00ce 78010000 		.4byte	.LFE256
 10754 00d2 0400     		.2byte	0x4
 10755 00d4 F3       		.byte	0xf3
 10756 00d5 01       		.uleb128 0x1
 10757 00d6 50       		.byte	0x50
 10758 00d7 9F       		.byte	0x9f
 10759 00d8 00000000 		.4byte	0
 10760 00dc 00000000 		.4byte	0
 10761              	.LLST4:
 10762 00e0 00000000 		.4byte	.LVL25
 10763 00e4 0A000000 		.4byte	.LVL26
 10764 00e8 0100     		.2byte	0x1
 10765 00ea 50       		.byte	0x50
 10766 00eb 0A000000 		.4byte	.LVL26
 10767 00ef 18000000 		.4byte	.LFE265
 10768 00f3 0400     		.2byte	0x4
 10769 00f5 F3       		.byte	0xf3
 10770 00f6 01       		.uleb128 0x1
 10771 00f7 50       		.byte	0x50
 10772 00f8 9F       		.byte	0x9f
 10773 00f9 00000000 		.4byte	0
 10774 00fd 00000000 		.4byte	0
 10775              	.LLST5:
 10776 0101 00000000 		.4byte	.LVL30
 10777 0105 19000000 		.4byte	.LVL31-1
 10778 0109 0200     		.2byte	0x2
 10779 010b 90       		.byte	0x90
 10780 010c 40       		.uleb128 0x40
 10781 010d 19000000 		.4byte	.LVL31-1
 10782 0111 20000000 		.4byte	.LFE270
 10783 0115 0600     		.2byte	0x6
 10784 0117 F3       		.byte	0xf3
 10785 0118 03       		.uleb128 0x3
 10786 0119 F5       		.byte	0xf5
 10787 011a 40       		.uleb128 0x40
 10788 011b 25       		.uleb128 0x25
 10789 011c 9F       		.byte	0x9f
 10790 011d 00000000 		.4byte	0
 10791 0121 00000000 		.4byte	0
 10792              	.LLST6:
 10793 0125 00000000 		.4byte	.LVL30
 10794 0129 19000000 		.4byte	.LVL31-1
 10795 012d 0200     		.2byte	0x2
 10796 012f 90       		.byte	0x90
 10797 0130 41       		.uleb128 0x41
 10798 0131 19000000 		.4byte	.LVL31-1
ARM GAS  /var/folders/47/g7cdn6zj55s1hhv4njp6x8_h0000gn/T//cc224n80.s 			page 192


 10799 0135 20000000 		.4byte	.LFE270
 10800 0139 0600     		.2byte	0x6
 10801 013b F3       		.byte	0xf3
 10802 013c 03       		.uleb128 0x3
 10803 013d F5       		.byte	0xf5
 10804 013e 41       		.uleb128 0x41
 10805 013f 25       		.uleb128 0x25
 10806 0140 9F       		.byte	0x9f
 10807 0141 00000000 		.4byte	0
 10808 0145 00000000 		.4byte	0
 10809              	.LLST7:
 10810 0149 00000000 		.4byte	.LVL30
 10811 014d 19000000 		.4byte	.LVL31-1
 10812 0151 0200     		.2byte	0x2
 10813 0153 90       		.byte	0x90
 10814 0154 42       		.uleb128 0x42
 10815 0155 19000000 		.4byte	.LVL31-1
 10816 0159 20000000 		.4byte	.LFE270
 10817 015d 0600     		.2byte	0x6
 10818 015f F3       		.byte	0xf3
 10819 0160 03       		.uleb128 0x3
 10820 0161 F5       		.byte	0xf5
 10821 0162 42       		.uleb128 0x42
 10822 0163 25       		.uleb128 0x25
 10823 0164 9F       		.byte	0x9f
 10824 0165 00000000 		.4byte	0
 10825 0169 00000000 		.4byte	0
 10826              	.LLST8:
 10827 016d 00000000 		.4byte	.LVL38
 10828 0171 22000000 		.4byte	.LVL42
 10829 0175 0600     		.2byte	0x6
 10830 0177 9E       		.byte	0x9e
 10831 0178 04       		.uleb128 0x4
 10832 0179 00000000 		.4byte	0
 10833 017d 22000000 		.4byte	.LVL42
 10834 0181 24000000 		.4byte	.LVL43
 10835 0185 0200     		.2byte	0x2
 10836 0187 90       		.byte	0x90
 10837 0188 40       		.uleb128 0x40
 10838 0189 24000000 		.4byte	.LVL43
 10839 018d 34000000 		.4byte	.LFE278
 10840 0191 0600     		.2byte	0x6
 10841 0193 9E       		.byte	0x9e
 10842 0194 04       		.uleb128 0x4
 10843 0195 00000000 		.4byte	0
 10844 0199 00000000 		.4byte	0
 10845 019d 00000000 		.4byte	0
 10846              	.LLST9:
 10847 01a1 1C000000 		.4byte	.LVL40
 10848 01a5 1E000000 		.4byte	.LVL41
 10849 01a9 0200     		.2byte	0x2
 10850 01ab 90       		.byte	0x90
 10851 01ac 40       		.uleb128 0x40
 10852 01ad 00000000 		.4byte	0
 10853 01b1 00000000 		.4byte	0
 10854              	.LLST10:
 10855 01b5 00000000 		.4byte	.LVL74
ARM GAS  /var/folders/47/g7cdn6zj55s1hhv4njp6x8_h0000gn/T//cc224n80.s 			page 193


 10856 01b9 11000000 		.4byte	.LVL75-1
 10857 01bd 0100     		.2byte	0x1
 10858 01bf 50       		.byte	0x50
 10859 01c0 11000000 		.4byte	.LVL75-1
 10860 01c4 12000000 		.4byte	.LVL75
 10861 01c8 0400     		.2byte	0x4
 10862 01ca F3       		.byte	0xf3
 10863 01cb 01       		.uleb128 0x1
 10864 01cc 50       		.byte	0x50
 10865 01cd 9F       		.byte	0x9f
 10866 01ce 12000000 		.4byte	.LVL75
 10867 01d2 14000000 		.4byte	.LVL76
 10868 01d6 0100     		.2byte	0x1
 10869 01d8 50       		.byte	0x50
 10870 01d9 14000000 		.4byte	.LVL76
 10871 01dd 16000000 		.4byte	.LVL77
 10872 01e1 0400     		.2byte	0x4
 10873 01e3 F3       		.byte	0xf3
 10874 01e4 01       		.uleb128 0x1
 10875 01e5 50       		.byte	0x50
 10876 01e6 9F       		.byte	0x9f
 10877 01e7 16000000 		.4byte	.LVL77
 10878 01eb 19000000 		.4byte	.LVL78-1
 10879 01ef 0100     		.2byte	0x1
 10880 01f1 50       		.byte	0x50
 10881 01f2 19000000 		.4byte	.LVL78-1
 10882 01f6 20000000 		.4byte	.LFE290
 10883 01fa 0400     		.2byte	0x4
 10884 01fc F3       		.byte	0xf3
 10885 01fd 01       		.uleb128 0x1
 10886 01fe 50       		.byte	0x50
 10887 01ff 9F       		.byte	0x9f
 10888 0200 00000000 		.4byte	0
 10889 0204 00000000 		.4byte	0
 10890              	.LLST11:
 10891 0208 00000000 		.4byte	.LVL79
 10892 020c 11000000 		.4byte	.LVL80-1
 10893 0210 0100     		.2byte	0x1
 10894 0212 50       		.byte	0x50
 10895 0213 11000000 		.4byte	.LVL80-1
 10896 0217 12000000 		.4byte	.LVL80
 10897 021b 0400     		.2byte	0x4
 10898 021d F3       		.byte	0xf3
 10899 021e 01       		.uleb128 0x1
 10900 021f 50       		.byte	0x50
 10901 0220 9F       		.byte	0x9f
 10902 0221 12000000 		.4byte	.LVL80
 10903 0225 14000000 		.4byte	.LVL81
 10904 0229 0100     		.2byte	0x1
 10905 022b 50       		.byte	0x50
 10906 022c 14000000 		.4byte	.LVL81
 10907 0230 16000000 		.4byte	.LVL82
 10908 0234 0400     		.2byte	0x4
 10909 0236 F3       		.byte	0xf3
 10910 0237 01       		.uleb128 0x1
 10911 0238 50       		.byte	0x50
 10912 0239 9F       		.byte	0x9f
ARM GAS  /var/folders/47/g7cdn6zj55s1hhv4njp6x8_h0000gn/T//cc224n80.s 			page 194


 10913 023a 16000000 		.4byte	.LVL82
 10914 023e 19000000 		.4byte	.LVL83-1
 10915 0242 0100     		.2byte	0x1
 10916 0244 50       		.byte	0x50
 10917 0245 19000000 		.4byte	.LVL83-1
 10918 0249 20000000 		.4byte	.LFE291
 10919 024d 0400     		.2byte	0x4
 10920 024f F3       		.byte	0xf3
 10921 0250 01       		.uleb128 0x1
 10922 0251 50       		.byte	0x50
 10923 0252 9F       		.byte	0x9f
 10924 0253 00000000 		.4byte	0
 10925 0257 00000000 		.4byte	0
 10926              	.LLST12:
 10927 025b 0C000000 		.4byte	.LVL87
 10928 025f 14000000 		.4byte	.LVL88
 10929 0263 0800     		.2byte	0x8
 10930 0265 F5       		.byte	0xf5
 10931 0266 40       		.uleb128 0x40
 10932 0267 25       		.uleb128 0x25
 10933 0268 F5       		.byte	0xf5
 10934 0269 4F       		.uleb128 0x4f
 10935 026a 25       		.uleb128 0x25
 10936 026b 1B       		.byte	0x1b
 10937 026c 9F       		.byte	0x9f
 10938 026d 14000000 		.4byte	.LVL88
 10939 0271 20000000 		.4byte	.LFE293
 10940 0275 0200     		.2byte	0x2
 10941 0277 90       		.byte	0x90
 10942 0278 40       		.uleb128 0x40
 10943 0279 00000000 		.4byte	0
 10944 027d 00000000 		.4byte	0
 10945              	.LLST13:
 10946 0281 0C000000 		.4byte	.LVL89
 10947 0285 14000000 		.4byte	.LVL90
 10948 0289 0800     		.2byte	0x8
 10949 028b F5       		.byte	0xf5
 10950 028c 40       		.uleb128 0x40
 10951 028d 25       		.uleb128 0x25
 10952 028e F5       		.byte	0xf5
 10953 028f 4F       		.uleb128 0x4f
 10954 0290 25       		.uleb128 0x25
 10955 0291 1B       		.byte	0x1b
 10956 0292 9F       		.byte	0x9f
 10957 0293 14000000 		.4byte	.LVL90
 10958 0297 20000000 		.4byte	.LFE294
 10959 029b 0200     		.2byte	0x2
 10960 029d 90       		.byte	0x90
 10961 029e 40       		.uleb128 0x40
 10962 029f 00000000 		.4byte	0
 10963 02a3 00000000 		.4byte	0
 10964              	.LLST14:
 10965 02a7 00000000 		.4byte	.LVL94
 10966 02ab 29000000 		.4byte	.LVL99-1
 10967 02af 0100     		.2byte	0x1
 10968 02b1 50       		.byte	0x50
 10969 02b2 29000000 		.4byte	.LVL99-1
ARM GAS  /var/folders/47/g7cdn6zj55s1hhv4njp6x8_h0000gn/T//cc224n80.s 			page 195


 10970 02b6 48000000 		.4byte	.LFE298
 10971 02ba 0400     		.2byte	0x4
 10972 02bc F3       		.byte	0xf3
 10973 02bd 01       		.uleb128 0x1
 10974 02be 50       		.byte	0x50
 10975 02bf 9F       		.byte	0x9f
 10976 02c0 00000000 		.4byte	0
 10977 02c4 00000000 		.4byte	0
 10978              	.LLST15:
 10979 02c8 00000000 		.4byte	.LVL94
 10980 02cc 00000000 		.4byte	.LVL94
 10981 02d0 0100     		.2byte	0x1
 10982 02d2 51       		.byte	0x51
 10983 02d3 00000000 		.4byte	.LVL94
 10984 02d7 10000000 		.4byte	.LVL95
 10985 02db 1700     		.2byte	0x17
 10986 02dd 71       		.byte	0x71
 10987 02de 00       		.sleb128 0
 10988 02df 12       		.byte	0x12
 10989 02e0 0A       		.byte	0xa
 10990 02e1 FFFF     		.2byte	0xffff
 10991 02e3 1A       		.byte	0x1a
 10992 02e4 0A       		.byte	0xa
 10993 02e5 D007     		.2byte	0x7d0
 10994 02e7 16       		.byte	0x16
 10995 02e8 14       		.byte	0x14
 10996 02e9 0A       		.byte	0xa
 10997 02ea FFFF     		.2byte	0xffff
 10998 02ec 1A       		.byte	0x1a
 10999 02ed 2D       		.byte	0x2d
 11000 02ee 28       		.byte	0x28
 11001 02ef 0100     		.2byte	0x1
 11002 02f1 16       		.byte	0x16
 11003 02f2 13       		.byte	0x13
 11004 02f3 9F       		.byte	0x9f
 11005 02f4 10000000 		.4byte	.LVL95
 11006 02f8 48000000 		.4byte	.LFE298
 11007 02fc 1800     		.2byte	0x18
 11008 02fe F3       		.byte	0xf3
 11009 02ff 01       		.uleb128 0x1
 11010 0300 51       		.byte	0x51
 11011 0301 12       		.byte	0x12
 11012 0302 0A       		.byte	0xa
 11013 0303 FFFF     		.2byte	0xffff
 11014 0305 1A       		.byte	0x1a
 11015 0306 0A       		.byte	0xa
 11016 0307 D007     		.2byte	0x7d0
 11017 0309 16       		.byte	0x16
 11018 030a 14       		.byte	0x14
 11019 030b 0A       		.byte	0xa
 11020 030c FFFF     		.2byte	0xffff
 11021 030e 1A       		.byte	0x1a
 11022 030f 2D       		.byte	0x2d
 11023 0310 28       		.byte	0x28
 11024 0311 0100     		.2byte	0x1
 11025 0313 16       		.byte	0x16
 11026 0314 13       		.byte	0x13
ARM GAS  /var/folders/47/g7cdn6zj55s1hhv4njp6x8_h0000gn/T//cc224n80.s 			page 196


 11027 0315 9F       		.byte	0x9f
 11028 0316 00000000 		.4byte	0
 11029 031a 00000000 		.4byte	0
 11030              	.LLST16:
 11031 031e 00000000 		.4byte	.LVL94
 11032 0322 18000000 		.4byte	.LVL96
 11033 0326 0100     		.2byte	0x1
 11034 0328 52       		.byte	0x52
 11035 0329 18000000 		.4byte	.LVL96
 11036 032d 20000000 		.4byte	.LVL97
 11037 0331 0400     		.2byte	0x4
 11038 0333 F3       		.byte	0xf3
 11039 0334 01       		.uleb128 0x1
 11040 0335 52       		.byte	0x52
 11041 0336 9F       		.byte	0x9f
 11042 0337 20000000 		.4byte	.LVL97
 11043 033b 24000000 		.4byte	.LVL98
 11044 033f 0100     		.2byte	0x1
 11045 0341 52       		.byte	0x52
 11046 0342 24000000 		.4byte	.LVL98
 11047 0346 48000000 		.4byte	.LFE298
 11048 034a 0400     		.2byte	0x4
 11049 034c F3       		.byte	0xf3
 11050 034d 01       		.uleb128 0x1
 11051 034e 52       		.byte	0x52
 11052 034f 9F       		.byte	0x9f
 11053 0350 00000000 		.4byte	0
 11054 0354 00000000 		.4byte	0
 11055              	.LLST17:
 11056 0358 0E000000 		.4byte	.LVL101
 11057 035c 24000000 		.4byte	.LVL103
 11058 0360 0100     		.2byte	0x1
 11059 0362 50       		.byte	0x50
 11060 0363 30000000 		.4byte	.LVL105
 11061 0367 40000000 		.4byte	.LFE299
 11062 036b 0400     		.2byte	0x4
 11063 036d 0A       		.byte	0xa
 11064 036e F401     		.2byte	0x1f4
 11065 0370 9F       		.byte	0x9f
 11066 0371 00000000 		.4byte	0
 11067 0375 00000000 		.4byte	0
 11068              	.LLST18:
 11069 0379 00000000 		.4byte	.LVL106
 11070 037d 0D000000 		.4byte	.LVL107-1
 11071 0381 0200     		.2byte	0x2
 11072 0383 90       		.byte	0x90
 11073 0384 40       		.uleb128 0x40
 11074 0385 0D000000 		.4byte	.LVL107-1
 11075 0389 26000000 		.4byte	.LVL109
 11076 038d 0200     		.2byte	0x2
 11077 038f 90       		.byte	0x90
 11078 0390 50       		.uleb128 0x50
 11079 0391 26000000 		.4byte	.LVL109
 11080 0395 2D000000 		.4byte	.LVL110-1
 11081 0399 0200     		.2byte	0x2
 11082 039b 90       		.byte	0x90
 11083 039c 40       		.uleb128 0x40
ARM GAS  /var/folders/47/g7cdn6zj55s1hhv4njp6x8_h0000gn/T//cc224n80.s 			page 197


 11084 039d 2D000000 		.4byte	.LVL110-1
 11085 03a1 2E000000 		.4byte	.LVL110
 11086 03a5 0600     		.2byte	0x6
 11087 03a7 F3       		.byte	0xf3
 11088 03a8 03       		.uleb128 0x3
 11089 03a9 F5       		.byte	0xf5
 11090 03aa 40       		.uleb128 0x40
 11091 03ab 25       		.uleb128 0x25
 11092 03ac 9F       		.byte	0x9f
 11093 03ad 2E000000 		.4byte	.LVL110
 11094 03b1 32000000 		.4byte	.LVL111
 11095 03b5 0200     		.2byte	0x2
 11096 03b7 90       		.byte	0x90
 11097 03b8 50       		.uleb128 0x50
 11098 03b9 32000000 		.4byte	.LVL111
 11099 03bd 34000000 		.4byte	.LVL112
 11100 03c1 0600     		.2byte	0x6
 11101 03c3 F3       		.byte	0xf3
 11102 03c4 03       		.uleb128 0x3
 11103 03c5 F5       		.byte	0xf5
 11104 03c6 40       		.uleb128 0x40
 11105 03c7 25       		.uleb128 0x25
 11106 03c8 9F       		.byte	0x9f
 11107 03c9 34000000 		.4byte	.LVL112
 11108 03cd 3C000000 		.4byte	.LVL113
 11109 03d1 0200     		.2byte	0x2
 11110 03d3 90       		.byte	0x90
 11111 03d4 50       		.uleb128 0x50
 11112 03d5 3C000000 		.4byte	.LVL113
 11113 03d9 43000000 		.4byte	.LVL114-1
 11114 03dd 0200     		.2byte	0x2
 11115 03df 90       		.byte	0x90
 11116 03e0 40       		.uleb128 0x40
 11117 03e1 43000000 		.4byte	.LVL114-1
 11118 03e5 48000000 		.4byte	.LFE267
 11119 03e9 0600     		.2byte	0x6
 11120 03eb F3       		.byte	0xf3
 11121 03ec 03       		.uleb128 0x3
 11122 03ed F5       		.byte	0xf5
 11123 03ee 40       		.uleb128 0x40
 11124 03ef 25       		.uleb128 0x25
 11125 03f0 9F       		.byte	0x9f
 11126 03f1 00000000 		.4byte	0
 11127 03f5 00000000 		.4byte	0
 11128              	.LLST19:
 11129 03f9 10000000 		.4byte	.LVL108
 11130 03fd 26000000 		.4byte	.LVL109
 11131 0401 0200     		.2byte	0x2
 11132 0403 90       		.byte	0x90
 11133 0404 50       		.uleb128 0x50
 11134 0405 26000000 		.4byte	.LVL109
 11135 0409 2D000000 		.4byte	.LVL110-1
 11136 040d 0200     		.2byte	0x2
 11137 040f 90       		.byte	0x90
 11138 0410 40       		.uleb128 0x40
 11139 0411 2D000000 		.4byte	.LVL110-1
 11140 0415 2E000000 		.4byte	.LVL110
ARM GAS  /var/folders/47/g7cdn6zj55s1hhv4njp6x8_h0000gn/T//cc224n80.s 			page 198


 11141 0419 0600     		.2byte	0x6
 11142 041b F3       		.byte	0xf3
 11143 041c 03       		.uleb128 0x3
 11144 041d F5       		.byte	0xf5
 11145 041e 40       		.uleb128 0x40
 11146 041f 25       		.uleb128 0x25
 11147 0420 9F       		.byte	0x9f
 11148 0421 34000000 		.4byte	.LVL112
 11149 0425 3C000000 		.4byte	.LVL113
 11150 0429 0200     		.2byte	0x2
 11151 042b 90       		.byte	0x90
 11152 042c 50       		.uleb128 0x50
 11153 042d 3C000000 		.4byte	.LVL113
 11154 0431 43000000 		.4byte	.LVL114-1
 11155 0435 0200     		.2byte	0x2
 11156 0437 90       		.byte	0x90
 11157 0438 40       		.uleb128 0x40
 11158 0439 43000000 		.4byte	.LVL114-1
 11159 043d 48000000 		.4byte	.LFE267
 11160 0441 0600     		.2byte	0x6
 11161 0443 F3       		.byte	0xf3
 11162 0444 03       		.uleb128 0x3
 11163 0445 F5       		.byte	0xf5
 11164 0446 40       		.uleb128 0x40
 11165 0447 25       		.uleb128 0x25
 11166 0448 9F       		.byte	0x9f
 11167 0449 00000000 		.4byte	0
 11168 044d 00000000 		.4byte	0
 11169              	.LLST20:
 11170 0451 00000000 		.4byte	.LVL116
 11171 0455 0D000000 		.4byte	.LVL117-1
 11172 0459 0200     		.2byte	0x2
 11173 045b 90       		.byte	0x90
 11174 045c 40       		.uleb128 0x40
 11175 045d 0D000000 		.4byte	.LVL117-1
 11176 0461 26000000 		.4byte	.LVL118
 11177 0465 0200     		.2byte	0x2
 11178 0467 90       		.byte	0x90
 11179 0468 50       		.uleb128 0x50
 11180 0469 26000000 		.4byte	.LVL118
 11181 046d 2D000000 		.4byte	.LVL119-1
 11182 0471 0200     		.2byte	0x2
 11183 0473 90       		.byte	0x90
 11184 0474 40       		.uleb128 0x40
 11185 0475 2D000000 		.4byte	.LVL119-1
 11186 0479 2E000000 		.4byte	.LVL119
 11187 047d 0600     		.2byte	0x6
 11188 047f F3       		.byte	0xf3
 11189 0480 03       		.uleb128 0x3
 11190 0481 F5       		.byte	0xf5
 11191 0482 40       		.uleb128 0x40
 11192 0483 25       		.uleb128 0x25
 11193 0484 9F       		.byte	0x9f
 11194 0485 2E000000 		.4byte	.LVL119
 11195 0489 32000000 		.4byte	.LVL120
 11196 048d 0200     		.2byte	0x2
 11197 048f 90       		.byte	0x90
ARM GAS  /var/folders/47/g7cdn6zj55s1hhv4njp6x8_h0000gn/T//cc224n80.s 			page 199


 11198 0490 50       		.uleb128 0x50
 11199 0491 32000000 		.4byte	.LVL120
 11200 0495 34000000 		.4byte	.LVL121
 11201 0499 0600     		.2byte	0x6
 11202 049b F3       		.byte	0xf3
 11203 049c 03       		.uleb128 0x3
 11204 049d F5       		.byte	0xf5
 11205 049e 40       		.uleb128 0x40
 11206 049f 25       		.uleb128 0x25
 11207 04a0 9F       		.byte	0x9f
 11208 04a1 34000000 		.4byte	.LVL121
 11209 04a5 3C000000 		.4byte	.LVL122
 11210 04a9 0200     		.2byte	0x2
 11211 04ab 90       		.byte	0x90
 11212 04ac 50       		.uleb128 0x50
 11213 04ad 3C000000 		.4byte	.LVL122
 11214 04b1 43000000 		.4byte	.LVL123-1
 11215 04b5 0200     		.2byte	0x2
 11216 04b7 90       		.byte	0x90
 11217 04b8 40       		.uleb128 0x40
 11218 04b9 43000000 		.4byte	.LVL123-1
 11219 04bd 48000000 		.4byte	.LFE268
 11220 04c1 0600     		.2byte	0x6
 11221 04c3 F3       		.byte	0xf3
 11222 04c4 03       		.uleb128 0x3
 11223 04c5 F5       		.byte	0xf5
 11224 04c6 40       		.uleb128 0x40
 11225 04c7 25       		.uleb128 0x25
 11226 04c8 9F       		.byte	0x9f
 11227 04c9 00000000 		.4byte	0
 11228 04cd 00000000 		.4byte	0
 11229              	.LLST21:
 11230 04d1 00000000 		.4byte	.LVL124
 11231 04d5 0D000000 		.4byte	.LVL125-1
 11232 04d9 0200     		.2byte	0x2
 11233 04db 90       		.byte	0x90
 11234 04dc 40       		.uleb128 0x40
 11235 04dd 0D000000 		.4byte	.LVL125-1
 11236 04e1 26000000 		.4byte	.LVL126
 11237 04e5 0200     		.2byte	0x2
 11238 04e7 90       		.byte	0x90
 11239 04e8 50       		.uleb128 0x50
 11240 04e9 26000000 		.4byte	.LVL126
 11241 04ed 2D000000 		.4byte	.LVL127-1
 11242 04f1 0200     		.2byte	0x2
 11243 04f3 90       		.byte	0x90
 11244 04f4 40       		.uleb128 0x40
 11245 04f5 2D000000 		.4byte	.LVL127-1
 11246 04f9 2E000000 		.4byte	.LVL127
 11247 04fd 0600     		.2byte	0x6
 11248 04ff F3       		.byte	0xf3
 11249 0500 03       		.uleb128 0x3
 11250 0501 F5       		.byte	0xf5
 11251 0502 40       		.uleb128 0x40
 11252 0503 25       		.uleb128 0x25
 11253 0504 9F       		.byte	0x9f
 11254 0505 2E000000 		.4byte	.LVL127
ARM GAS  /var/folders/47/g7cdn6zj55s1hhv4njp6x8_h0000gn/T//cc224n80.s 			page 200


 11255 0509 32000000 		.4byte	.LVL128
 11256 050d 0200     		.2byte	0x2
 11257 050f 90       		.byte	0x90
 11258 0510 50       		.uleb128 0x50
 11259 0511 32000000 		.4byte	.LVL128
 11260 0515 34000000 		.4byte	.LVL129
 11261 0519 0600     		.2byte	0x6
 11262 051b F3       		.byte	0xf3
 11263 051c 03       		.uleb128 0x3
 11264 051d F5       		.byte	0xf5
 11265 051e 40       		.uleb128 0x40
 11266 051f 25       		.uleb128 0x25
 11267 0520 9F       		.byte	0x9f
 11268 0521 34000000 		.4byte	.LVL129
 11269 0525 3C000000 		.4byte	.LVL130
 11270 0529 0200     		.2byte	0x2
 11271 052b 90       		.byte	0x90
 11272 052c 50       		.uleb128 0x50
 11273 052d 3C000000 		.4byte	.LVL130
 11274 0531 43000000 		.4byte	.LVL131-1
 11275 0535 0200     		.2byte	0x2
 11276 0537 90       		.byte	0x90
 11277 0538 40       		.uleb128 0x40
 11278 0539 43000000 		.4byte	.LVL131-1
 11279 053d 48000000 		.4byte	.LFE269
 11280 0541 0600     		.2byte	0x6
 11281 0543 F3       		.byte	0xf3
 11282 0544 03       		.uleb128 0x3
 11283 0545 F5       		.byte	0xf5
 11284 0546 40       		.uleb128 0x40
 11285 0547 25       		.uleb128 0x25
 11286 0548 9F       		.byte	0x9f
 11287 0549 00000000 		.4byte	0
 11288 054d 00000000 		.4byte	0
 11289              	.LLST22:
 11290 0551 00000000 		.4byte	.LVL132
 11291 0555 0D000000 		.4byte	.LVL133-1
 11292 0559 0200     		.2byte	0x2
 11293 055b 90       		.byte	0x90
 11294 055c 40       		.uleb128 0x40
 11295 055d 0D000000 		.4byte	.LVL133-1
 11296 0561 2C000000 		.4byte	.LVL134
 11297 0565 0200     		.2byte	0x2
 11298 0567 90       		.byte	0x90
 11299 0568 50       		.uleb128 0x50
 11300 0569 2C000000 		.4byte	.LVL134
 11301 056d 33000000 		.4byte	.LVL135-1
 11302 0571 0200     		.2byte	0x2
 11303 0573 90       		.byte	0x90
 11304 0574 40       		.uleb128 0x40
 11305 0575 33000000 		.4byte	.LVL135-1
 11306 0579 34000000 		.4byte	.LVL135
 11307 057d 0600     		.2byte	0x6
 11308 057f F3       		.byte	0xf3
 11309 0580 03       		.uleb128 0x3
 11310 0581 F5       		.byte	0xf5
 11311 0582 40       		.uleb128 0x40
ARM GAS  /var/folders/47/g7cdn6zj55s1hhv4njp6x8_h0000gn/T//cc224n80.s 			page 201


 11312 0583 25       		.uleb128 0x25
 11313 0584 9F       		.byte	0x9f
 11314 0585 34000000 		.4byte	.LVL135
 11315 0589 38000000 		.4byte	.LVL136
 11316 058d 0200     		.2byte	0x2
 11317 058f 90       		.byte	0x90
 11318 0590 50       		.uleb128 0x50
 11319 0591 38000000 		.4byte	.LVL136
 11320 0595 3A000000 		.4byte	.LVL137
 11321 0599 0600     		.2byte	0x6
 11322 059b F3       		.byte	0xf3
 11323 059c 03       		.uleb128 0x3
 11324 059d F5       		.byte	0xf5
 11325 059e 40       		.uleb128 0x40
 11326 059f 25       		.uleb128 0x25
 11327 05a0 9F       		.byte	0x9f
 11328 05a1 3A000000 		.4byte	.LVL137
 11329 05a5 42000000 		.4byte	.LVL138
 11330 05a9 0200     		.2byte	0x2
 11331 05ab 90       		.byte	0x90
 11332 05ac 50       		.uleb128 0x50
 11333 05ad 42000000 		.4byte	.LVL138
 11334 05b1 49000000 		.4byte	.LVL139-1
 11335 05b5 0500     		.2byte	0x5
 11336 05b7 03       		.byte	0x3
 11337 05b8 00000000 		.4byte	m_position_set
 11338 05bc 49000000 		.4byte	.LVL139-1
 11339 05c0 54000000 		.4byte	.LFE271
 11340 05c4 0600     		.2byte	0x6
 11341 05c6 F3       		.byte	0xf3
 11342 05c7 03       		.uleb128 0x3
 11343 05c8 F5       		.byte	0xf5
 11344 05c9 40       		.uleb128 0x40
 11345 05ca 25       		.uleb128 0x25
 11346 05cb 9F       		.byte	0x9f
 11347 05cc 00000000 		.4byte	0
 11348 05d0 00000000 		.4byte	0
 11349              	.LLST23:
 11350 05d4 00000000 		.4byte	.LVL140
 11351 05d8 0D000000 		.4byte	.LVL141-1
 11352 05dc 0200     		.2byte	0x2
 11353 05de 90       		.byte	0x90
 11354 05df 40       		.uleb128 0x40
 11355 05e0 0D000000 		.4byte	.LVL141-1
 11356 05e4 26000000 		.4byte	.LVL143
 11357 05e8 0200     		.2byte	0x2
 11358 05ea 90       		.byte	0x90
 11359 05eb 50       		.uleb128 0x50
 11360 05ec 26000000 		.4byte	.LVL143
 11361 05f0 2D000000 		.4byte	.LVL144-1
 11362 05f4 0200     		.2byte	0x2
 11363 05f6 90       		.byte	0x90
 11364 05f7 40       		.uleb128 0x40
 11365 05f8 2D000000 		.4byte	.LVL144-1
 11366 05fc 2E000000 		.4byte	.LVL144
 11367 0600 0600     		.2byte	0x6
 11368 0602 F3       		.byte	0xf3
ARM GAS  /var/folders/47/g7cdn6zj55s1hhv4njp6x8_h0000gn/T//cc224n80.s 			page 202


 11369 0603 03       		.uleb128 0x3
 11370 0604 F5       		.byte	0xf5
 11371 0605 40       		.uleb128 0x40
 11372 0606 25       		.uleb128 0x25
 11373 0607 9F       		.byte	0x9f
 11374 0608 2E000000 		.4byte	.LVL144
 11375 060c 32000000 		.4byte	.LVL145
 11376 0610 0200     		.2byte	0x2
 11377 0612 90       		.byte	0x90
 11378 0613 50       		.uleb128 0x50
 11379 0614 32000000 		.4byte	.LVL145
 11380 0618 34000000 		.4byte	.LVL146
 11381 061c 0600     		.2byte	0x6
 11382 061e F3       		.byte	0xf3
 11383 061f 03       		.uleb128 0x3
 11384 0620 F5       		.byte	0xf5
 11385 0621 40       		.uleb128 0x40
 11386 0622 25       		.uleb128 0x25
 11387 0623 9F       		.byte	0x9f
 11388 0624 34000000 		.4byte	.LVL146
 11389 0628 3C000000 		.4byte	.LVL147
 11390 062c 0200     		.2byte	0x2
 11391 062e 90       		.byte	0x90
 11392 062f 50       		.uleb128 0x50
 11393 0630 3C000000 		.4byte	.LVL147
 11394 0634 43000000 		.4byte	.LVL148-1
 11395 0638 0200     		.2byte	0x2
 11396 063a 90       		.byte	0x90
 11397 063b 40       		.uleb128 0x40
 11398 063c 43000000 		.4byte	.LVL148-1
 11399 0640 48000000 		.4byte	.LFE272
 11400 0644 0600     		.2byte	0x6
 11401 0646 F3       		.byte	0xf3
 11402 0647 03       		.uleb128 0x3
 11403 0648 F5       		.byte	0xf5
 11404 0649 40       		.uleb128 0x40
 11405 064a 25       		.uleb128 0x25
 11406 064b 9F       		.byte	0x9f
 11407 064c 00000000 		.4byte	0
 11408 0650 00000000 		.4byte	0
 11409              	.LLST24:
 11410 0654 10000000 		.4byte	.LVL142
 11411 0658 26000000 		.4byte	.LVL143
 11412 065c 0200     		.2byte	0x2
 11413 065e 90       		.byte	0x90
 11414 065f 50       		.uleb128 0x50
 11415 0660 26000000 		.4byte	.LVL143
 11416 0664 2D000000 		.4byte	.LVL144-1
 11417 0668 0200     		.2byte	0x2
 11418 066a 90       		.byte	0x90
 11419 066b 40       		.uleb128 0x40
 11420 066c 2D000000 		.4byte	.LVL144-1
 11421 0670 2E000000 		.4byte	.LVL144
 11422 0674 0600     		.2byte	0x6
 11423 0676 F3       		.byte	0xf3
 11424 0677 03       		.uleb128 0x3
 11425 0678 F5       		.byte	0xf5
ARM GAS  /var/folders/47/g7cdn6zj55s1hhv4njp6x8_h0000gn/T//cc224n80.s 			page 203


 11426 0679 40       		.uleb128 0x40
 11427 067a 25       		.uleb128 0x25
 11428 067b 9F       		.byte	0x9f
 11429 067c 34000000 		.4byte	.LVL146
 11430 0680 3C000000 		.4byte	.LVL147
 11431 0684 0200     		.2byte	0x2
 11432 0686 90       		.byte	0x90
 11433 0687 50       		.uleb128 0x50
 11434 0688 3C000000 		.4byte	.LVL147
 11435 068c 43000000 		.4byte	.LVL148-1
 11436 0690 0200     		.2byte	0x2
 11437 0692 90       		.byte	0x90
 11438 0693 40       		.uleb128 0x40
 11439 0694 43000000 		.4byte	.LVL148-1
 11440 0698 48000000 		.4byte	.LFE272
 11441 069c 0600     		.2byte	0x6
 11442 069e F3       		.byte	0xf3
 11443 069f 03       		.uleb128 0x3
 11444 06a0 F5       		.byte	0xf5
 11445 06a1 40       		.uleb128 0x40
 11446 06a2 25       		.uleb128 0x25
 11447 06a3 9F       		.byte	0x9f
 11448 06a4 00000000 		.4byte	0
 11449 06a8 00000000 		.4byte	0
 11450              	.LLST25:
 11451 06ac 00000000 		.4byte	.LVL150
 11452 06b0 0D000000 		.4byte	.LVL151-1
 11453 06b4 0200     		.2byte	0x2
 11454 06b6 90       		.byte	0x90
 11455 06b7 40       		.uleb128 0x40
 11456 06b8 0D000000 		.4byte	.LVL151-1
 11457 06bc 26000000 		.4byte	.LVL152
 11458 06c0 0200     		.2byte	0x2
 11459 06c2 90       		.byte	0x90
 11460 06c3 50       		.uleb128 0x50
 11461 06c4 26000000 		.4byte	.LVL152
 11462 06c8 2D000000 		.4byte	.LVL153-1
 11463 06cc 0200     		.2byte	0x2
 11464 06ce 90       		.byte	0x90
 11465 06cf 40       		.uleb128 0x40
 11466 06d0 2D000000 		.4byte	.LVL153-1
 11467 06d4 2E000000 		.4byte	.LVL153
 11468 06d8 0600     		.2byte	0x6
 11469 06da F3       		.byte	0xf3
 11470 06db 03       		.uleb128 0x3
 11471 06dc F5       		.byte	0xf5
 11472 06dd 40       		.uleb128 0x40
 11473 06de 25       		.uleb128 0x25
 11474 06df 9F       		.byte	0x9f
 11475 06e0 2E000000 		.4byte	.LVL153
 11476 06e4 32000000 		.4byte	.LVL154
 11477 06e8 0200     		.2byte	0x2
 11478 06ea 90       		.byte	0x90
 11479 06eb 50       		.uleb128 0x50
 11480 06ec 32000000 		.4byte	.LVL154
 11481 06f0 34000000 		.4byte	.LVL155
 11482 06f4 0600     		.2byte	0x6
ARM GAS  /var/folders/47/g7cdn6zj55s1hhv4njp6x8_h0000gn/T//cc224n80.s 			page 204


 11483 06f6 F3       		.byte	0xf3
 11484 06f7 03       		.uleb128 0x3
 11485 06f8 F5       		.byte	0xf5
 11486 06f9 40       		.uleb128 0x40
 11487 06fa 25       		.uleb128 0x25
 11488 06fb 9F       		.byte	0x9f
 11489 06fc 34000000 		.4byte	.LVL155
 11490 0700 3C000000 		.4byte	.LVL156
 11491 0704 0200     		.2byte	0x2
 11492 0706 90       		.byte	0x90
 11493 0707 50       		.uleb128 0x50
 11494 0708 3C000000 		.4byte	.LVL156
 11495 070c 43000000 		.4byte	.LVL157-1
 11496 0710 0200     		.2byte	0x2
 11497 0712 90       		.byte	0x90
 11498 0713 40       		.uleb128 0x40
 11499 0714 43000000 		.4byte	.LVL157-1
 11500 0718 48000000 		.4byte	.LFE273
 11501 071c 0600     		.2byte	0x6
 11502 071e F3       		.byte	0xf3
 11503 071f 03       		.uleb128 0x3
 11504 0720 F5       		.byte	0xf5
 11505 0721 40       		.uleb128 0x40
 11506 0722 25       		.uleb128 0x25
 11507 0723 9F       		.byte	0x9f
 11508 0724 00000000 		.4byte	0
 11509 0728 00000000 		.4byte	0
 11510              	.LLST26:
 11511 072c 00000000 		.4byte	.LVL158
 11512 0730 09000000 		.4byte	.LVL159-1
 11513 0734 0100     		.2byte	0x1
 11514 0736 50       		.byte	0x50
 11515 0737 09000000 		.4byte	.LVL159-1
 11516 073b 44010000 		.4byte	.LFE300
 11517 073f 0400     		.2byte	0x4
 11518 0741 F3       		.byte	0xf3
 11519 0742 01       		.uleb128 0x1
 11520 0743 50       		.byte	0x50
 11521 0744 9F       		.byte	0x9f
 11522 0745 00000000 		.4byte	0
 11523 0749 00000000 		.4byte	0
 11524              	.LLST27:
 11525 074d 66000000 		.4byte	.LVL174
 11526 0751 80000000 		.4byte	.LVL176
 11527 0755 0200     		.2byte	0x2
 11528 0757 90       		.byte	0x90
 11529 0758 40       		.uleb128 0x40
 11530 0759 AC000000 		.4byte	.LVL178
 11531 075d EF000000 		.4byte	.LVL182-1
 11532 0761 0200     		.2byte	0x2
 11533 0763 90       		.byte	0x90
 11534 0764 40       		.uleb128 0x40
 11535 0765 90010000 		.4byte	.LVL188
 11536 0769 9B010000 		.4byte	.LVL189-1
 11537 076d 0200     		.2byte	0x2
 11538 076f 90       		.byte	0x90
 11539 0770 40       		.uleb128 0x40
ARM GAS  /var/folders/47/g7cdn6zj55s1hhv4njp6x8_h0000gn/T//cc224n80.s 			page 205


 11540 0771 00000000 		.4byte	0
 11541 0775 00000000 		.4byte	0
 11542              	.LLST28:
 11543 0779 76000000 		.4byte	.LVL175
 11544 077d A2000000 		.4byte	.LVL177
 11545 0781 0200     		.2byte	0x2
 11546 0783 90       		.byte	0x90
 11547 0784 50       		.uleb128 0x50
 11548 0785 AC000000 		.4byte	.LVL178
 11549 0789 78010000 		.4byte	.LVL185
 11550 078d 0200     		.2byte	0x2
 11551 078f 90       		.byte	0x90
 11552 0790 50       		.uleb128 0x50
 11553 0791 82010000 		.4byte	.LVL186
 11554 0795 86010000 		.4byte	.LVL187
 11555 0799 0200     		.2byte	0x2
 11556 079b 90       		.byte	0x90
 11557 079c 50       		.uleb128 0x50
 11558 079d 90010000 		.4byte	.LVL188
 11559 07a1 C8010000 		.4byte	.LFE309
 11560 07a5 0200     		.2byte	0x2
 11561 07a7 90       		.byte	0x90
 11562 07a8 50       		.uleb128 0x50
 11563 07a9 00000000 		.4byte	0
 11564 07ad 00000000 		.4byte	0
 11565              	.LLST29:
 11566 07b1 CC000000 		.4byte	.LVL179
 11567 07b5 DE000000 		.4byte	.LVL180
 11568 07b9 0200     		.2byte	0x2
 11569 07bb 90       		.byte	0x90
 11570 07bc 43       		.uleb128 0x43
 11571 07bd EC000000 		.4byte	.LVL181
 11572 07c1 EF000000 		.4byte	.LVL182-1
 11573 07c5 0200     		.2byte	0x2
 11574 07c7 90       		.byte	0x90
 11575 07c8 43       		.uleb128 0x43
 11576 07c9 F0000000 		.4byte	.LVL182
 11577 07cd 56010000 		.4byte	.LVL183
 11578 07d1 0200     		.2byte	0x2
 11579 07d3 90       		.byte	0x90
 11580 07d4 40       		.uleb128 0x40
 11581 07d5 00000000 		.4byte	0
 11582 07d9 00000000 		.4byte	0
 11583              	.LLST30:
 11584 07dd 00000000 		.4byte	.LVL190
 11585 07e1 15000000 		.4byte	.LVL191-1
 11586 07e5 0100     		.2byte	0x1
 11587 07e7 50       		.byte	0x50
 11588 07e8 15000000 		.4byte	.LVL191-1
 11589 07ec 5C000000 		.4byte	.LVL194
 11590 07f0 0100     		.2byte	0x1
 11591 07f2 54       		.byte	0x54
 11592 07f3 5C000000 		.4byte	.LVL194
 11593 07f7 60000000 		.4byte	.LVL195
 11594 07fb 0400     		.2byte	0x4
 11595 07fd F3       		.byte	0xf3
 11596 07fe 01       		.uleb128 0x1
ARM GAS  /var/folders/47/g7cdn6zj55s1hhv4njp6x8_h0000gn/T//cc224n80.s 			page 206


 11597 07ff 50       		.byte	0x50
 11598 0800 9F       		.byte	0x9f
 11599 0801 60000000 		.4byte	.LVL195
 11600 0805 68000000 		.4byte	.LVL197
 11601 0809 0100     		.2byte	0x1
 11602 080b 54       		.byte	0x54
 11603 080c 68000000 		.4byte	.LVL197
 11604 0810 6C000000 		.4byte	.LVL198
 11605 0814 0400     		.2byte	0x4
 11606 0816 F3       		.byte	0xf3
 11607 0817 01       		.uleb128 0x1
 11608 0818 50       		.byte	0x50
 11609 0819 9F       		.byte	0x9f
 11610 081a 6C000000 		.4byte	.LVL198
 11611 081e D0000000 		.4byte	.LFE258
 11612 0822 0100     		.2byte	0x1
 11613 0824 54       		.byte	0x54
 11614 0825 00000000 		.4byte	0
 11615 0829 00000000 		.4byte	0
 11616              	.LLST31:
 11617 082d 00000000 		.4byte	.LVL208
 11618 0831 14000000 		.4byte	.LVL209
 11619 0835 0100     		.2byte	0x1
 11620 0837 50       		.byte	0x50
 11621 0838 14000000 		.4byte	.LVL209
 11622 083c 60000000 		.4byte	.LFE304
 11623 0840 0400     		.2byte	0x4
 11624 0842 F3       		.byte	0xf3
 11625 0843 01       		.uleb128 0x1
 11626 0844 50       		.byte	0x50
 11627 0845 9F       		.byte	0x9f
 11628 0846 00000000 		.4byte	0
 11629 084a 00000000 		.4byte	0
 11630              	.LLST32:
 11631 084e 32000000 		.4byte	.LVL214
 11632 0852 5E010000 		.4byte	.LVL231
 11633 0856 0200     		.2byte	0x2
 11634 0858 90       		.byte	0x90
 11635 0859 50       		.uleb128 0x50
 11636 085a 62010000 		.4byte	.LVL232
 11637 085e F8020000 		.4byte	.LVL250
 11638 0862 0200     		.2byte	0x2
 11639 0864 90       		.byte	0x90
 11640 0865 50       		.uleb128 0x50
 11641 0866 FC020000 		.4byte	.LVL251
 11642 086a A4040000 		.4byte	.LFE301
 11643 086e 0200     		.2byte	0x2
 11644 0870 90       		.byte	0x90
 11645 0871 50       		.uleb128 0x50
 11646 0872 00000000 		.4byte	0
 11647 0876 00000000 		.4byte	0
 11648              	.LLST33:
 11649 087a 7A000000 		.4byte	.LVL218
 11650 087e 7D000000 		.4byte	.LVL219-1
 11651 0882 0200     		.2byte	0x2
 11652 0884 90       		.byte	0x90
 11653 0885 40       		.uleb128 0x40
ARM GAS  /var/folders/47/g7cdn6zj55s1hhv4njp6x8_h0000gn/T//cc224n80.s 			page 207


 11654 0886 7D000000 		.4byte	.LVL219-1
 11655 088a F6000000 		.4byte	.LVL227
 11656 088e 0200     		.2byte	0x2
 11657 0890 90       		.byte	0x90
 11658 0891 52       		.uleb128 0x52
 11659 0892 62010000 		.4byte	.LVL232
 11660 0896 78010000 		.4byte	.LVL236
 11661 089a 0200     		.2byte	0x2
 11662 089c 90       		.byte	0x90
 11663 089d 52       		.uleb128 0x52
 11664 089e FC020000 		.4byte	.LVL251
 11665 08a2 9C030000 		.4byte	.LVL255
 11666 08a6 0200     		.2byte	0x2
 11667 08a8 90       		.byte	0x90
 11668 08a9 52       		.uleb128 0x52
 11669 08aa 00000000 		.4byte	0
 11670 08ae 00000000 		.4byte	0
 11671              	.LLST34:
 11672 08b2 A2000000 		.4byte	.LVL220
 11673 08b6 C1000000 		.4byte	.LVL221-1
 11674 08ba 0200     		.2byte	0x2
 11675 08bc 90       		.byte	0x90
 11676 08bd 40       		.uleb128 0x40
 11677 08be C1000000 		.4byte	.LVL221-1
 11678 08c2 14010000 		.4byte	.LVL229
 11679 08c6 0200     		.2byte	0x2
 11680 08c8 90       		.byte	0x90
 11681 08c9 51       		.uleb128 0x51
 11682 08ca 62010000 		.4byte	.LVL232
 11683 08ce 78010000 		.4byte	.LVL236
 11684 08d2 0200     		.2byte	0x2
 11685 08d4 90       		.byte	0x90
 11686 08d5 51       		.uleb128 0x51
 11687 08d6 FC020000 		.4byte	.LVL251
 11688 08da 9C030000 		.4byte	.LVL255
 11689 08de 0200     		.2byte	0x2
 11690 08e0 90       		.byte	0x90
 11691 08e1 51       		.uleb128 0x51
 11692 08e2 00000000 		.4byte	0
 11693 08e6 00000000 		.4byte	0
 11694              	.LLST35:
 11695 08ea CA000000 		.4byte	.LVL222
 11696 08ee D2000000 		.4byte	.LVL223
 11697 08f2 0200     		.2byte	0x2
 11698 08f4 90       		.byte	0x90
 11699 08f5 40       		.uleb128 0x40
 11700 08f6 D2000000 		.4byte	.LVL223
 11701 08fa EE000000 		.4byte	.LVL225
 11702 08fe 0200     		.2byte	0x2
 11703 0900 90       		.byte	0x90
 11704 0901 53       		.uleb128 0x53
 11705 0902 62010000 		.4byte	.LVL232
 11706 0906 66010000 		.4byte	.LVL233
 11707 090a 0200     		.2byte	0x2
 11708 090c 90       		.byte	0x90
 11709 090d 53       		.uleb128 0x53
 11710 090e FC020000 		.4byte	.LVL251
ARM GAS  /var/folders/47/g7cdn6zj55s1hhv4njp6x8_h0000gn/T//cc224n80.s 			page 208


 11711 0912 FF020000 		.4byte	.LVL252-1
 11712 0916 0200     		.2byte	0x2
 11713 0918 90       		.byte	0x90
 11714 0919 40       		.uleb128 0x40
 11715 091a FF020000 		.4byte	.LVL252-1
 11716 091e 04030000 		.4byte	.LVL253
 11717 0922 0200     		.2byte	0x2
 11718 0924 90       		.byte	0x90
 11719 0925 53       		.uleb128 0x53
 11720 0926 04030000 		.4byte	.LVL253
 11721 092a 07030000 		.4byte	.LVL254-1
 11722 092e 0200     		.2byte	0x2
 11723 0930 90       		.byte	0x90
 11724 0931 40       		.uleb128 0x40
 11725 0932 07030000 		.4byte	.LVL254-1
 11726 0936 9C030000 		.4byte	.LVL255
 11727 093a 0200     		.2byte	0x2
 11728 093c 90       		.byte	0x90
 11729 093d 53       		.uleb128 0x53
 11730 093e 00000000 		.4byte	0
 11731 0942 00000000 		.4byte	0
 11732              	.LLST36:
 11733 0946 CA000000 		.4byte	.LVL222
 11734 094a D2000000 		.4byte	.LVL223
 11735 094e 0200     		.2byte	0x2
 11736 0950 90       		.byte	0x90
 11737 0951 52       		.uleb128 0x52
 11738 0952 D2000000 		.4byte	.LVL223
 11739 0956 E4000000 		.4byte	.LVL224
 11740 095a 0200     		.2byte	0x2
 11741 095c 90       		.byte	0x90
 11742 095d 40       		.uleb128 0x40
 11743 095e 62010000 		.4byte	.LVL232
 11744 0962 70010000 		.4byte	.LVL234
 11745 0966 0200     		.2byte	0x2
 11746 0968 90       		.byte	0x90
 11747 0969 40       		.uleb128 0x40
 11748 096a FC020000 		.4byte	.LVL251
 11749 096e 08030000 		.4byte	.LVL254
 11750 0972 0200     		.2byte	0x2
 11751 0974 90       		.byte	0x90
 11752 0975 52       		.uleb128 0x52
 11753 0976 08030000 		.4byte	.LVL254
 11754 097a 9C030000 		.4byte	.LVL255
 11755 097e 0200     		.2byte	0x2
 11756 0980 90       		.byte	0x90
 11757 0981 40       		.uleb128 0x40
 11758 0982 00000000 		.4byte	0
 11759 0986 00000000 		.4byte	0
 11760              	.LLST37:
 11761 098a 06010000 		.4byte	.LVL228
 11762 098e 42010000 		.4byte	.LVL230
 11763 0992 0200     		.2byte	0x2
 11764 0994 90       		.byte	0x90
 11765 0995 40       		.uleb128 0x40
 11766 0996 42010000 		.4byte	.LVL230
 11767 099a 62010000 		.4byte	.LVL232
ARM GAS  /var/folders/47/g7cdn6zj55s1hhv4njp6x8_h0000gn/T//cc224n80.s 			page 209


 11768 099e 0200     		.2byte	0x2
 11769 09a0 90       		.byte	0x90
 11770 09a1 53       		.uleb128 0x53
 11771 09a2 A2010000 		.4byte	.LVL239
 11772 09a6 DB010000 		.4byte	.LVL240-1
 11773 09aa 0200     		.2byte	0x2
 11774 09ac 90       		.byte	0x90
 11775 09ad 40       		.uleb128 0x40
 11776 09ae DB010000 		.4byte	.LVL240-1
 11777 09b2 FA010000 		.4byte	.LVL242
 11778 09b6 0200     		.2byte	0x2
 11779 09b8 90       		.byte	0x90
 11780 09b9 53       		.uleb128 0x53
 11781 09ba 02020000 		.4byte	.LVL243
 11782 09be 90020000 		.4byte	.LVL246
 11783 09c2 0200     		.2byte	0x2
 11784 09c4 90       		.byte	0x90
 11785 09c5 53       		.uleb128 0x53
 11786 09c6 9C030000 		.4byte	.LVL255
 11787 09ca BA030000 		.4byte	.LVL256
 11788 09ce 0200     		.2byte	0x2
 11789 09d0 90       		.byte	0x90
 11790 09d1 40       		.uleb128 0x40
 11791 09d2 D6030000 		.4byte	.LVL259
 11792 09d6 A4040000 		.4byte	.LFE301
 11793 09da 0200     		.2byte	0x2
 11794 09dc 90       		.byte	0x90
 11795 09dd 53       		.uleb128 0x53
 11796 09de 00000000 		.4byte	0
 11797 09e2 00000000 		.4byte	0
 11798              	.LLST38:
 11799 09e6 C4030000 		.4byte	.LVL257
 11800 09ea D6030000 		.4byte	.LVL259
 11801 09ee 0300     		.2byte	0x3
 11802 09f0 08       		.byte	0x8
 11803 09f1 20       		.byte	0x20
 11804 09f2 9F       		.byte	0x9f
 11805 09f3 00000000 		.4byte	0
 11806 09f7 00000000 		.4byte	0
 11807              	.LLST39:
 11808 09fb D0030000 		.4byte	.LVL258
 11809 09ff D6030000 		.4byte	.LVL259
 11810 0a03 0200     		.2byte	0x2
 11811 0a05 30       		.byte	0x30
 11812 0a06 9F       		.byte	0x9f
 11813 0a07 00000000 		.4byte	0
 11814 0a0b 00000000 		.4byte	0
 11815              		.section	.debug_aranges,"",%progbits
 11816 0000 A4010000 		.4byte	0x1a4
 11817 0004 0200     		.2byte	0x2
 11818 0006 00000000 		.4byte	.Ldebug_info0
 11819 000a 04       		.byte	0x4
 11820 000b 00       		.byte	0
 11821 000c 0000     		.2byte	0
 11822 000e 0000     		.2byte	0
 11823 0010 00000000 		.4byte	.LFB305
 11824 0014 30010000 		.4byte	.LFE305-.LFB305
ARM GAS  /var/folders/47/g7cdn6zj55s1hhv4njp6x8_h0000gn/T//cc224n80.s 			page 210


 11825 0018 00000000 		.4byte	.LFB256
 11826 001c 78010000 		.4byte	.LFE256-.LFB256
 11827 0020 00000000 		.4byte	.LFB257
 11828 0024 08000000 		.4byte	.LFE257-.LFB257
 11829 0028 00000000 		.4byte	.LFB259
 11830 002c 20000000 		.4byte	.LFE259-.LFB259
 11831 0030 00000000 		.4byte	.LFB260
 11832 0034 0C000000 		.4byte	.LFE260-.LFB260
 11833 0038 00000000 		.4byte	.LFB261
 11834 003c 0C000000 		.4byte	.LFE261-.LFB261
 11835 0040 00000000 		.4byte	.LFB262
 11836 0044 0C000000 		.4byte	.LFE262-.LFB262
 11837 0048 00000000 		.4byte	.LFB263
 11838 004c 0C000000 		.4byte	.LFE263-.LFB263
 11839 0050 00000000 		.4byte	.LFB264
 11840 0054 0C000000 		.4byte	.LFE264-.LFB264
 11841 0058 00000000 		.4byte	.LFB265
 11842 005c 18000000 		.4byte	.LFE265-.LFB265
 11843 0060 00000000 		.4byte	.LFB266
 11844 0064 20000000 		.4byte	.LFE266-.LFB266
 11845 0068 00000000 		.4byte	.LFB270
 11846 006c 20000000 		.4byte	.LFE270-.LFB270
 11847 0070 00000000 		.4byte	.LFB276
 11848 0074 24000000 		.4byte	.LFE276-.LFB276
 11849 0078 00000000 		.4byte	.LFB277
 11850 007c 24000000 		.4byte	.LFE277-.LFB277
 11851 0080 00000000 		.4byte	.LFB278
 11852 0084 34000000 		.4byte	.LFE278-.LFB278
 11853 0088 00000000 		.4byte	.LFB279
 11854 008c 24000000 		.4byte	.LFE279-.LFB279
 11855 0090 00000000 		.4byte	.LFB280
 11856 0094 20000000 		.4byte	.LFE280-.LFB280
 11857 0098 00000000 		.4byte	.LFB281
 11858 009c 20000000 		.4byte	.LFE281-.LFB281
 11859 00a0 00000000 		.4byte	.LFB282
 11860 00a4 24000000 		.4byte	.LFE282-.LFB282
 11861 00a8 00000000 		.4byte	.LFB283
 11862 00ac 20000000 		.4byte	.LFE283-.LFB283
 11863 00b0 00000000 		.4byte	.LFB284
 11864 00b4 24000000 		.4byte	.LFE284-.LFB284
 11865 00b8 00000000 		.4byte	.LFB285
 11866 00bc 24000000 		.4byte	.LFE285-.LFB285
 11867 00c0 00000000 		.4byte	.LFB286
 11868 00c4 24000000 		.4byte	.LFE286-.LFB286
 11869 00c8 00000000 		.4byte	.LFB287
 11870 00cc 24000000 		.4byte	.LFE287-.LFB287
 11871 00d0 00000000 		.4byte	.LFB288
 11872 00d4 24000000 		.4byte	.LFE288-.LFB288
 11873 00d8 00000000 		.4byte	.LFB289
 11874 00dc 24000000 		.4byte	.LFE289-.LFB289
 11875 00e0 00000000 		.4byte	.LFB290
 11876 00e4 20000000 		.4byte	.LFE290-.LFB290
 11877 00e8 00000000 		.4byte	.LFB291
 11878 00ec 20000000 		.4byte	.LFE291-.LFB291
 11879 00f0 00000000 		.4byte	.LFB292
 11880 00f4 24000000 		.4byte	.LFE292-.LFB292
 11881 00f8 00000000 		.4byte	.LFB293
ARM GAS  /var/folders/47/g7cdn6zj55s1hhv4njp6x8_h0000gn/T//cc224n80.s 			page 211


 11882 00fc 20000000 		.4byte	.LFE293-.LFB293
 11883 0100 00000000 		.4byte	.LFB294
 11884 0104 20000000 		.4byte	.LFE294-.LFB294
 11885 0108 00000000 		.4byte	.LFB295
 11886 010c 0C000000 		.4byte	.LFE295-.LFB295
 11887 0110 00000000 		.4byte	.LFB296
 11888 0114 24000000 		.4byte	.LFE296-.LFB296
 11889 0118 00000000 		.4byte	.LFB297
 11890 011c 0C000000 		.4byte	.LFE297-.LFB297
 11891 0120 00000000 		.4byte	.LFB298
 11892 0124 48000000 		.4byte	.LFE298-.LFB298
 11893 0128 00000000 		.4byte	.LFB299
 11894 012c 40000000 		.4byte	.LFE299-.LFB299
 11895 0130 00000000 		.4byte	.LFB267
 11896 0134 48000000 		.4byte	.LFE267-.LFB267
 11897 0138 00000000 		.4byte	.LFB274
 11898 013c 0C000000 		.4byte	.LFE274-.LFB274
 11899 0140 00000000 		.4byte	.LFB268
 11900 0144 48000000 		.4byte	.LFE268-.LFB268
 11901 0148 00000000 		.4byte	.LFB269
 11902 014c 48000000 		.4byte	.LFE269-.LFB269
 11903 0150 00000000 		.4byte	.LFB271
 11904 0154 54000000 		.4byte	.LFE271-.LFB271
 11905 0158 00000000 		.4byte	.LFB272
 11906 015c 48000000 		.4byte	.LFE272-.LFB272
 11907 0160 00000000 		.4byte	.LFB275
 11908 0164 0C000000 		.4byte	.LFE275-.LFB275
 11909 0168 00000000 		.4byte	.LFB273
 11910 016c 48000000 		.4byte	.LFE273-.LFB273
 11911 0170 00000000 		.4byte	.LFB300
 11912 0174 44010000 		.4byte	.LFE300-.LFB300
 11913 0178 00000000 		.4byte	.LFB309
 11914 017c C8010000 		.4byte	.LFE309-.LFB309
 11915 0180 00000000 		.4byte	.LFB258
 11916 0184 D0000000 		.4byte	.LFE258-.LFB258
 11917 0188 00000000 		.4byte	.LFB304
 11918 018c 60000000 		.4byte	.LFE304-.LFB304
 11919 0190 00000000 		.4byte	.LFB301
 11920 0194 A4040000 		.4byte	.LFE301-.LFB301
 11921 0198 00000000 		.4byte	.LFB302
 11922 019c 1C000000 		.4byte	.LFE302-.LFB302
 11923 01a0 00000000 		.4byte	0
 11924 01a4 00000000 		.4byte	0
 11925              		.section	.debug_ranges,"",%progbits
 11926              	.Ldebug_ranges0:
 11927 0000 04000000 		.4byte	.LBB65
 11928 0004 06000000 		.4byte	.LBE65
 11929 0008 08000000 		.4byte	.LBB68
 11930 000c 26000000 		.4byte	.LBE68
 11931 0010 00000000 		.4byte	0
 11932 0014 00000000 		.4byte	0
 11933 0018 10000000 		.4byte	.LBB77
 11934 001c 22000000 		.4byte	.LBE77
 11935 0020 2A000000 		.4byte	.LBB82
 11936 0024 2E000000 		.4byte	.LBE82
 11937 0028 34000000 		.4byte	.LBB83
 11938 002c 38000000 		.4byte	.LBE83
ARM GAS  /var/folders/47/g7cdn6zj55s1hhv4njp6x8_h0000gn/T//cc224n80.s 			page 212


 11939 0030 40000000 		.4byte	.LBB84
 11940 0034 48000000 		.4byte	.LBE84
 11941 0038 00000000 		.4byte	0
 11942 003c 00000000 		.4byte	0
 11943 0040 10000000 		.4byte	.LBB87
 11944 0044 22000000 		.4byte	.LBE87
 11945 0048 2A000000 		.4byte	.LBB92
 11946 004c 2E000000 		.4byte	.LBE92
 11947 0050 34000000 		.4byte	.LBB93
 11948 0054 38000000 		.4byte	.LBE93
 11949 0058 40000000 		.4byte	.LBB94
 11950 005c 48000000 		.4byte	.LBE94
 11951 0060 00000000 		.4byte	0
 11952 0064 00000000 		.4byte	0
 11953 0068 00000000 		.4byte	.LBB106
 11954 006c 08000000 		.4byte	.LBE106
 11955 0070 10000000 		.4byte	.LBB109
 11956 0074 14000000 		.4byte	.LBE109
 11957 0078 00000000 		.4byte	0
 11958 007c 00000000 		.4byte	0
 11959 0080 08010000 		.4byte	.LBB110
 11960 0084 3A010000 		.4byte	.LBE110
 11961 0088 A2010000 		.4byte	.LBB111
 11962 008c CA010000 		.4byte	.LBE111
 11963 0090 CC010000 		.4byte	.LBB112
 11964 0094 D0010000 		.4byte	.LBE112
 11965 0098 D2010000 		.4byte	.LBB113
 11966 009c D4010000 		.4byte	.LBE113
 11967 00a0 9C030000 		.4byte	.LBB114
 11968 00a4 BA030000 		.4byte	.LBE114
 11969 00a8 00000000 		.4byte	0
 11970 00ac 00000000 		.4byte	0
 11971 00b0 C0030000 		.4byte	.LBB115
 11972 00b4 C2030000 		.4byte	.LBE115
 11973 00b8 C4030000 		.4byte	.LBB124
 11974 00bc C8030000 		.4byte	.LBE124
 11975 00c0 00000000 		.4byte	0
 11976 00c4 00000000 		.4byte	0
 11977 00c8 00000000 		.4byte	.LFB305
 11978 00cc 30010000 		.4byte	.LFE305
 11979 00d0 00000000 		.4byte	.LFB256
 11980 00d4 78010000 		.4byte	.LFE256
 11981 00d8 00000000 		.4byte	.LFB257
 11982 00dc 08000000 		.4byte	.LFE257
 11983 00e0 00000000 		.4byte	.LFB259
 11984 00e4 20000000 		.4byte	.LFE259
 11985 00e8 00000000 		.4byte	.LFB260
 11986 00ec 0C000000 		.4byte	.LFE260
 11987 00f0 00000000 		.4byte	.LFB261
 11988 00f4 0C000000 		.4byte	.LFE261
 11989 00f8 00000000 		.4byte	.LFB262
 11990 00fc 0C000000 		.4byte	.LFE262
 11991 0100 00000000 		.4byte	.LFB263
 11992 0104 0C000000 		.4byte	.LFE263
 11993 0108 00000000 		.4byte	.LFB264
 11994 010c 0C000000 		.4byte	.LFE264
 11995 0110 00000000 		.4byte	.LFB265
ARM GAS  /var/folders/47/g7cdn6zj55s1hhv4njp6x8_h0000gn/T//cc224n80.s 			page 213


 11996 0114 18000000 		.4byte	.LFE265
 11997 0118 00000000 		.4byte	.LFB266
 11998 011c 20000000 		.4byte	.LFE266
 11999 0120 00000000 		.4byte	.LFB270
 12000 0124 20000000 		.4byte	.LFE270
 12001 0128 00000000 		.4byte	.LFB276
 12002 012c 24000000 		.4byte	.LFE276
 12003 0130 00000000 		.4byte	.LFB277
 12004 0134 24000000 		.4byte	.LFE277
 12005 0138 00000000 		.4byte	.LFB278
 12006 013c 34000000 		.4byte	.LFE278
 12007 0140 00000000 		.4byte	.LFB279
 12008 0144 24000000 		.4byte	.LFE279
 12009 0148 00000000 		.4byte	.LFB280
 12010 014c 20000000 		.4byte	.LFE280
 12011 0150 00000000 		.4byte	.LFB281
 12012 0154 20000000 		.4byte	.LFE281
 12013 0158 00000000 		.4byte	.LFB282
 12014 015c 24000000 		.4byte	.LFE282
 12015 0160 00000000 		.4byte	.LFB283
 12016 0164 20000000 		.4byte	.LFE283
 12017 0168 00000000 		.4byte	.LFB284
 12018 016c 24000000 		.4byte	.LFE284
 12019 0170 00000000 		.4byte	.LFB285
 12020 0174 24000000 		.4byte	.LFE285
 12021 0178 00000000 		.4byte	.LFB286
 12022 017c 24000000 		.4byte	.LFE286
 12023 0180 00000000 		.4byte	.LFB287
 12024 0184 24000000 		.4byte	.LFE287
 12025 0188 00000000 		.4byte	.LFB288
 12026 018c 24000000 		.4byte	.LFE288
 12027 0190 00000000 		.4byte	.LFB289
 12028 0194 24000000 		.4byte	.LFE289
 12029 0198 00000000 		.4byte	.LFB290
 12030 019c 20000000 		.4byte	.LFE290
 12031 01a0 00000000 		.4byte	.LFB291
 12032 01a4 20000000 		.4byte	.LFE291
 12033 01a8 00000000 		.4byte	.LFB292
 12034 01ac 24000000 		.4byte	.LFE292
 12035 01b0 00000000 		.4byte	.LFB293
 12036 01b4 20000000 		.4byte	.LFE293
 12037 01b8 00000000 		.4byte	.LFB294
 12038 01bc 20000000 		.4byte	.LFE294
 12039 01c0 00000000 		.4byte	.LFB295
 12040 01c4 0C000000 		.4byte	.LFE295
 12041 01c8 00000000 		.4byte	.LFB296
 12042 01cc 24000000 		.4byte	.LFE296
 12043 01d0 00000000 		.4byte	.LFB297
 12044 01d4 0C000000 		.4byte	.LFE297
 12045 01d8 00000000 		.4byte	.LFB298
 12046 01dc 48000000 		.4byte	.LFE298
 12047 01e0 00000000 		.4byte	.LFB299
 12048 01e4 40000000 		.4byte	.LFE299
 12049 01e8 00000000 		.4byte	.LFB267
 12050 01ec 48000000 		.4byte	.LFE267
 12051 01f0 00000000 		.4byte	.LFB274
 12052 01f4 0C000000 		.4byte	.LFE274
ARM GAS  /var/folders/47/g7cdn6zj55s1hhv4njp6x8_h0000gn/T//cc224n80.s 			page 214


 12053 01f8 00000000 		.4byte	.LFB268
 12054 01fc 48000000 		.4byte	.LFE268
 12055 0200 00000000 		.4byte	.LFB269
 12056 0204 48000000 		.4byte	.LFE269
 12057 0208 00000000 		.4byte	.LFB271
 12058 020c 54000000 		.4byte	.LFE271
 12059 0210 00000000 		.4byte	.LFB272
 12060 0214 48000000 		.4byte	.LFE272
 12061 0218 00000000 		.4byte	.LFB275
 12062 021c 0C000000 		.4byte	.LFE275
 12063 0220 00000000 		.4byte	.LFB273
 12064 0224 48000000 		.4byte	.LFE273
 12065 0228 00000000 		.4byte	.LFB300
 12066 022c 44010000 		.4byte	.LFE300
 12067 0230 00000000 		.4byte	.LFB309
 12068 0234 C8010000 		.4byte	.LFE309
 12069 0238 00000000 		.4byte	.LFB258
 12070 023c D0000000 		.4byte	.LFE258
 12071 0240 00000000 		.4byte	.LFB304
 12072 0244 60000000 		.4byte	.LFE304
 12073 0248 00000000 		.4byte	.LFB301
 12074 024c A4040000 		.4byte	.LFE301
 12075 0250 00000000 		.4byte	.LFB302
 12076 0254 1C000000 		.4byte	.LFE302
 12077 0258 00000000 		.4byte	0
 12078 025c 00000000 		.4byte	0
 12079              		.section	.debug_line,"",%progbits
 12080              	.Ldebug_line0:
 12081 0000 520B0000 		.section	.debug_str,"MS",%progbits,1
 12081      02009E03 
 12081      00000201 
 12081      FB0E0D00 
 12081      01010101 
 12082              	.LASF105:
 12083 0000 706F7274 		.ascii	"port_intctx\000"
 12083      5F696E74 
 12083      63747800 
 12084              	.LASF172:
 12085 000c 6C5F6D61 		.ascii	"l_max_erpm_fbrake\000"
 12085      785F6572 
 12085      706D5F66 
 12085      6272616B 
 12085      6500
 12086              	.LASF169:
 12087 001e 6C5F6162 		.ascii	"l_abs_current_max\000"
 12087      735F6375 
 12087      7272656E 
 12087      745F6D61 
 12087      7800
 12088              	.LASF367:
 12089 0030 6D5F706F 		.ascii	"m_position_set\000"
 12089      73697469 
 12089      6F6E5F73 
 12089      657400
 12090              	.LASF280:
 12091 003f 5F5F6675 		.ascii	"__func__\000"
 12091      6E635F5F 
ARM GAS  /var/folders/47/g7cdn6zj55s1hhv4njp6x8_h0000gn/T//cc224n80.s 			page 215


 12091      00
 12092              	.LASF419:
 12093 0048 6D637077 		.ascii	"mcpwm_get_tot_current_filtered\000"
 12093      6D5F6765 
 12093      745F746F 
 12093      745F6375 
 12093      7272656E 
 12094              	.LASF31:
 12095 0067 6D73675F 		.ascii	"msg_t\000"
 12095      7400
 12096              	.LASF83:
 12097 006d 63685F73 		.ascii	"ch_system_t\000"
 12097      79737465 
 12097      6D5F7400 
 12098              	.LASF3:
 12099 0079 5F5F7569 		.ascii	"__uint8_t\000"
 12099      6E74385F 
 12099      7400
 12100              	.LASF112:
 12101 0083 77747365 		.ascii	"wtsemp\000"
 12101      6D7000
 12102              	.LASF240:
 12103 008a 5F426F6F 		.ascii	"_Bool\000"
 12103      6C00
 12104              	.LASF299:
 12105 0090 6D635F69 		.ascii	"mc_interface_dccal_done\000"
 12105      6E746572 
 12105      66616365 
 12105      5F646363 
 12105      616C5F64 
 12106              	.LASF348:
 12107 00a8 6162735F 		.ascii	"abs_current_filtered\000"
 12107      63757272 
 12107      656E745F 
 12107      66696C74 
 12107      65726564 
 12108              	.LASF79:
 12109 00bd 76745F73 		.ascii	"vt_systime\000"
 12109      79737469 
 12109      6D6500
 12110              	.LASF121:
 12111 00c8 6D5F6E65 		.ascii	"m_next\000"
 12111      787400
 12112              	.LASF178:
 12113 00cf 6C5F736C 		.ascii	"l_slow_abs_current\000"
 12113      6F775F61 
 12113      62735F63 
 12113      75727265 
 12113      6E7400
 12114              	.LASF168:
 12115 00e2 6C5F696E 		.ascii	"l_in_current_min\000"
 12115      5F637572 
 12115      72656E74 
 12115      5F6D696E 
 12115      00
 12116              	.LASF99:
 12117 00f3 42445452 		.ascii	"BDTR\000"
ARM GAS  /var/folders/47/g7cdn6zj55s1hhv4njp6x8_h0000gn/T//cc224n80.s 			page 216


 12117      00
 12118              	.LASF20:
 12119 00f8 75696E74 		.ascii	"uint16_t\000"
 12119      31365F74 
 12119      00
 12120              	.LASF430:
 12121 0101 6D637077 		.ascii	"mcpwm_foc_get_tachometer_abs_value\000"
 12121      6D5F666F 
 12121      635F6765 
 12121      745F7461 
 12121      63686F6D 
 12122              	.LASF442:
 12123 0124 6D637077 		.ascii	"mcpwm_set_duty_noramp\000"
 12123      6D5F7365 
 12123      745F6475 
 12123      74795F6E 
 12123      6F72616D 
 12124              	.LASF436:
 12125 013a 6D637077 		.ascii	"mcpwm_get_comm_step\000"
 12125      6D5F6765 
 12125      745F636F 
 12125      6D6D5F73 
 12125      74657000 
 12126              	.LASF230:
 12127 014e 63635F73 		.ascii	"cc_startup_boost_duty\000"
 12127      74617274 
 12127      75705F62 
 12127      6F6F7374 
 12127      5F647574 
 12128              	.LASF60:
 12129 0164 63685F74 		.ascii	"ch_threads_queue\000"
 12129      68726561 
 12129      64735F71 
 12129      75657565 
 12129      00
 12130              	.LASF170:
 12131 0175 6C5F6D69 		.ascii	"l_min_erpm\000"
 12131      6E5F6572 
 12131      706D00
 12132              	.LASF40:
 12133 0180 705F6E65 		.ascii	"p_newer\000"
 12133      77657200 
 12134              	.LASF295:
 12135 0188 6D635F69 		.ascii	"mc_interface_unlock\000"
 12135      6E746572 
 12135      66616365 
 12135      5F756E6C 
 12135      6F636B00 
 12136              	.LASF400:
 12137 019c 6D637077 		.ascii	"mcpwm_foc_init\000"
 12137      6D5F666F 
 12137      635F696E 
 12137      697400
 12138              	.LASF203:
 12139 01ab 666F635F 		.ascii	"foc_encoder_offset\000"
 12139      656E636F 
 12139      6465725F 
ARM GAS  /var/folders/47/g7cdn6zj55s1hhv4njp6x8_h0000gn/T//cc224n80.s 			page 217


 12139      6F666673 
 12139      657400
 12140              	.LASF313:
 12141 01be 6D635F69 		.ascii	"mc_interface_get_tot_current_directional\000"
 12141      6E746572 
 12141      66616365 
 12141      5F676574 
 12141      5F746F74 
 12142              	.LASF425:
 12143 01e7 6D637077 		.ascii	"mcpwm_get_tot_current_in\000"
 12143      6D5F6765 
 12143      745F746F 
 12143      745F6375 
 12143      7272656E 
 12144              	.LASF126:
 12145 0200 4D435F53 		.ascii	"MC_STATE_DETECTING\000"
 12145      54415445 
 12145      5F444554 
 12145      45435449 
 12145      4E4700
 12146              	.LASF345:
 12147 0213 77726F6E 		.ascii	"wrong_voltage_iterations\000"
 12147      675F766F 
 12147      6C746167 
 12147      655F6974 
 12147      65726174 
 12148              	.LASF181:
 12149 022c 6C5F7465 		.ascii	"l_temp_fet_end\000"
 12149      6D705F66 
 12149      65745F65 
 12149      6E6400
 12150              	.LASF236:
 12151 023b 6D5F6475 		.ascii	"m_duty_ramp_step_rpm_lim\000"
 12151      74795F72 
 12151      616D705F 
 12151      73746570 
 12151      5F72706D 
 12152              	.LASF257:
 12153 0254 4F545950 		.ascii	"OTYPER\000"
 12153      455200
 12154              	.LASF279:
 12155 025b 63685379 		.ascii	"chSysUnlock\000"
 12155      73556E6C 
 12155      6F636B00 
 12156              	.LASF408:
 12157 0267 6D637077 		.ascii	"mcpwm_foc_get_duty_cycle_set\000"
 12157      6D5F666F 
 12157      635F6765 
 12157      745F6475 
 12157      74795F63 
 12158              	.LASF342:
 12159 0284 74696D65 		.ascii	"timer_thread\000"
 12159      725F7468 
 12159      72656164 
 12159      00
 12160              	.LASF35:
 12161 0291 74687265 		.ascii	"thread_t\000"
ARM GAS  /var/folders/47/g7cdn6zj55s1hhv4njp6x8_h0000gn/T//cc224n80.s 			page 218


 12161      61645F74 
 12161      00
 12162              	.LASF78:
 12163 029a 63685F76 		.ascii	"ch_virtual_timers_list\000"
 12163      69727475 
 12163      616C5F74 
 12163      696D6572 
 12163      735F6C69 
 12164              	.LASF21:
 12165 02b1 696E7433 		.ascii	"int32_t\000"
 12165      325F7400 
 12166              	.LASF34:
 12167 02b9 73797374 		.ascii	"systime_t\000"
 12167      696D655F 
 12167      7400
 12168              	.LASF381:
 12169 02c3 6D5F7361 		.ascii	"m_sample_at_start\000"
 12169      6D706C65 
 12169      5F61745F 
 12169      73746172 
 12169      7400
 12170              	.LASF154:
 12171 02d5 4641554C 		.ascii	"FAULT_CODE_OVER_TEMP_FET\000"
 12171      545F434F 
 12171      44455F4F 
 12171      5645525F 
 12171      54454D50 
 12172              	.LASF349:
 12173 02ee 665F7361 		.ascii	"f_samp\000"
 12173      6D7000
 12174              	.LASF128:
 12175 02f5 4D435F53 		.ascii	"MC_STATE_FULL_BRAKE\000"
 12175      54415445 
 12175      5F46554C 
 12175      4C5F4252 
 12175      414B4500 
 12176              	.LASF132:
 12177 0309 50574D5F 		.ascii	"PWM_MODE_BIPOLAR\000"
 12177      4D4F4445 
 12177      5F424950 
 12177      4F4C4152 
 12177      00
 12178              	.LASF133:
 12179 031a 6D635F70 		.ascii	"mc_pwm_mode\000"
 12179      776D5F6D 
 12179      6F646500 
 12180              	.LASF434:
 12181 0326 6D637077 		.ascii	"mcpwm_foc_get_pid_pos_now\000"
 12181      6D5F666F 
 12181      635F6765 
 12181      745F7069 
 12181      645F706F 
 12182              	.LASF385:
 12183 0340 74696D65 		.ascii	"timer_thread_wa\000"
 12183      725F7468 
 12183      72656164 
 12183      5F776100 
ARM GAS  /var/folders/47/g7cdn6zj55s1hhv4njp6x8_h0000gn/T//cc224n80.s 			page 219


 12184              	.LASF467:
 12185 0350 63684576 		.ascii	"chEvtSignalI\000"
 12185      74536967 
 12185      6E616C49 
 12185      00
 12186              	.LASF86:
 12187 035d 76746C69 		.ascii	"vtlist\000"
 12187      737400
 12188              	.LASF48:
 12189 0364 705F7761 		.ascii	"p_waiting\000"
 12189      6974696E 
 12189      6700
 12190              	.LASF289:
 12191 036e 696E6465 		.ascii	"index\000"
 12191      7800
 12192              	.LASF85:
 12193 0374 726C6973 		.ascii	"rlist\000"
 12193      7400
 12194              	.LASF56:
 12195 037a 74687265 		.ascii	"threads_list_t\000"
 12195      6164735F 
 12195      6C697374 
 12195      5F7400
 12196              	.LASF191:
 12197 0389 736C5F6D 		.ascii	"sl_min_erpm_cycle_int_limit\000"
 12197      696E5F65 
 12197      72706D5F 
 12197      6379636C 
 12197      655F696E 
 12198              	.LASF200:
 12199 03a5 666F635F 		.ascii	"foc_current_ki\000"
 12199      63757272 
 12199      656E745F 
 12199      6B6900
 12200              	.LASF199:
 12201 03b4 666F635F 		.ascii	"foc_current_kp\000"
 12201      63757272 
 12201      656E745F 
 12201      6B7000
 12202              	.LASF374:
 12203 03c3 6D5F7374 		.ascii	"m_status_samples\000"
 12203      61747573 
 12203      5F73616D 
 12203      706C6573 
 12203      00
 12204              	.LASF398:
 12205 03d4 6D656D63 		.ascii	"memcpy\000"
 12205      707900
 12206              	.LASF278:
 12207 03db 63685379 		.ascii	"chSysLock\000"
 12207      734C6F63 
 12207      6B00
 12208              	.LASF338:
 12209 03e5 63757272 		.ascii	"current_samp\000"
 12209      656E745F 
 12209      73616D70 
 12209      00
ARM GAS  /var/folders/47/g7cdn6zj55s1hhv4njp6x8_h0000gn/T//cc224n80.s 			page 220


 12210              	.LASF337:
 12211 03f2 76616C5F 		.ascii	"val_samp\000"
 12211      73616D70 
 12211      00
 12212              	.LASF456:
 12213 03fb 6D637077 		.ascii	"mcpwm_foc_set_configuration\000"
 12213      6D5F666F 
 12213      635F7365 
 12213      745F636F 
 12213      6E666967 
 12214              	.LASF30:
 12215 0417 74707269 		.ascii	"tprio_t\000"
 12215      6F5F7400 
 12216              	.LASF429:
 12217 041f 6D637077 		.ascii	"mcpwm_get_tachometer_value\000"
 12217      6D5F6765 
 12217      745F7461 
 12217      63686F6D 
 12217      65746572 
 12218              	.LASF423:
 12219 043a 6D637077 		.ascii	"mcpwm_get_tot_current_directional_filtered\000"
 12219      6D5F6765 
 12219      745F746F 
 12219      745F6375 
 12219      7272656E 
 12220              	.LASF316:
 12221 0465 6D635F69 		.ascii	"mc_interface_get_tot_current_in_filtered\000"
 12221      6E746572 
 12221      66616365 
 12221      5F676574 
 12221      5F746F74 
 12222              	.LASF287:
 12223 048e 6D617863 		.ascii	"maxc\000"
 12223      00
 12224              	.LASF94:
 12225 0493 43434552 		.ascii	"CCER\000"
 12225      00
 12226              	.LASF142:
 12227 0498 464F435F 		.ascii	"FOC_SENSOR_MODE_ENCODER\000"
 12227      53454E53 
 12227      4F525F4D 
 12227      4F44455F 
 12227      454E434F 
 12228              	.LASF354:
 12229 04b0 6D5F6661 		.ascii	"m_fault_now\000"
 12229      756C745F 
 12229      6E6F7700 
 12230              	.LASF401:
 12231 04bc 6D637077 		.ascii	"mcpwm_init\000"
 12231      6D5F696E 
 12231      697400
 12232              	.LASF123:
 12233 04c7 7466756E 		.ascii	"tfunc_t\000"
 12233      635F7400 
 12234              	.LASF5:
 12235 04cf 5F5F696E 		.ascii	"__int16_t\000"
 12235      7431365F 
ARM GAS  /var/folders/47/g7cdn6zj55s1hhv4njp6x8_h0000gn/T//cc224n80.s 			page 221


 12235      7400
 12236              	.LASF7:
 12237 04d9 5F5F7569 		.ascii	"__uint16_t\000"
 12237      6E743136 
 12237      5F7400
 12238              	.LASF50:
 12239 04e4 705F6D73 		.ascii	"p_msg\000"
 12239      6700
 12240              	.LASF234:
 12241 04ea 6D5F6661 		.ascii	"m_fault_stop_time_ms\000"
 12241      756C745F 
 12241      73746F70 
 12241      5F74696D 
 12241      655F6D73 
 12242              	.LASF332:
 12243 04ff 6D635F69 		.ascii	"mc_interface_set_pid_speed\000"
 12243      6E746572 
 12243      66616365 
 12243      5F736574 
 12243      5F706964 
 12244              	.LASF358:
 12245 051a 6D5F6C6F 		.ascii	"m_lock_override_once\000"
 12245      636B5F6F 
 12245      76657272 
 12245      6964655F 
 12245      6F6E6365 
 12246              	.LASF285:
 12247 052f 74656D70 		.ascii	"temp\000"
 12247      00
 12248              	.LASF346:
 12249 0534 63757272 		.ascii	"current_in\000"
 12249      656E745F 
 12249      696E00
 12250              	.LASF224:
 12251 053f 735F7069 		.ascii	"s_pid_kd\000"
 12251      645F6B64 
 12251      00
 12252              	.LASF406:
 12253 0548 6D637077 		.ascii	"mcpwm_get_state\000"
 12253      6D5F6765 
 12253      745F7374 
 12253      61746500 
 12254              	.LASF365:
 12255 0558 6D5F7761 		.ascii	"m_watt_seconds\000"
 12255      74745F73 
 12255      65636F6E 
 12255      647300
 12256              	.LASF411:
 12257 0567 6D637077 		.ascii	"mcpwm_get_duty_cycle_now\000"
 12257      6D5F6765 
 12257      745F6475 
 12257      74795F63 
 12257      79636C65 
 12258              	.LASF366:
 12259 0580 6D5F7761 		.ascii	"m_watt_seconds_charged\000"
 12259      74745F73 
 12259      65636F6E 
ARM GAS  /var/folders/47/g7cdn6zj55s1hhv4njp6x8_h0000gn/T//cc224n80.s 			page 222


 12259      64735F63 
 12259      68617267 
 12260              	.LASF206:
 12261 0597 666F635F 		.ascii	"foc_motor_l\000"
 12261      6D6F746F 
 12261      725F6C00 
 12262              	.LASF207:
 12263 05a3 666F635F 		.ascii	"foc_motor_r\000"
 12263      6D6F746F 
 12263      725F7200 
 12264              	.LASF103:
 12265 05af 73746B61 		.ascii	"stkalign_t\000"
 12265      6C69676E 
 12265      5F7400
 12266              	.LASF73:
 12267 05ba 76745F70 		.ascii	"vt_prev\000"
 12267      72657600 
 12268              	.LASF399:
 12269 05c2 63685468 		.ascii	"chThdCreateStatic\000"
 12269      64437265 
 12269      61746553 
 12269      74617469 
 12269      6300
 12270              	.LASF4:
 12271 05d4 756E7369 		.ascii	"unsigned char\000"
 12271      676E6564 
 12271      20636861 
 12271      7200
 12272              	.LASF462:
 12273 05e2 6C656470 		.ascii	"ledpwm_update_pwm\000"
 12273      776D5F75 
 12273      70646174 
 12273      655F7077 
 12273      6D00
 12274              	.LASF225:
 12275 05f4 735F7069 		.ascii	"s_pid_min_erpm\000"
 12275      645F6D69 
 12275      6E5F6572 
 12275      706D00
 12276              	.LASF117:
 12277 0603 735F636E 		.ascii	"s_cnt\000"
 12277      7400
 12278              	.LASF61:
 12279 0609 72656164 		.ascii	"ready_list_t\000"
 12279      795F6C69 
 12279      73745F74 
 12279      00
 12280              	.LASF57:
 12281 0616 63685F74 		.ascii	"ch_thread\000"
 12281      68726561 
 12281      6400
 12282              	.LASF0:
 12283 0620 666C6F61 		.ascii	"float\000"
 12283      7400
 12284              	.LASF201:
 12285 0626 666F635F 		.ascii	"foc_f_sw\000"
 12285      665F7377 
ARM GAS  /var/folders/47/g7cdn6zj55s1hhv4njp6x8_h0000gn/T//cc224n80.s 			page 223


 12285      00
 12286              	.LASF420:
 12287 062f 6D637077 		.ascii	"mcpwm_foc_get_tot_current_directional\000"
 12287      6D5F666F 
 12287      635F6765 
 12287      745F746F 
 12287      745F6375 
 12288              	.LASF315:
 12289 0655 6D635F69 		.ascii	"mc_interface_get_tot_current_in\000"
 12289      6E746572 
 12289      66616365 
 12289      5F676574 
 12289      5F746F74 
 12290              	.LASF80:
 12291 0675 73797374 		.ascii	"system_debug_t\000"
 12291      656D5F64 
 12291      65627567 
 12291      5F7400
 12292              	.LASF180:
 12293 0684 6C5F7465 		.ascii	"l_temp_fet_start\000"
 12293      6D705F66 
 12293      65745F73 
 12293      74617274 
 12293      00
 12294              	.LASF91:
 12295 0695 44494552 		.ascii	"DIER\000"
 12295      00
 12296              	.LASF39:
 12297 069a 705F6374 		.ascii	"p_ctx\000"
 12297      7800
 12298              	.LASF76:
 12299 06a0 76745F70 		.ascii	"vt_par\000"
 12299      617200
 12300              	.LASF292:
 12301 06a7 6D635F69 		.ascii	"mc_interface_set_pwm_callback\000"
 12301      6E746572 
 12301      66616365 
 12301      5F736574 
 12301      5F70776D 
 12302              	.LASF68:
 12303 06c5 725F6375 		.ascii	"r_current\000"
 12303      7272656E 
 12303      7400
 12304              	.LASF162:
 12305 06cf 636F6D6D 		.ascii	"comm_mode\000"
 12305      5F6D6F64 
 12305      6500
 12306              	.LASF355:
 12307 06d9 6D5F6967 		.ascii	"m_ignore_iterations\000"
 12307      6E6F7265 
 12307      5F697465 
 12307      72617469 
 12307      6F6E7300 
 12308              	.LASF448:
 12309 06ed 6D637077 		.ascii	"mcpwm_set_current\000"
 12309      6D5F7365 
 12309      745F6375 
ARM GAS  /var/folders/47/g7cdn6zj55s1hhv4njp6x8_h0000gn/T//cc224n80.s 			page 224


 12309      7272656E 
 12309      7400
 12310              	.LASF179:
 12311 06ff 6C5F7270 		.ascii	"l_rpm_lim_neg_torque\000"
 12311      6D5F6C69 
 12311      6D5F6E65 
 12311      675F746F 
 12311      72717565 
 12312              	.LASF153:
 12313 0714 4641554C 		.ascii	"FAULT_CODE_ABS_OVER_CURRENT\000"
 12313      545F434F 
 12313      44455F41 
 12313      42535F4F 
 12313      5645525F 
 12314              	.LASF209:
 12315 0730 666F635F 		.ascii	"foc_observer_gain\000"
 12315      6F627365 
 12315      72766572 
 12315      5F676169 
 12315      6E00
 12316              	.LASF378:
 12317 0742 6D5F7361 		.ascii	"m_sample_int\000"
 12317      6D706C65 
 12317      5F696E74 
 12317      00
 12318              	.LASF465:
 12319 074f 6D637077 		.ascii	"mcpwm_foc_get_abs_motor_current\000"
 12319      6D5F666F 
 12319      635F6765 
 12319      745F6162 
 12319      735F6D6F 
 12320              	.LASF23:
 12321 076f 75696E74 		.ascii	"uint64_t\000"
 12321      36345F74 
 12321      00
 12322              	.LASF300:
 12323 0778 6D635F69 		.ascii	"mc_interface_fault_to_string\000"
 12323      6E746572 
 12323      66616365 
 12323      5F666175 
 12323      6C745F74 
 12324              	.LASF320:
 12325 0795 6D635F69 		.ascii	"mc_interface_read_reset_avg_motor_current\000"
 12325      6E746572 
 12325      66616365 
 12325      5F726561 
 12325      645F7265 
 12326              	.LASF118:
 12327 07bf 63685F6D 		.ascii	"ch_mutex\000"
 12327      75746578 
 12327      00
 12328              	.LASF273:
 12329 07c8 76616C75 		.ascii	"value\000"
 12329      6500
 12330              	.LASF138:
 12331 07ce 53454E53 		.ascii	"SENSOR_MODE_SENSORED\000"
 12331      4F525F4D 
ARM GAS  /var/folders/47/g7cdn6zj55s1hhv4njp6x8_h0000gn/T//cc224n80.s 			page 225


 12331      4F44455F 
 12331      53454E53 
 12331      4F524544 
 12332              	.LASF370:
 12333 07e3 6D5F7068 		.ascii	"m_ph1_samples\000"
 12333      315F7361 
 12333      6D706C65 
 12333      7300
 12334              	.LASF371:
 12335 07f1 6D5F7068 		.ascii	"m_ph2_samples\000"
 12335      325F7361 
 12335      6D706C65 
 12335      7300
 12336              	.LASF466:
 12337 07ff 6D637077 		.ascii	"mcpwm_foc_get_abs_motor_current_filtered\000"
 12337      6D5F666F 
 12337      635F6765 
 12337      745F6162 
 12337      735F6D6F 
 12338              	.LASF249:
 12339 0828 74696D5F 		.ascii	"tim_val_samp\000"
 12339      76616C5F 
 12339      73616D70 
 12339      00
 12340              	.LASF70:
 12341 0835 76697274 		.ascii	"virtual_timer_t\000"
 12341      75616C5F 
 12341      74696D65 
 12341      725F7400 
 12342              	.LASF65:
 12343 0845 725F6374 		.ascii	"r_ctx\000"
 12343      7800
 12344              	.LASF72:
 12345 084b 76745F6E 		.ascii	"vt_next\000"
 12345      65787400 
 12346              	.LASF330:
 12347 0853 6D635F69 		.ascii	"mc_interface_brake_now\000"
 12347      6E746572 
 12347      66616365 
 12347      5F627261 
 12347      6B655F6E 
 12348              	.LASF25:
 12349 086a 7274636E 		.ascii	"rtcnt_t\000"
 12349      745F7400 
 12350              	.LASF139:
 12351 0872 53454E53 		.ascii	"SENSOR_MODE_HYBRID\000"
 12351      4F525F4D 
 12351      4F44455F 
 12351      48594252 
 12351      494400
 12352              	.LASF186:
 12353 0885 6C6F5F63 		.ascii	"lo_current_max\000"
 12353      75727265 
 12353      6E745F6D 
 12353      617800
 12354              	.LASF204:
 12355 0894 666F635F 		.ascii	"foc_encoder_inverted\000"
ARM GAS  /var/folders/47/g7cdn6zj55s1hhv4njp6x8_h0000gn/T//cc224n80.s 			page 226


 12355      656E636F 
 12355      6465725F 
 12355      696E7665 
 12355      72746564 
 12356              	.LASF231:
 12357 08a9 63635F6D 		.ascii	"cc_min_current\000"
 12357      696E5F63 
 12357      75727265 
 12357      6E7400
 12358              	.LASF158:
 12359 08b8 53454E53 		.ascii	"SENSOR_PORT_MODE_ABI\000"
 12359      4F525F50 
 12359      4F52545F 
 12359      4D4F4445 
 12359      5F414249 
 12360              	.LASF471:
 12361 08cd 6D635F69 		.ascii	"mc_interface.c\000"
 12361      6E746572 
 12361      66616365 
 12361      2E6300
 12362              	.LASF255:
 12363 08dc 636C6561 		.ascii	"clear\000"
 12363      7200
 12364              	.LASF339:
 12365 08e2 66646174 		.ascii	"fdata\000"
 12365      6100
 12366              	.LASF372:
 12367 08e8 6D5F7068 		.ascii	"m_ph3_samples\000"
 12367      335F7361 
 12367      6D706C65 
 12367      7300
 12368              	.LASF24:
 12369 08f6 73697A65 		.ascii	"size_t\000"
 12369      5F7400
 12370              	.LASF422:
 12371 08fd 6D637077 		.ascii	"mcpwm_foc_get_tot_current_directional_filtered\000"
 12371      6D5F666F 
 12371      635F6765 
 12371      745F746F 
 12371      745F6375 
 12372              	.LASF159:
 12373 092c 53454E53 		.ascii	"SENSOR_PORT_MODE_AS5047_SPI\000"
 12373      4F525F50 
 12373      4F52545F 
 12373      4D4F4445 
 12373      5F415335 
 12374              	.LASF18:
 12375 0948 75696E74 		.ascii	"uint8_t\000"
 12375      385F7400 
 12376              	.LASF311:
 12377 0950 6D635F69 		.ascii	"mc_interface_get_tot_current\000"
 12377      6E746572 
 12377      66616365 
 12377      5F676574 
 12377      5F746F74 
 12378              	.LASF67:
 12379 096d 725F6F6C 		.ascii	"r_older\000"
ARM GAS  /var/folders/47/g7cdn6zj55s1hhv4njp6x8_h0000gn/T//cc224n80.s 			page 227


 12379      64657200 
 12380              	.LASF37:
 12381 0975 705F7072 		.ascii	"p_prev\000"
 12381      657600
 12382              	.LASF175:
 12383 097c 6C5F6D61 		.ascii	"l_max_vin\000"
 12383      785F7669 
 12383      6E00
 12384              	.LASF109:
 12385 0986 65786974 		.ascii	"exitcode\000"
 12385      636F6465 
 12385      00
 12386              	.LASF426:
 12387 098f 6D637077 		.ascii	"mcpwm_foc_get_tot_current_in_filtered\000"
 12387      6D5F666F 
 12387      635F6765 
 12387      745F746F 
 12387      745F6375 
 12388              	.LASF321:
 12389 09b5 6D635F69 		.ascii	"mc_interface_read_reset_avg_input_current\000"
 12389      6E746572 
 12389      66616365 
 12389      5F726561 
 12389      645F7265 
 12390              	.LASF305:
 12391 09df 6D635F69 		.ascii	"mc_interface_get_rpm\000"
 12391      6E746572 
 12391      66616365 
 12391      5F676574 
 12391      5F72706D 
 12392              	.LASF258:
 12393 09f4 4F535045 		.ascii	"OSPEEDR\000"
 12393      45445200 
 12394              	.LASF176:
 12395 09fc 6C5F6261 		.ascii	"l_battery_cut_start\000"
 12395      74746572 
 12395      795F6375 
 12395      745F7374 
 12395      61727400 
 12396              	.LASF443:
 12397 0a10 6D637077 		.ascii	"mcpwm_foc_set_pid_speed\000"
 12397      6D5F666F 
 12397      635F7365 
 12397      745F7069 
 12397      645F7370 
 12398              	.LASF177:
 12399 0a28 6C5F6261 		.ascii	"l_battery_cut_end\000"
 12399      74746572 
 12399      795F6375 
 12399      745F656E 
 12399      6400
 12400              	.LASF394:
 12401 0a3a 6D637077 		.ascii	"mcpwm_vzero\000"
 12401      6D5F767A 
 12401      65726F00 
 12402              	.LASF174:
 12403 0a46 6C5F6D69 		.ascii	"l_min_vin\000"
ARM GAS  /var/folders/47/g7cdn6zj55s1hhv4njp6x8_h0000gn/T//cc224n80.s 			page 228


 12403      6E5F7669 
 12403      6E00
 12404              	.LASF415:
 12405 0a50 6D637077 		.ascii	"mcpwm_get_rpm\000"
 12405      6D5F6765 
 12405      745F7270 
 12405      6D00
 12406              	.LASF418:
 12407 0a5e 6D637077 		.ascii	"mcpwm_foc_get_tot_current_filtered\000"
 12407      6D5F666F 
 12407      635F6765 
 12407      745F746F 
 12407      745F6375 
 12408              	.LASF220:
 12409 0a81 666F635F 		.ascii	"foc_hall_table\000"
 12409      68616C6C 
 12409      5F746162 
 12409      6C6500
 12410              	.LASF304:
 12411 0a90 6D635F69 		.ascii	"mc_interface_get_duty_cycle_now\000"
 12411      6E746572 
 12411      66616365 
 12411      5F676574 
 12411      5F647574 
 12412              	.LASF147:
 12413 0ab0 4D4F544F 		.ascii	"MOTOR_TYPE_FOC\000"
 12413      525F5459 
 12413      50455F46 
 12413      4F4300
 12414              	.LASF190:
 12415 0abf 736C5F6D 		.ascii	"sl_min_erpm\000"
 12415      696E5F65 
 12415      72706D00 
 12416              	.LASF95:
 12417 0acb 43435231 		.ascii	"CCR1\000"
 12417      00
 12418              	.LASF96:
 12419 0ad0 43435232 		.ascii	"CCR2\000"
 12419      00
 12420              	.LASF97:
 12421 0ad5 43435233 		.ascii	"CCR3\000"
 12421      00
 12422              	.LASF98:
 12423 0ada 43435234 		.ascii	"CCR4\000"
 12423      00
 12424              	.LASF460:
 12425 0adf 6D637077 		.ascii	"mcpwm_deinit\000"
 12425      6D5F6465 
 12425      696E6974 
 12425      00
 12426              	.LASF239:
 12427 0aec 6D5F7365 		.ascii	"m_sensor_port_mode\000"
 12427      6E736F72 
 12427      5F706F72 
 12427      745F6D6F 
 12427      646500
 12428              	.LASF150:
ARM GAS  /var/folders/47/g7cdn6zj55s1hhv4njp6x8_h0000gn/T//cc224n80.s 			page 229


 12429 0aff 4641554C 		.ascii	"FAULT_CODE_OVER_VOLTAGE\000"
 12429      545F434F 
 12429      44455F4F 
 12429      5645525F 
 12429      564F4C54 
 12430              	.LASF237:
 12431 0b17 6D5F6375 		.ascii	"m_current_backoff_gain\000"
 12431      7272656E 
 12431      745F6261 
 12431      636B6F66 
 12431      665F6761 
 12432              	.LASF461:
 12433 0b2e 63685468 		.ascii	"chThdSleep\000"
 12433      64536C65 
 12433      657000
 12434              	.LASF264:
 12435 0b39 73746D33 		.ascii	"stm32_gpio_t\000"
 12435      325F6770 
 12435      696F5F74 
 12435      00
 12436              	.LASF108:
 12437 0b46 7264796D 		.ascii	"rdymsg\000"
 12437      736700
 12438              	.LASF377:
 12439 0b4d 6D5F7361 		.ascii	"m_sample_len\000"
 12439      6D706C65 
 12439      5F6C656E 
 12439      00
 12440              	.LASF185:
 12441 0b5a 6C5F6D61 		.ascii	"l_max_duty\000"
 12441      785F6475 
 12441      747900
 12442              	.LASF38:
 12443 0b65 705F7072 		.ascii	"p_prio\000"
 12443      696F00
 12444              	.LASF302:
 12445 0b6c 6D635F69 		.ascii	"mc_interface_set_position_pid_constants\000"
 12445      6E746572 
 12445      66616365 
 12445      5F736574 
 12445      5F706F73 
 12446              	.LASF298:
 12447 0b94 6D635F69 		.ascii	"mc_interface_get_fault\000"
 12447      6E746572 
 12447      66616365 
 12447      5F676574 
 12447      5F666175 
 12448              	.LASF14:
 12449 0bab 5F5F7569 		.ascii	"__uint64_t\000"
 12449      6E743634 
 12449      5F7400
 12450              	.LASF450:
 12451 0bb6 6D637077 		.ascii	"mcpwm_set_brake_current\000"
 12451      6D5F7365 
 12451      745F6272 
 12451      616B655F 
 12451      63757272 
ARM GAS  /var/folders/47/g7cdn6zj55s1hhv4njp6x8_h0000gn/T//cc224n80.s 			page 230


 12452              	.LASF221:
 12453 0bce 666F635F 		.ascii	"foc_sl_erpm\000"
 12453      736C5F65 
 12453      72706D00 
 12454              	.LASF294:
 12455 0bda 6D635F69 		.ascii	"mc_interface_lock\000"
 12455      6E746572 
 12455      66616365 
 12455      5F6C6F63 
 12455      6B00
 12456              	.LASF413:
 12457 0bec 6D637077 		.ascii	"mcpwm_get_switching_frequency_now\000"
 12457      6D5F6765 
 12457      745F7377 
 12457      69746368 
 12457      696E675F 
 12458              	.LASF446:
 12459 0c0e 6D637077 		.ascii	"mcpwm_set_pid_pos\000"
 12459      6D5F7365 
 12459      745F7069 
 12459      645F706F 
 12459      7300
 12460              	.LASF383:
 12461 0c20 6D5F6C61 		.ascii	"m_last_adc_duration_sample\000"
 12461      73745F61 
 12461      64635F64 
 12461      75726174 
 12461      696F6E5F 
 12462              	.LASF182:
 12463 0c3b 6C5F7465 		.ascii	"l_temp_motor_start\000"
 12463      6D705F6D 
 12463      6F746F72 
 12463      5F737461 
 12463      727400
 12464              	.LASF194:
 12465 0c4e 736C5F70 		.ascii	"sl_phase_advance_at_br\000"
 12465      68617365 
 12465      5F616476 
 12465      616E6365 
 12465      5F61745F 
 12466              	.LASF36:
 12467 0c65 705F6E65 		.ascii	"p_next\000"
 12467      787400
 12468              	.LASF407:
 12469 0c6c 6D637077 		.ascii	"mcpwm_foc_set_position_pid_constants\000"
 12469      6D5F666F 
 12469      635F7365 
 12469      745F706F 
 12469      73697469 
 12470              	.LASF232:
 12471 0c91 63635F67 		.ascii	"cc_gain\000"
 12471      61696E00 
 12472              	.LASF390:
 12473 0c99 4144435F 		.ascii	"ADC_curr_norm_value\000"
 12473      63757272 
 12473      5F6E6F72 
 12473      6D5F7661 
ARM GAS  /var/folders/47/g7cdn6zj55s1hhv4njp6x8_h0000gn/T//cc224n80.s 			page 231


 12473      6C756500 
 12474              	.LASF28:
 12475 0cad 74726566 		.ascii	"trefs_t\000"
 12475      735F7400 
 12476              	.LASF54:
 12477 0cb5 705F6D70 		.ascii	"p_mpool\000"
 12477      6F6F6C00 
 12478              	.LASF161:
 12479 0cbd 70776D5F 		.ascii	"pwm_mode\000"
 12479      6D6F6465 
 12479      00
 12480              	.LASF275:
 12481 0cc6 64757479 		.ascii	"dutyCycle\000"
 12481      4379636C 
 12481      6500
 12482              	.LASF405:
 12483 0cd0 6D637077 		.ascii	"mcpwm_foc_get_state\000"
 12483      6D5F666F 
 12483      635F6765 
 12483      745F7374 
 12483      61746500 
 12484              	.LASF163:
 12485 0ce4 6D6F746F 		.ascii	"motor_type\000"
 12485      725F7479 
 12485      706500
 12486              	.LASF187:
 12487 0cef 6C6F5F63 		.ascii	"lo_current_min\000"
 12487      75727265 
 12487      6E745F6D 
 12487      696E00
 12488              	.LASF192:
 12489 0cfe 736C5F6D 		.ascii	"sl_max_fullbreak_current_dir_change\000"
 12489      61785F66 
 12489      756C6C62 
 12489      7265616B 
 12489      5F637572 
 12490              	.LASF457:
 12491 0d22 6D637077 		.ascii	"mcpwm_set_configuration\000"
 12491      6D5F7365 
 12491      745F636F 
 12491      6E666967 
 12491      75726174 
 12492              	.LASF26:
 12493 0d3a 746D6F64 		.ascii	"tmode_t\000"
 12493      655F7400 
 12494              	.LASF396:
 12495 0d42 6D635F69 		.ascii	"mc_interface_get_sampling_frequency_now\000"
 12495      6E746572 
 12495      66616365 
 12495      5F676574 
 12495      5F73616D 
 12496              	.LASF217:
 12497 0d6a 666F635F 		.ascii	"foc_sl_d_current_duty\000"
 12497      736C5F64 
 12497      5F637572 
 12497      72656E74 
 12497      5F647574 
ARM GAS  /var/folders/47/g7cdn6zj55s1hhv4njp6x8_h0000gn/T//cc224n80.s 			page 232


 12498              	.LASF260:
 12499 0d80 42535252 		.ascii	"BSRR\000"
 12499      00
 12500              	.LASF101:
 12501 0d85 54494D5F 		.ascii	"TIM_TypeDef\000"
 12501      54797065 
 12501      44656600 
 12502              	.LASF197:
 12503 0d91 68616C6C 		.ascii	"hall_table\000"
 12503      5F746162 
 12503      6C6500
 12504              	.LASF323:
 12505 0d9c 6D635F69 		.ascii	"mc_interface_get_pid_pos_now\000"
 12505      6E746572 
 12505      66616365 
 12505      5F676574 
 12505      5F706964 
 12506              	.LASF472:
 12507 0db9 2F557365 		.ascii	"/Users/nathan/Documents/VESC-bldc\000"
 12507      72732F6E 
 12507      61746861 
 12507      6E2F446F 
 12507      63756D65 
 12508              	.LASF362:
 12509 0ddb 6D5F696E 		.ascii	"m_input_current_iterations\000"
 12509      7075745F 
 12509      63757272 
 12509      656E745F 
 12509      69746572 
 12510              	.LASF324:
 12511 0df6 6D635F69 		.ascii	"mc_interface_get_last_sample_adc_isr_duration\000"
 12511      6E746572 
 12511      66616365 
 12511      5F676574 
 12511      5F6C6173 
 12512              	.LASF146:
 12513 0e24 4D4F544F 		.ascii	"MOTOR_TYPE_DC\000"
 12513      525F5459 
 12513      50455F44 
 12513      4300
 12514              	.LASF453:
 12515 0e32 6D637077 		.ascii	"mcpwm_foc_stop_pwm\000"
 12515      6D5F666F 
 12515      635F7374 
 12515      6F705F70 
 12515      776D00
 12516              	.LASF127:
 12517 0e45 4D435F53 		.ascii	"MC_STATE_RUNNING\000"
 12517      54415445 
 12517      5F52554E 
 12517      4E494E47 
 12517      00
 12518              	.LASF319:
 12519 0e56 6D635F69 		.ascii	"mc_interface_get_last_inj_adc_isr_duration\000"
 12519      6E746572 
 12519      66616365 
 12519      5F676574 
ARM GAS  /var/folders/47/g7cdn6zj55s1hhv4njp6x8_h0000gn/T//cc224n80.s 			page 233


 12519      5F6C6173 
 12520              	.LASF208:
 12521 0e81 666F635F 		.ascii	"foc_motor_flux_linkage\000"
 12521      6D6F746F 
 12521      725F666C 
 12521      75785F6C 
 12521      696E6B61 
 12522              	.LASF270:
 12523 0e98 706F7274 		.ascii	"port_unlock_from_isr\000"
 12523      5F756E6C 
 12523      6F636B5F 
 12523      66726F6D 
 12523      5F697372 
 12524              	.LASF193:
 12525 0ead 736C5F63 		.ascii	"sl_cycle_int_limit\000"
 12525      79636C65 
 12525      5F696E74 
 12525      5F6C696D 
 12525      697400
 12526              	.LASF17:
 12527 0ec0 696E7438 		.ascii	"int8_t\000"
 12527      5F7400
 12528              	.LASF82:
 12529 0ec7 70616E69 		.ascii	"panic_msg\000"
 12529      635F6D73 
 12529      6700
 12530              	.LASF364:
 12531 0ed1 6D5F616D 		.ascii	"m_amp_seconds_charged\000"
 12531      705F7365 
 12531      636F6E64 
 12531      735F6368 
 12531      61726765 
 12532              	.LASF66:
 12533 0ee7 725F6E65 		.ascii	"r_newer\000"
 12533      77657200 
 12534              	.LASF269:
 12535 0eef 706F7274 		.ascii	"port_lock_from_isr\000"
 12535      5F6C6F63 
 12535      6B5F6672 
 12535      6F6D5F69 
 12535      737200
 12536              	.LASF384:
 12537 0f02 70776E5F 		.ascii	"pwn_done_func\000"
 12537      646F6E65 
 12537      5F66756E 
 12537      6300
 12538              	.LASF29:
 12539 0f10 74736C69 		.ascii	"tslices_t\000"
 12539      6365735F 
 12539      7400
 12540              	.LASF363:
 12541 0f1a 6D5F616D 		.ascii	"m_amp_seconds\000"
 12541      705F7365 
 12541      636F6E64 
 12541      7300
 12542              	.LASF307:
 12543 0f28 72657365 		.ascii	"reset\000"
ARM GAS  /var/folders/47/g7cdn6zj55s1hhv4njp6x8_h0000gn/T//cc224n80.s 			page 234


 12543      7400
 12544              	.LASF248:
 12545 0f2e 6379636C 		.ascii	"cycles_running\000"
 12545      65735F72 
 12545      756E6E69 
 12545      6E6700
 12546              	.LASF441:
 12547 0f3d 6D637077 		.ascii	"mcpwm_foc_set_duty_noramp\000"
 12547      6D5F666F 
 12547      635F7365 
 12547      745F6475 
 12547      74795F6E 
 12548              	.LASF74:
 12549 0f57 76745F64 		.ascii	"vt_delta\000"
 12549      656C7461 
 12549      00
 12550              	.LASF89:
 12551 0f60 73697A65 		.ascii	"sizetype\000"
 12551      74797065 
 12551      00
 12552              	.LASF314:
 12553 0f69 6D635F69 		.ascii	"mc_interface_get_tot_current_directional_filtered\000"
 12553      6E746572 
 12553      66616365 
 12553      5F676574 
 12553      5F746F74 
 12554              	.LASF19:
 12555 0f9b 696E7431 		.ascii	"int16_t\000"
 12555      365F7400 
 12556              	.LASF8:
 12557 0fa3 73686F72 		.ascii	"short unsigned int\000"
 12557      7420756E 
 12557      7369676E 
 12557      65642069 
 12557      6E7400
 12558              	.LASF286:
 12559 0fb6 765F696E 		.ascii	"v_in\000"
 12559      00
 12560              	.LASF1:
 12561 0fbb 7369676E 		.ascii	"signed char\000"
 12561      65642063 
 12561      68617200 
 12562              	.LASF417:
 12563 0fc7 6D637077 		.ascii	"mcpwm_get_tot_current\000"
 12563      6D5F6765 
 12563      745F746F 
 12563      745F6375 
 12563      7272656E 
 12564              	.LASF46:
 12565 0fdd 705F7072 		.ascii	"p_preempt\000"
 12565      65656D70 
 12565      7400
 12566              	.LASF171:
 12567 0fe7 6C5F6D61 		.ascii	"l_max_erpm\000"
 12567      785F6572 
 12567      706D00
 12568              	.LASF47:
ARM GAS  /var/folders/47/g7cdn6zj55s1hhv4njp6x8_h0000gn/T//cc224n80.s 			page 235


 12569 0ff2 705F7469 		.ascii	"p_time\000"
 12569      6D6500
 12570              	.LASF409:
 12571 0ff9 6D637077 		.ascii	"mcpwm_get_duty_cycle_set\000"
 12571      6D5F6765 
 12571      745F6475 
 12571      74795F63 
 12571      79636C65 
 12572              	.LASF243:
 12573 1012 63757272 		.ascii	"current\000"
 12573      656E7400 
 12574              	.LASF447:
 12575 101a 6D637077 		.ascii	"mcpwm_foc_set_current\000"
 12575      6D5F666F 
 12575      635F7365 
 12575      745F6375 
 12575      7272656E 
 12576              	.LASF353:
 12577 1030 6D5F636F 		.ascii	"m_conf\000"
 12577      6E6600
 12578              	.LASF432:
 12579 1037 6D637077 		.ascii	"mcpwm_foc_get_last_inj_adc_isr_duration\000"
 12579      6D5F666F 
 12579      635F6765 
 12579      745F6C61 
 12579      73745F69 
 12580              	.LASF356:
 12581 105f 6D5F6379 		.ascii	"m_cycles_running\000"
 12581      636C6573 
 12581      5F72756E 
 12581      6E696E67 
 12581      00
 12582              	.LASF155:
 12583 1070 4641554C 		.ascii	"FAULT_CODE_OVER_TEMP_MOTOR\000"
 12583      545F434F 
 12583      44455F4F 
 12583      5645525F 
 12583      54454D50 
 12584              	.LASF283:
 12585 108b 75706461 		.ascii	"update_override_limits\000"
 12585      74655F6F 
 12585      76657272 
 12585      6964655F 
 12585      6C696D69 
 12586              	.LASF49:
 12587 10a2 705F6D73 		.ascii	"p_msgqueue\000"
 12587      67717565 
 12587      756500
 12588              	.LASF213:
 12589 10ad 666F635F 		.ascii	"foc_duty_dowmramp_ki\000"
 12589      64757479 
 12589      5F646F77 
 12589      6D72616D 
 12589      705F6B69 
 12590              	.LASF120:
 12591 10c2 6D5F6F77 		.ascii	"m_owner\000"
 12591      6E657200 
ARM GAS  /var/folders/47/g7cdn6zj55s1hhv4njp6x8_h0000gn/T//cc224n80.s 			page 236


 12592              	.LASF212:
 12593 10ca 666F635F 		.ascii	"foc_duty_dowmramp_kp\000"
 12593      64757479 
 12593      5F646F77 
 12593      6D72616D 
 12593      705F6B70 
 12594              	.LASF328:
 12595 10df 6D635F69 		.ascii	"mc_interface_try_input\000"
 12595      6E746572 
 12595      66616365 
 12595      5F747279 
 12595      5F696E70 
 12596              	.LASF100:
 12597 10f6 444D4152 		.ascii	"DMAR\000"
 12597      00
 12598              	.LASF326:
 12599 10fb 61745F73 		.ascii	"at_start\000"
 12599      74617274 
 12599      00
 12600              	.LASF84:
 12601 1104 63685F73 		.ascii	"ch_system\000"
 12601      79737465 
 12601      6D00
 12602              	.LASF165:
 12603 110e 6C5F6375 		.ascii	"l_current_max\000"
 12603      7272656E 
 12603      745F6D61 
 12603      7800
 12604              	.LASF115:
 12605 111c 63685F73 		.ascii	"ch_semaphore\000"
 12605      656D6170 
 12605      686F7265 
 12605      00
 12606              	.LASF268:
 12607 1129 706F7274 		.ascii	"port_unlock\000"
 12607      5F756E6C 
 12607      6F636B00 
 12608              	.LASF59:
 12609 1135 74687265 		.ascii	"threads_queue_t\000"
 12609      6164735F 
 12609      71756575 
 12609      655F7400 
 12610              	.LASF157:
 12611 1145 53454E53 		.ascii	"SENSOR_PORT_MODE_HALL\000"
 12611      4F525F50 
 12611      4F52545F 
 12611      4D4F4445 
 12611      5F48414C 
 12612              	.LASF389:
 12613 115b 4144435F 		.ascii	"ADC_Value\000"
 12613      56616C75 
 12613      6500
 12614              	.LASF141:
 12615 1165 464F435F 		.ascii	"FOC_SENSOR_MODE_SENSORLESS\000"
 12615      53454E53 
 12615      4F525F4D 
 12615      4F44455F 
ARM GAS  /var/folders/47/g7cdn6zj55s1hhv4njp6x8_h0000gn/T//cc224n80.s 			page 237


 12615      53454E53 
 12616              	.LASF45:
 12617 1180 705F7265 		.ascii	"p_refs\000"
 12617      667300
 12618              	.LASF439:
 12619 1187 6D637077 		.ascii	"mcpwm_foc_set_duty\000"
 12619      6D5F666F 
 12619      635F7365 
 12619      745F6475 
 12619      747900
 12620              	.LASF277:
 12621 119a 6D635F69 		.ascii	"mc_interface_set_current\000"
 12621      6E746572 
 12621      66616365 
 12621      5F736574 
 12621      5F637572 
 12622              	.LASF140:
 12623 11b3 6D635F73 		.ascii	"mc_sensor_mode\000"
 12623      656E736F 
 12623      725F6D6F 
 12623      646500
 12624              	.LASF10:
 12625 11c2 6C6F6E67 		.ascii	"long int\000"
 12625      20696E74 
 12625      00
 12626              	.LASF87:
 12627 11cb 6D61696E 		.ascii	"mainthread\000"
 12627      74687265 
 12627      616400
 12628              	.LASF119:
 12629 11d6 6D5F7175 		.ascii	"m_queue\000"
 12629      65756500 
 12630              	.LASF134:
 12631 11de 434F4D4D 		.ascii	"COMM_MODE_INTEGRATE\000"
 12631      5F4D4F44 
 12631      455F494E 
 12631      54454752 
 12631      41544500 
 12632              	.LASF391:
 12633 11f2 6D637077 		.ascii	"mcpwm_detect_currents\000"
 12633      6D5F6465 
 12633      74656374 
 12633      5F637572 
 12633      72656E74 
 12634              	.LASF386:
 12635 1208 73616D70 		.ascii	"sample_send_thread_wa\000"
 12635      6C655F73 
 12635      656E645F 
 12635      74687265 
 12635      61645F77 
 12636              	.LASF284:
 12637 121e 636F6E66 		.ascii	"conf\000"
 12637      00
 12638              	.LASF111:
 12639 1223 77747472 		.ascii	"wttrp\000"
 12639      7000
 12640              	.LASF104:
ARM GAS  /var/folders/47/g7cdn6zj55s1hhv4njp6x8_h0000gn/T//cc224n80.s 			page 238


 12641 1229 636F6E74 		.ascii	"context\000"
 12641      65787400 
 12642              	.LASF325:
 12643 1231 6D635F69 		.ascii	"mc_interface_sample_print_data\000"
 12643      6E746572 
 12643      66616365 
 12643      5F73616D 
 12643      706C655F 
 12644              	.LASF444:
 12645 1250 6D637077 		.ascii	"mcpwm_set_pid_speed\000"
 12645      6D5F7365 
 12645      745F7069 
 12645      645F7370 
 12645      65656400 
 12646              	.LASF392:
 12647 1264 6D637077 		.ascii	"mcpwm_detect_voltages\000"
 12647      6D5F6465 
 12647      74656374 
 12647      5F766F6C 
 12647      74616765 
 12648              	.LASF312:
 12649 127a 6D635F69 		.ascii	"mc_interface_get_tot_current_filtered\000"
 12649      6E746572 
 12649      66616365 
 12649      5F676574 
 12649      5F746F74 
 12650              	.LASF261:
 12651 12a0 4C434B52 		.ascii	"LCKR\000"
 12651      00
 12652              	.LASF205:
 12653 12a5 666F635F 		.ascii	"foc_encoder_ratio\000"
 12653      656E636F 
 12653      6465725F 
 12653      72617469 
 12653      6F00
 12654              	.LASF22:
 12655 12b7 75696E74 		.ascii	"uint32_t\000"
 12655      33325F74 
 12655      00
 12656              	.LASF343:
 12657 12c0 6D635F69 		.ascii	"mc_interface_mc_timer_isr\000"
 12657      6E746572 
 12657      66616365 
 12657      5F6D635F 
 12657      74696D65 
 12658              	.LASF424:
 12659 12da 6D637077 		.ascii	"mcpwm_foc_get_tot_current_in\000"
 12659      6D5F666F 
 12659      635F6765 
 12659      745F746F 
 12659      745F6375 
 12660              	.LASF267:
 12661 12f7 706F7274 		.ascii	"port_lock\000"
 12661      5F6C6F63 
 12661      6B00
 12662              	.LASF266:
 12663 1301 6C6F6E67 		.ascii	"long double\000"
ARM GAS  /var/folders/47/g7cdn6zj55s1hhv4njp6x8_h0000gn/T//cc224n80.s 			page 239


 12663      20646F75 
 12663      626C6500 
 12664              	.LASF102:
 12665 130d 72656761 		.ascii	"regarm_t\000"
 12665      726D5F74 
 12665      00
 12666              	.LASF32:
 12667 1316 6576656E 		.ascii	"eventmask_t\000"
 12667      746D6173 
 12667      6B5F7400 
 12668              	.LASF421:
 12669 1322 6D637077 		.ascii	"mcpwm_get_tot_current_directional\000"
 12669      6D5F6765 
 12669      745F746F 
 12669      745F6375 
 12669      7272656E 
 12670              	.LASF12:
 12671 1344 6C6F6E67 		.ascii	"long unsigned int\000"
 12671      20756E73 
 12671      69676E65 
 12671      6420696E 
 12671      7400
 12672              	.LASF233:
 12673 1356 63635F72 		.ascii	"cc_ramp_step_max\000"
 12673      616D705F 
 12673      73746570 
 12673      5F6D6178 
 12673      00
 12674              	.LASF309:
 12675 1367 6D635F69 		.ascii	"mc_interface_get_watt_hours\000"
 12675      6E746572 
 12675      66616365 
 12675      5F676574 
 12675      5F776174 
 12676              	.LASF228:
 12677 1383 705F7069 		.ascii	"p_pid_kd\000"
 12677      645F6B64 
 12677      00
 12678              	.LASF227:
 12679 138c 705F7069 		.ascii	"p_pid_ki\000"
 12679      645F6B69 
 12679      00
 12680              	.LASF226:
 12681 1395 705F7069 		.ascii	"p_pid_kp\000"
 12681      645F6B70 
 12681      00
 12682              	.LASF317:
 12683 139e 6D635F69 		.ascii	"mc_interface_get_tachometer_value\000"
 12683      6E746572 
 12683      66616365 
 12683      5F676574 
 12683      5F746163 
 12684              	.LASF252:
 12685 13c0 636F6D6D 		.ascii	"comm_step\000"
 12685      5F737465 
 12685      7000
 12686              	.LASF131:
ARM GAS  /var/folders/47/g7cdn6zj55s1hhv4njp6x8_h0000gn/T//cc224n80.s 			page 240


 12687 13ca 50574D5F 		.ascii	"PWM_MODE_SYNCHRONOUS\000"
 12687      4D4F4445 
 12687      5F53594E 
 12687      4348524F 
 12687      4E4F5553 
 12688              	.LASF403:
 12689 13df 6D637077 		.ascii	"mcpwm_foc_is_dccal_done\000"
 12689      6D5F666F 
 12689      635F6973 
 12689      5F646363 
 12689      616C5F64 
 12690              	.LASF122:
 12691 13f7 63686172 		.ascii	"char\000"
 12691      00
 12692              	.LASF63:
 12693 13fc 725F7175 		.ascii	"r_queue\000"
 12693      65756500 
 12694              	.LASF431:
 12695 1404 6D637077 		.ascii	"mcpwm_get_tachometer_abs_value\000"
 12695      6D5F6765 
 12695      745F7461 
 12695      63686F6D 
 12695      65746572 
 12696              	.LASF196:
 12697 1423 736C5F62 		.ascii	"sl_bemf_coupling_k\000"
 12697      656D665F 
 12697      636F7570 
 12697      6C696E67 
 12697      5F6B00
 12698              	.LASF282:
 12699 1436 63685379 		.ascii	"chSysUnlockFromISR\000"
 12699      73556E6C 
 12699      6F636B46 
 12699      726F6D49 
 12699      535200
 12700              	.LASF350:
 12701 1449 63757272 		.ascii	"curr_diff_sum\000"
 12701      5F646966 
 12701      665F7375 
 12701      6D00
 12702              	.LASF463:
 12703 1457 6D637077 		.ascii	"mcpwm_read_hall_phase\000"
 12703      6D5F7265 
 12703      61645F68 
 12703      616C6C5F 
 12703      70686173 
 12704              	.LASF452:
 12705 146d 7465726D 		.ascii	"terminal_add_fault_data\000"
 12705      696E616C 
 12705      5F616464 
 12705      5F666175 
 12705      6C745F64 
 12706              	.LASF352:
 12707 1485 6D635F69 		.ascii	"mc_interface_adc_inj_int_handler\000"
 12707      6E746572 
 12707      66616365 
 12707      5F616463 
ARM GAS  /var/folders/47/g7cdn6zj55s1hhv4njp6x8_h0000gn/T//cc224n80.s 			page 241


 12707      5F696E6A 
 12708              	.LASF359:
 12709 14a6 6D5F6D6F 		.ascii	"m_motor_current_sum\000"
 12709      746F725F 
 12709      63757272 
 12709      656E745F 
 12709      73756D00 
 12710              	.LASF129:
 12711 14ba 6D635F73 		.ascii	"mc_state\000"
 12711      74617465 
 12711      00
 12712              	.LASF473:
 12713 14c3 63685468 		.ascii	"chThdGetSelfX\000"
 12713      64476574 
 12713      53656C66 
 12713      5800
 12714              	.LASF458:
 12715 14d1 6D637077 		.ascii	"mcpwm_foc_deinit\000"
 12715      6D5F666F 
 12715      635F6465 
 12715      696E6974 
 12715      00
 12716              	.LASF242:
 12717 14e2 6661756C 		.ascii	"fault\000"
 12717      7400
 12718              	.LASF290:
 12719 14e8 636F6E66 		.ascii	"configuration\000"
 12719      69677572 
 12719      6174696F 
 12719      6E00
 12720              	.LASF361:
 12721 14f6 6D5F6D6F 		.ascii	"m_motor_current_iterations\000"
 12721      746F725F 
 12721      63757272 
 12721      656E745F 
 12721      69746572 
 12722              	.LASF308:
 12723 1511 6D635F69 		.ascii	"mc_interface_get_amp_hours_charged\000"
 12723      6E746572 
 12723      66616365 
 12723      5F676574 
 12723      5F616D70 
 12724              	.LASF445:
 12725 1534 6D637077 		.ascii	"mcpwm_foc_set_pid_pos\000"
 12725      6D5F666F 
 12725      635F7365 
 12725      745F7069 
 12725      645F706F 
 12726              	.LASF428:
 12727 154a 6D637077 		.ascii	"mcpwm_foc_get_tachometer_value\000"
 12727      6D5F666F 
 12727      635F6765 
 12727      745F7461 
 12727      63686F6D 
 12728              	.LASF166:
 12729 1569 6C5F6375 		.ascii	"l_current_min\000"
 12729      7272656E 
ARM GAS  /var/folders/47/g7cdn6zj55s1hhv4njp6x8_h0000gn/T//cc224n80.s 			page 242


 12729      745F6D69 
 12729      6E00
 12730              	.LASF303:
 12731 1577 6D635F69 		.ascii	"mc_interface_get_duty_cycle_set\000"
 12731      6E746572 
 12731      66616365 
 12731      5F676574 
 12731      5F647574 
 12732              	.LASF288:
 12733 1597 62756666 		.ascii	"buffer\000"
 12733      657200
 12734              	.LASF247:
 12735 159e 74616368 		.ascii	"tacho\000"
 12735      6F00
 12736              	.LASF151:
 12737 15a4 4641554C 		.ascii	"FAULT_CODE_UNDER_VOLTAGE\000"
 12737      545F434F 
 12737      44455F55 
 12737      4E444552 
 12737      5F564F4C 
 12738              	.LASF437:
 12739 15bd 656E636F 		.ascii	"encoder_init_as5047p_spi\000"
 12739      6465725F 
 12739      696E6974 
 12739      5F617335 
 12739      30343770 
 12740              	.LASF435:
 12741 15d6 656E636F 		.ascii	"encoder_read_deg\000"
 12741      6465725F 
 12741      72656164 
 12741      5F646567 
 12741      00
 12742              	.LASF438:
 12743 15e7 6D637077 		.ascii	"mcpwm_stop_pwm\000"
 12743      6D5F7374 
 12743      6F705F70 
 12743      776D00
 12744              	.LASF33:
 12745 15f6 636E745F 		.ascii	"cnt_t\000"
 12745      7400
 12746              	.LASF246:
 12747 15fc 64757479 		.ascii	"duty\000"
 12747      00
 12748              	.LASF149:
 12749 1601 4641554C 		.ascii	"FAULT_CODE_NONE\000"
 12749      545F434F 
 12749      44455F4E 
 12749      4F4E4500 
 12750              	.LASF223:
 12751 1611 735F7069 		.ascii	"s_pid_ki\000"
 12751      645F6B69 
 12751      00
 12752              	.LASF198:
 12753 161a 68616C6C 		.ascii	"hall_sl_erpm\000"
 12753      5F736C5F 
 12753      6572706D 
 12753      00
ARM GAS  /var/folders/47/g7cdn6zj55s1hhv4njp6x8_h0000gn/T//cc224n80.s 			page 243


 12754              	.LASF222:
 12755 1627 735F7069 		.ascii	"s_pid_kp\000"
 12755      645F6B70 
 12755      00
 12756              	.LASF263:
 12757 1630 41465248 		.ascii	"AFRH\000"
 12757      00
 12758              	.LASF262:
 12759 1635 4146524C 		.ascii	"AFRL\000"
 12759      00
 12760              	.LASF318:
 12761 163a 6D635F69 		.ascii	"mc_interface_get_tachometer_abs_value\000"
 12761      6E746572 
 12761      66616365 
 12761      5F676574 
 12761      5F746163 
 12762              	.LASF214:
 12763 1660 666F635F 		.ascii	"foc_openloop_rpm\000"
 12763      6F70656E 
 12763      6C6F6F70 
 12763      5F72706D 
 12763      00
 12764              	.LASF218:
 12765 1671 666F635F 		.ascii	"foc_sl_d_current_factor\000"
 12765      736C5F64 
 12765      5F637572 
 12765      72656E74 
 12765      5F666163 
 12766              	.LASF211:
 12767 1689 666F635F 		.ascii	"foc_pll_ki\000"
 12767      706C6C5F 
 12767      6B6900
 12768              	.LASF414:
 12769 1694 6D637077 		.ascii	"mcpwm_foc_get_rpm\000"
 12769      6D5F666F 
 12769      635F6765 
 12769      745F7270 
 12769      6D00
 12770              	.LASF210:
 12771 16a6 666F635F 		.ascii	"foc_pll_kp\000"
 12771      706C6C5F 
 12771      6B7000
 12772              	.LASF347:
 12773 16b1 6162735F 		.ascii	"abs_current\000"
 12773      63757272 
 12773      656E7400 
 12774              	.LASF334:
 12775 16bd 6D635F69 		.ascii	"mc_interface_release_motor\000"
 12775      6E746572 
 12775      66616365 
 12775      5F72656C 
 12775      65617365 
 12776              	.LASF69:
 12777 16d8 76746675 		.ascii	"vtfunc_t\000"
 12777      6E635F74 
 12777      00
 12778              	.LASF110:
ARM GAS  /var/folders/47/g7cdn6zj55s1hhv4njp6x8_h0000gn/T//cc224n80.s 			page 244


 12779 16e1 77746F62 		.ascii	"wtobjp\000"
 12779      6A7000
 12780              	.LASF53:
 12781 16e8 705F7265 		.ascii	"p_realprio\000"
 12781      616C7072 
 12781      696F00
 12782              	.LASF113:
 12783 16f3 77746D74 		.ascii	"wtmtxp\000"
 12783      787000
 12784              	.LASF148:
 12785 16fa 6D635F6D 		.ascii	"mc_motor_type\000"
 12785      6F746F72 
 12785      5F747970 
 12785      6500
 12786              	.LASF265:
 12787 1708 646F7562 		.ascii	"double\000"
 12787      6C6500
 12788              	.LASF459:
 12789 170f 656E636F 		.ascii	"encoder_set_counts\000"
 12789      6465725F 
 12789      7365745F 
 12789      636F756E 
 12789      747300
 12790              	.LASF333:
 12791 1722 6D635F69 		.ascii	"mc_interface_set_pid_pos\000"
 12791      6E746572 
 12791      66616365 
 12791      5F736574 
 12791      5F706964 
 12792              	.LASF183:
 12793 173b 6C5F7465 		.ascii	"l_temp_motor_end\000"
 12793      6D705F6D 
 12793      6F746F72 
 12793      5F656E64 
 12793      00
 12794              	.LASF380:
 12795 174c 6D5F7361 		.ascii	"m_sample_now\000"
 12795      6D706C65 
 12795      5F6E6F77 
 12795      00
 12796              	.LASF164:
 12797 1759 73656E73 		.ascii	"sensor_mode\000"
 12797      6F725F6D 
 12797      6F646500 
 12798              	.LASF137:
 12799 1765 53454E53 		.ascii	"SENSOR_MODE_SENSORLESS\000"
 12799      4F525F4D 
 12799      4F44455F 
 12799      53454E53 
 12799      4F524C45 
 12800              	.LASF62:
 12801 177c 63685F72 		.ascii	"ch_ready_list\000"
 12801      65616479 
 12801      5F6C6973 
 12801      7400
 12802              	.LASF410:
 12803 178a 6D637077 		.ascii	"mcpwm_foc_get_duty_cycle_now\000"
ARM GAS  /var/folders/47/g7cdn6zj55s1hhv4njp6x8_h0000gn/T//cc224n80.s 			page 245


 12803      6D5F666F 
 12803      635F6765 
 12803      745F6475 
 12803      74795F63 
 12804              	.LASF259:
 12805 17a7 50555044 		.ascii	"PUPDR\000"
 12805      5200
 12806              	.LASF9:
 12807 17ad 5F5F696E 		.ascii	"__int32_t\000"
 12807      7433325F 
 12807      7400
 12808              	.LASF11:
 12809 17b7 5F5F7569 		.ascii	"__uint32_t\000"
 12809      6E743332 
 12809      5F7400
 12810              	.LASF81:
 12811 17c2 63685F73 		.ascii	"ch_system_debug\000"
 12811      79737465 
 12811      6D5F6465 
 12811      62756700 
 12812              	.LASF251:
 12813 17d2 74696D5F 		.ascii	"tim_top\000"
 12813      746F7000 
 12814              	.LASF360:
 12815 17da 6D5F696E 		.ascii	"m_input_current_sum\000"
 12815      7075745F 
 12815      63757272 
 12815      656E745F 
 12815      73756D00 
 12816              	.LASF451:
 12817 17ee 6C6F6766 		.ascii	"logf\000"
 12817      00
 12818              	.LASF469:
 12819 17f3 6D637077 		.ascii	"mcpwm_adc_inj_int_handler\000"
 12819      6D5F6164 
 12819      635F696E 
 12819      6A5F696E 
 12819      745F6861 
 12820              	.LASF124:
 12821 180d 6D757465 		.ascii	"mutex_t\000"
 12821      785F7400 
 12822              	.LASF322:
 12823 1815 6D635F69 		.ascii	"mc_interface_get_pid_pos_set\000"
 12823      6E746572 
 12823      66616365 
 12823      5F676574 
 12823      5F706964 
 12824              	.LASF51:
 12825 1832 705F6570 		.ascii	"p_epending\000"
 12825      656E6469 
 12825      6E6700
 12826              	.LASF341:
 12827 183d 73616D70 		.ascii	"sample_send_thread\000"
 12827      6C655F73 
 12827      656E645F 
 12827      74687265 
 12827      616400
ARM GAS  /var/folders/47/g7cdn6zj55s1hhv4njp6x8_h0000gn/T//cc224n80.s 			page 246


 12828              	.LASF256:
 12829 1850 4D4F4445 		.ascii	"MODER\000"
 12829      5200
 12830              	.LASF215:
 12831 1856 666F635F 		.ascii	"foc_sl_openloop_hyst\000"
 12831      736C5F6F 
 12831      70656E6C 
 12831      6F6F705F 
 12831      68797374 
 12832              	.LASF416:
 12833 186b 6D637077 		.ascii	"mcpwm_foc_get_tot_current\000"
 12833      6D5F666F 
 12833      635F6765 
 12833      745F746F 
 12833      745F6375 
 12834              	.LASF245:
 12835 1885 766F6C74 		.ascii	"voltage\000"
 12835      61676500 
 12836              	.LASF188:
 12837 188d 6C6F5F69 		.ascii	"lo_in_current_max\000"
 12837      6E5F6375 
 12837      7272656E 
 12837      745F6D61 
 12837      7800
 12838              	.LASF64:
 12839 189f 725F7072 		.ascii	"r_prio\000"
 12839      696F00
 12840              	.LASF219:
 12841 18a6 666F635F 		.ascii	"foc_sensor_mode\000"
 12841      73656E73 
 12841      6F725F6D 
 12841      6F646500 
 12842              	.LASF388:
 12843 18b6 49544D5F 		.ascii	"ITM_RxBuffer\000"
 12843      52784275 
 12843      66666572 
 12843      00
 12844              	.LASF152:
 12845 18c3 4641554C 		.ascii	"FAULT_CODE_DRV8302\000"
 12845      545F434F 
 12845      44455F44 
 12845      52563833 
 12845      303200
 12846              	.LASF143:
 12847 18d6 464F435F 		.ascii	"FOC_SENSOR_MODE_HALL\000"
 12847      53454E53 
 12847      4F525F4D 
 12847      4F44455F 
 12847      48414C4C 
 12848              	.LASF15:
 12849 18eb 6C6F6E67 		.ascii	"long long unsigned int\000"
 12849      206C6F6E 
 12849      6720756E 
 12849      7369676E 
 12849      65642069 
 12850              	.LASF106:
 12851 1902 6F666673 		.ascii	"offset\000"
ARM GAS  /var/folders/47/g7cdn6zj55s1hhv4njp6x8_h0000gn/T//cc224n80.s 			page 247


 12851      657400
 12852              	.LASF368:
 12853 1909 6D5F6375 		.ascii	"m_curr0_samples\000"
 12853      7272305F 
 12853      73616D70 
 12853      6C657300 
 12854              	.LASF202:
 12855 1919 666F635F 		.ascii	"foc_dt_us\000"
 12855      64745F75 
 12855      7300
 12856              	.LASF369:
 12857 1923 6D5F6375 		.ascii	"m_curr1_samples\000"
 12857      7272315F 
 12857      73616D70 
 12857      6C657300 
 12858              	.LASF272:
 12859 1933 63685265 		.ascii	"chRegSetThreadName\000"
 12859      67536574 
 12859      54687265 
 12859      61644E61 
 12859      6D6500
 12860              	.LASF88:
 12861 1946 69646C65 		.ascii	"idle_thread_wa\000"
 12861      5F746872 
 12861      6561645F 
 12861      776100
 12862              	.LASF75:
 12863 1955 76745F66 		.ascii	"vt_func\000"
 12863      756E6300 
 12864              	.LASF90:
 12865 195d 534D4352 		.ascii	"SMCR\000"
 12865      00
 12866              	.LASF335:
 12867 1962 6D635F69 		.ascii	"mc_interface_set_brake_current\000"
 12867      6E746572 
 12867      66616365 
 12867      5F736574 
 12867      5F627261 
 12868              	.LASF253:
 12869 1981 74656D70 		.ascii	"temperature\000"
 12869      65726174 
 12869      75726500 
 12870              	.LASF301:
 12871 198d 6D635F69 		.ascii	"mc_interface_get_state\000"
 12871      6E746572 
 12871      66616365 
 12871      5F676574 
 12871      5F737461 
 12872              	.LASF71:
 12873 19a4 63685F76 		.ascii	"ch_virtual_timer\000"
 12873      69727475 
 12873      616C5F74 
 12873      696D6572 
 12873      00
 12874              	.LASF44:
 12875 19b5 705F666C 		.ascii	"p_flags\000"
 12875      61677300 
ARM GAS  /var/folders/47/g7cdn6zj55s1hhv4njp6x8_h0000gn/T//cc224n80.s 			page 248


 12876              	.LASF114:
 12877 19bd 65776D61 		.ascii	"ewmask\000"
 12877      736B00
 12878              	.LASF297:
 12879 19c4 6D635F69 		.ascii	"mc_interface_get_configuration\000"
 12879      6E746572 
 12879      66616365 
 12879      5F676574 
 12879      5F636F6E 
 12880              	.LASF455:
 12881 19e3 656E636F 		.ascii	"encoder_deinit\000"
 12881      6465725F 
 12881      6465696E 
 12881      697400
 12882              	.LASF468:
 12883 19f2 6D637077 		.ascii	"mcpwm_foc_adc_inj_int_handler\000"
 12883      6D5F666F 
 12883      635F6164 
 12883      635F696E 
 12883      6A5F696E 
 12884              	.LASF52:
 12885 1a10 705F6D74 		.ascii	"p_mtxlist\000"
 12885      786C6973 
 12885      7400
 12886              	.LASF195:
 12887 1a1a 736C5F63 		.ascii	"sl_cycle_int_rpm_br\000"
 12887      79636C65 
 12887      5F696E74 
 12887      5F72706D 
 12887      5F627200 
 12888              	.LASF412:
 12889 1a2e 6D637077 		.ascii	"mcpwm_foc_get_switching_frequency_now\000"
 12889      6D5F666F 
 12889      635F6765 
 12889      745F7377 
 12889      69746368 
 12890              	.LASF27:
 12891 1a54 74737461 		.ascii	"tstate_t\000"
 12891      74655F74 
 12891      00
 12892              	.LASF379:
 12893 1a5d 6D5F7361 		.ascii	"m_sample_ready\000"
 12893      6D706C65 
 12893      5F726561 
 12893      647900
 12894              	.LASF402:
 12895 1a6c 656E636F 		.ascii	"encoder_init_abi\000"
 12895      6465725F 
 12895      696E6974 
 12895      5F616269 
 12895      00
 12896              	.LASF136:
 12897 1a7d 6D635F63 		.ascii	"mc_comm_mode\000"
 12897      6F6D6D5F 
 12897      6D6F6465 
 12897      00
 12898              	.LASF250:
ARM GAS  /var/folders/47/g7cdn6zj55s1hhv4njp6x8_h0000gn/T//cc224n80.s 			page 249


 12899 1a8a 74696D5F 		.ascii	"tim_current_samp\000"
 12899      63757272 
 12899      656E745F 
 12899      73616D70 
 12899      00
 12900              	.LASF42:
 12901 1a9b 705F6E61 		.ascii	"p_name\000"
 12901      6D6500
 12902              	.LASF244:
 12903 1aa2 63757272 		.ascii	"current_filtered\000"
 12903      656E745F 
 12903      66696C74 
 12903      65726564 
 12903      00
 12904              	.LASF331:
 12905 1ab3 6D635F69 		.ascii	"mc_interface_set_duty_noramp\000"
 12905      6E746572 
 12905      66616365 
 12905      5F736574 
 12905      5F647574 
 12906              	.LASF395:
 12907 1ad0 636F6D6D 		.ascii	"commands_send_samples\000"
 12907      616E6473 
 12907      5F73656E 
 12907      645F7361 
 12907      6D706C65 
 12908              	.LASF274:
 12909 1ae6 6E616D65 		.ascii	"name\000"
 12909      00
 12910              	.LASF77:
 12911 1aeb 76697274 		.ascii	"virtual_timers_list_t\000"
 12911      75616C5F 
 12911      74696D65 
 12911      72735F6C 
 12911      6973745F 
 12912              	.LASF130:
 12913 1b01 50574D5F 		.ascii	"PWM_MODE_NONSYNCHRONOUS_HISW\000"
 12913      4D4F4445 
 12913      5F4E4F4E 
 12913      53594E43 
 12913      48524F4E 
 12914              	.LASF344:
 12915 1b1e 696E7075 		.ascii	"input_voltage\000"
 12915      745F766F 
 12915      6C746167 
 12915      6500
 12916              	.LASF340:
 12917 1b2c 6D635F69 		.ascii	"mc_interface_set_configuration\000"
 12917      6E746572 
 12917      66616365 
 12917      5F736574 
 12917      5F636F6E 
 12918              	.LASF306:
 12919 1b4b 6D635F69 		.ascii	"mc_interface_get_amp_hours\000"
 12919      6E746572 
 12919      66616365 
 12919      5F676574 
ARM GAS  /var/folders/47/g7cdn6zj55s1hhv4njp6x8_h0000gn/T//cc224n80.s 			page 250


 12919      5F616D70 
 12920              	.LASF116:
 12921 1b66 735F7175 		.ascii	"s_queue\000"
 12921      65756500 
 12922              	.LASF329:
 12923 1b6e 72657476 		.ascii	"retval\000"
 12923      616C00
 12924              	.LASF156:
 12925 1b75 6D635F66 		.ascii	"mc_fault_code\000"
 12925      61756C74 
 12925      5F636F64 
 12925      6500
 12926              	.LASF235:
 12927 1b83 6D5F6475 		.ascii	"m_duty_ramp_step\000"
 12927      74795F72 
 12927      616D705F 
 12927      73746570 
 12927      00
 12928              	.LASF241:
 12929 1b94 6D635F63 		.ascii	"mc_configuration\000"
 12929      6F6E6669 
 12929      67757261 
 12929      74696F6E 
 12929      00
 12930              	.LASF13:
 12931 1ba5 6C6F6E67 		.ascii	"long long int\000"
 12931      206C6F6E 
 12931      6720696E 
 12931      7400
 12932              	.LASF351:
 12933 1bb3 63757272 		.ascii	"curr_diff_samples\000"
 12933      5F646966 
 12933      665F7361 
 12933      6D706C65 
 12933      7300
 12934              	.LASF281:
 12935 1bc5 63685379 		.ascii	"chSysLockFromISR\000"
 12935      734C6F63 
 12935      6B46726F 
 12935      6D495352 
 12935      00
 12936              	.LASF173:
 12937 1bd6 6C5F6D61 		.ascii	"l_max_erpm_fbrake_cc\000"
 12937      785F6572 
 12937      706D5F66 
 12937      6272616B 
 12937      655F6363 
 12938              	.LASF404:
 12939 1beb 6D637077 		.ascii	"mcpwm_is_dccal_done\000"
 12939      6D5F6973 
 12939      5F646363 
 12939      616C5F64 
 12939      6F6E6500 
 12940              	.LASF454:
 12941 1bff 7574696C 		.ascii	"utils_map\000"
 12941      735F6D61 
 12941      7000
ARM GAS  /var/folders/47/g7cdn6zj55s1hhv4njp6x8_h0000gn/T//cc224n80.s 			page 251


 12942              	.LASF276:
 12943 1c09 6D635F69 		.ascii	"mc_interface_set_duty\000"
 12943      6E746572 
 12943      66616365 
 12943      5F736574 
 12943      5F647574 
 12944              	.LASF125:
 12945 1c1f 4D435F53 		.ascii	"MC_STATE_OFF\000"
 12945      54415445 
 12945      5F4F4646 
 12945      00
 12946              	.LASF271:
 12947 1c2c 5F5F7365 		.ascii	"__set_BASEPRI\000"
 12947      745F4241 
 12947      53455052 
 12947      4900
 12948              	.LASF449:
 12949 1c3a 6D637077 		.ascii	"mcpwm_foc_set_brake_current\000"
 12949      6D5F666F 
 12949      635F7365 
 12949      745F6272 
 12949      616B655F 
 12950              	.LASF167:
 12951 1c56 6C5F696E 		.ascii	"l_in_current_max\000"
 12951      5F637572 
 12951      72656E74 
 12951      5F6D6178 
 12951      00
 12952              	.LASF376:
 12953 1c67 6D5F665F 		.ascii	"m_f_sw_samples\000"
 12953      73775F73 
 12953      616D706C 
 12953      657300
 12954              	.LASF41:
 12955 1c76 705F6F6C 		.ascii	"p_older\000"
 12955      64657200 
 12956              	.LASF427:
 12957 1c7e 6D637077 		.ascii	"mcpwm_get_tot_current_in_filtered\000"
 12957      6D5F6765 
 12957      745F746F 
 12957      745F6375 
 12957      7272656E 
 12958              	.LASF55:
 12959 1ca0 74687265 		.ascii	"thread_reference_t\000"
 12959      61645F72 
 12959      65666572 
 12959      656E6365 
 12959      5F7400
 12960              	.LASF229:
 12961 1cb3 705F7069 		.ascii	"p_pid_ang_div\000"
 12961      645F616E 
 12961      675F6469 
 12961      7600
 12962              	.LASF216:
 12963 1cc1 666F635F 		.ascii	"foc_sl_openloop_time\000"
 12963      736C5F6F 
 12963      70656E6C 
ARM GAS  /var/folders/47/g7cdn6zj55s1hhv4njp6x8_h0000gn/T//cc224n80.s 			page 252


 12963      6F6F705F 
 12963      74696D65 
 12964              	.LASF107:
 12965 1cd6 746D5F63 		.ascii	"tm_calibration_t\000"
 12965      616C6962 
 12965      72617469 
 12965      6F6E5F74 
 12965      00
 12966              	.LASF336:
 12967 1ce7 6D635F69 		.ascii	"mc_interface_fault_stop\000"
 12967      6E746572 
 12967      66616365 
 12967      5F666175 
 12967      6C745F73 
 12968              	.LASF2:
 12969 1cff 5F5F696E 		.ascii	"__int8_t\000"
 12969      74385F74 
 12969      00
 12970              	.LASF189:
 12971 1d08 6C6F5F69 		.ascii	"lo_in_current_min\000"
 12971      6E5F6375 
 12971      7272656E 
 12971      745F6D69 
 12971      6E00
 12972              	.LASF310:
 12973 1d1a 6D635F69 		.ascii	"mc_interface_get_watt_hours_charged\000"
 12973      6E746572 
 12973      66616365 
 12973      5F676574 
 12973      5F776174 
 12974              	.LASF382:
 12975 1d3e 6D5F7374 		.ascii	"m_start_comm\000"
 12975      6172745F 
 12975      636F6D6D 
 12975      00
 12976              	.LASF470:
 12977 1d4b 474E5520 		.ascii	"GNU C 4.9.3 20150529 (release) [ARM/embedded-4_9-br"
 12977      4320342E 
 12977      392E3320 
 12977      32303135 
 12977      30353239 
 12978 1d7e 616E6368 		.ascii	"anch revision 227977] -mcpu=cortex-m4 -mfloat-abi=h"
 12978      20726576 
 12978      6973696F 
 12978      6E203232 
 12978      37393737 
 12979 1db1 61726420 		.ascii	"ard -mfpu=fpv4-sp-d16 -mno-thumb-interwork -mthumb "
 12979      2D6D6670 
 12979      753D6670 
 12979      76342D73 
 12979      702D6431 
 12980 1de4 2D676764 		.ascii	"-ggdb -O2 -std=gnu99 -fomit-frame-pointer -falign-f"
 12980      62202D4F 
 12980      32202D73 
 12980      74643D67 
 12980      6E753939 
 12981 1e17 756E6374 		.ascii	"unctions=16 -ffunction-sections -fdata-sections -fn"
ARM GAS  /var/folders/47/g7cdn6zj55s1hhv4njp6x8_h0000gn/T//cc224n80.s 			page 253


 12981      696F6E73 
 12981      3D313620 
 12981      2D666675 
 12981      6E637469 
 12982 1e4a 6F2D636F 		.ascii	"o-common -fsingle-precision-constant\000"
 12982      6D6D6F6E 
 12982      202D6673 
 12982      696E676C 
 12982      652D7072 
 12983              	.LASF184:
 12984 1e6f 6C5F6D69 		.ascii	"l_min_duty\000"
 12984      6E5F6475 
 12984      747900
 12985              	.LASF160:
 12986 1e7a 73656E73 		.ascii	"sensor_port_mode\000"
 12986      6F725F70 
 12986      6F72745F 
 12986      6D6F6465 
 12986      00
 12987              	.LASF92:
 12988 1e8b 43434D52 		.ascii	"CCMR1\000"
 12988      3100
 12989              	.LASF93:
 12990 1e91 43434D52 		.ascii	"CCMR2\000"
 12990      3200
 12991              	.LASF144:
 12992 1e97 6D635F66 		.ascii	"mc_foc_sensor_mode\000"
 12992      6F635F73 
 12992      656E736F 
 12992      725F6D6F 
 12992      646500
 12993              	.LASF16:
 12994 1eaa 756E7369 		.ascii	"unsigned int\000"
 12994      676E6564 
 12994      20696E74 
 12994      00
 12995              	.LASF397:
 12996 1eb7 63684576 		.ascii	"chEvtWaitAny\000"
 12996      74576169 
 12996      74416E79 
 12996      00
 12997              	.LASF293:
 12998 1ec4 705F6675 		.ascii	"p_func\000"
 12998      6E6300
 12999              	.LASF464:
 13000 1ecb 6D637077 		.ascii	"mcpwm_get_last_adc_isr_duration\000"
 13000      6D5F6765 
 13000      745F6C61 
 13000      73745F61 
 13000      64635F69 
 13001              	.LASF6:
 13002 1eeb 73686F72 		.ascii	"short int\000"
 13002      7420696E 
 13002      7400
 13003              	.LASF393:
 13004 1ef5 6D637077 		.ascii	"mcpwm_detect_currents_diff\000"
 13004      6D5F6465 
ARM GAS  /var/folders/47/g7cdn6zj55s1hhv4njp6x8_h0000gn/T//cc224n80.s 			page 254


 13004      74656374 
 13004      5F637572 
 13004      72656E74 
 13005              	.LASF327:
 13006 1f10 64656369 		.ascii	"decimation\000"
 13006      6D617469 
 13006      6F6E00
 13007              	.LASF440:
 13008 1f1b 6D637077 		.ascii	"mcpwm_set_duty\000"
 13008      6D5F7365 
 13008      745F6475 
 13008      747900
 13009              	.LASF357:
 13010 1f2a 6D5F6C6F 		.ascii	"m_lock_enabled\000"
 13010      636B5F65 
 13010      6E61626C 
 13010      656400
 13011              	.LASF254:
 13012 1f39 6661756C 		.ascii	"fault_data\000"
 13012      745F6461 
 13012      746100
 13013              	.LASF375:
 13014 1f44 6D5F6375 		.ascii	"m_curr_fir_samples\000"
 13014      72725F66 
 13014      69725F73 
 13014      616D706C 
 13014      657300
 13015              	.LASF145:
 13016 1f57 4D4F544F 		.ascii	"MOTOR_TYPE_BLDC\000"
 13016      525F5459 
 13016      50455F42 
 13016      4C444300 
 13017              	.LASF291:
 13018 1f67 6D635F69 		.ascii	"mc_interface_init\000"
 13018      6E746572 
 13018      66616365 
 13018      5F696E69 
 13018      7400
 13019              	.LASF296:
 13020 1f79 6D635F69 		.ascii	"mc_interface_lock_override_once\000"
 13020      6E746572 
 13020      66616365 
 13020      5F6C6F63 
 13020      6B5F6F76 
 13021              	.LASF373:
 13022 1f99 6D5F767A 		.ascii	"m_vzero_samples\000"
 13022      65726F5F 
 13022      73616D70 
 13022      6C657300 
 13023              	.LASF433:
 13024 1fa9 6D637077 		.ascii	"mcpwm_get_last_inj_adc_isr_duration\000"
 13024      6D5F6765 
 13024      745F6C61 
 13024      73745F69 
 13024      6E6A5F61 
 13025              	.LASF43:
 13026 1fcd 705F7374 		.ascii	"p_state\000"
ARM GAS  /var/folders/47/g7cdn6zj55s1hhv4njp6x8_h0000gn/T//cc224n80.s 			page 255


 13026      61746500 
 13027              	.LASF387:
 13028 1fd5 73616D70 		.ascii	"sample_send_tp\000"
 13028      6C655F73 
 13028      656E645F 
 13028      747000
 13029              	.LASF58:
 13030 1fe4 63685F74 		.ascii	"ch_threads_list\000"
 13030      68726561 
 13030      64735F6C 
 13030      69737400 
 13031              	.LASF135:
 13032 1ff4 434F4D4D 		.ascii	"COMM_MODE_DELAY\000"
 13032      5F4D4F44 
 13032      455F4445 
 13032      4C415900 
 13033              	.LASF238:
 13034 2004 6D5F656E 		.ascii	"m_encoder_counts\000"
 13034      636F6465 
 13034      725F636F 
 13034      756E7473 
 13034      00
 13035              		.ident	"GCC: (GNU Tools for ARM Embedded Processors) 4.9.3 20150529 (release) [ARM/embedded-4_9-br
ARM GAS  /var/folders/47/g7cdn6zj55s1hhv4njp6x8_h0000gn/T//cc224n80.s 			page 256


DEFINED SYMBOLS
                            *ABS*:0000000000000000 mc_interface.c
/var/folders/47/g7cdn6zj55s1hhv4njp6x8_h0000gn/T//cc224n80.s:21     .text.sample_send_thread:0000000000000000 $t
/var/folders/47/g7cdn6zj55s1hhv4njp6x8_h0000gn/T//cc224n80.s:26     .text.sample_send_thread:0000000000000000 sample_send_thread
/var/folders/47/g7cdn6zj55s1hhv4njp6x8_h0000gn/T//cc224n80.s:200    .text.sample_send_thread:00000000000000fc $d
/var/folders/47/g7cdn6zj55s1hhv4njp6x8_h0000gn/T//cc224n80.s:218    .text.mc_interface_init:0000000000000000 $t
/var/folders/47/g7cdn6zj55s1hhv4njp6x8_h0000gn/T//cc224n80.s:224    .text.mc_interface_init:0000000000000000 mc_interface_init
/var/folders/47/g7cdn6zj55s1hhv4njp6x8_h0000gn/T//cc224n80.s:456    .text.mc_interface_init:0000000000000110 $d
/var/folders/47/g7cdn6zj55s1hhv4njp6x8_h0000gn/T//cc224n80.s:3096   .text.timer_thread:0000000000000000 timer_thread
/var/folders/47/g7cdn6zj55s1hhv4njp6x8_h0000gn/T//cc224n80.s:486    .text.mc_interface_get_configuration:0000000000000000 $t
/var/folders/47/g7cdn6zj55s1hhv4njp6x8_h0000gn/T//cc224n80.s:492    .text.mc_interface_get_configuration:0000000000000000 mc_interface_get_configuration
/var/folders/47/g7cdn6zj55s1hhv4njp6x8_h0000gn/T//cc224n80.s:505    .text.mc_interface_get_configuration:0000000000000004 $d
/var/folders/47/g7cdn6zj55s1hhv4njp6x8_h0000gn/T//cc224n80.s:510    .text.mc_interface_dccal_done:0000000000000000 $t
/var/folders/47/g7cdn6zj55s1hhv4njp6x8_h0000gn/T//cc224n80.s:516    .text.mc_interface_dccal_done:0000000000000000 mc_interface_dccal_done
/var/folders/47/g7cdn6zj55s1hhv4njp6x8_h0000gn/T//cc224n80.s:546    .text.mc_interface_dccal_done:000000000000001c $d
/var/folders/47/g7cdn6zj55s1hhv4njp6x8_h0000gn/T//cc224n80.s:551    .text.mc_interface_set_pwm_callback:0000000000000000 $t
/var/folders/47/g7cdn6zj55s1hhv4njp6x8_h0000gn/T//cc224n80.s:557    .text.mc_interface_set_pwm_callback:0000000000000000 mc_interface_set_pwm_callback
/var/folders/47/g7cdn6zj55s1hhv4njp6x8_h0000gn/T//cc224n80.s:572    .text.mc_interface_set_pwm_callback:0000000000000008 $d
/var/folders/47/g7cdn6zj55s1hhv4njp6x8_h0000gn/T//cc224n80.s:577    .text.mc_interface_lock:0000000000000000 $t
/var/folders/47/g7cdn6zj55s1hhv4njp6x8_h0000gn/T//cc224n80.s:583    .text.mc_interface_lock:0000000000000000 mc_interface_lock
/var/folders/47/g7cdn6zj55s1hhv4njp6x8_h0000gn/T//cc224n80.s:598    .text.mc_interface_lock:0000000000000008 $d
/var/folders/47/g7cdn6zj55s1hhv4njp6x8_h0000gn/T//cc224n80.s:603    .text.mc_interface_unlock:0000000000000000 $t
/var/folders/47/g7cdn6zj55s1hhv4njp6x8_h0000gn/T//cc224n80.s:609    .text.mc_interface_unlock:0000000000000000 mc_interface_unlock
/var/folders/47/g7cdn6zj55s1hhv4njp6x8_h0000gn/T//cc224n80.s:624    .text.mc_interface_unlock:0000000000000008 $d
/var/folders/47/g7cdn6zj55s1hhv4njp6x8_h0000gn/T//cc224n80.s:629    .text.mc_interface_lock_override_once:0000000000000000 $t
/var/folders/47/g7cdn6zj55s1hhv4njp6x8_h0000gn/T//cc224n80.s:635    .text.mc_interface_lock_override_once:0000000000000000 mc_interface_lock_override_once
/var/folders/47/g7cdn6zj55s1hhv4njp6x8_h0000gn/T//cc224n80.s:650    .text.mc_interface_lock_override_once:0000000000000008 $d
/var/folders/47/g7cdn6zj55s1hhv4njp6x8_h0000gn/T//cc224n80.s:655    .text.mc_interface_get_fault:0000000000000000 $t
/var/folders/47/g7cdn6zj55s1hhv4njp6x8_h0000gn/T//cc224n80.s:661    .text.mc_interface_get_fault:0000000000000000 mc_interface_get_fault
/var/folders/47/g7cdn6zj55s1hhv4njp6x8_h0000gn/T//cc224n80.s:676    .text.mc_interface_get_fault:0000000000000008 $d
/var/folders/47/g7cdn6zj55s1hhv4njp6x8_h0000gn/T//cc224n80.s:681    .text.mc_interface_fault_to_string:0000000000000000 $t
/var/folders/47/g7cdn6zj55s1hhv4njp6x8_h0000gn/T//cc224n80.s:687    .text.mc_interface_fault_to_string:0000000000000000 mc_interface_fault_to_string
/var/folders/47/g7cdn6zj55s1hhv4njp6x8_h0000gn/T//cc224n80.s:707    .text.mc_interface_fault_to_string:0000000000000010 $d
/var/folders/47/g7cdn6zj55s1hhv4njp6x8_h0000gn/T//cc224n80.s:713    .text.mc_interface_get_state:0000000000000000 $t
/var/folders/47/g7cdn6zj55s1hhv4njp6x8_h0000gn/T//cc224n80.s:719    .text.mc_interface_get_state:0000000000000000 mc_interface_get_state
/var/folders/47/g7cdn6zj55s1hhv4njp6x8_h0000gn/T//cc224n80.s:749    .text.mc_interface_get_state:000000000000001c $d
/var/folders/47/g7cdn6zj55s1hhv4njp6x8_h0000gn/T//cc224n80.s:754    .text.mc_interface_set_position_pid_constants:0000000000000000 $t
/var/folders/47/g7cdn6zj55s1hhv4njp6x8_h0000gn/T//cc224n80.s:760    .text.mc_interface_set_position_pid_constants:0000000000000000 mc_interface_set_position_pid_constants
/var/folders/47/g7cdn6zj55s1hhv4njp6x8_h0000gn/T//cc224n80.s:787    .text.mc_interface_set_position_pid_constants:000000000000001c $d
/var/folders/47/g7cdn6zj55s1hhv4njp6x8_h0000gn/T//cc224n80.s:792    .text.mc_interface_get_duty_cycle_set:0000000000000000 $t
/var/folders/47/g7cdn6zj55s1hhv4njp6x8_h0000gn/T//cc224n80.s:798    .text.mc_interface_get_duty_cycle_set:0000000000000000 mc_interface_get_duty_cycle_set
/var/folders/47/g7cdn6zj55s1hhv4njp6x8_h0000gn/T//cc224n80.s:828    .text.mc_interface_get_duty_cycle_set:000000000000001c $d
/var/folders/47/g7cdn6zj55s1hhv4njp6x8_h0000gn/T//cc224n80.s:834    .text.mc_interface_get_duty_cycle_now:0000000000000000 $t
/var/folders/47/g7cdn6zj55s1hhv4njp6x8_h0000gn/T//cc224n80.s:840    .text.mc_interface_get_duty_cycle_now:0000000000000000 mc_interface_get_duty_cycle_now
/var/folders/47/g7cdn6zj55s1hhv4njp6x8_h0000gn/T//cc224n80.s:870    .text.mc_interface_get_duty_cycle_now:000000000000001c $d
/var/folders/47/g7cdn6zj55s1hhv4njp6x8_h0000gn/T//cc224n80.s:876    .text.mc_interface_get_sampling_frequency_now:0000000000000000 $t
/var/folders/47/g7cdn6zj55s1hhv4njp6x8_h0000gn/T//cc224n80.s:882    .text.mc_interface_get_sampling_frequency_now:0000000000000000 mc_interface_get_sampling_frequency_now
/var/folders/47/g7cdn6zj55s1hhv4njp6x8_h0000gn/T//cc224n80.s:931    .text.mc_interface_get_sampling_frequency_now:000000000000002c $d
/var/folders/47/g7cdn6zj55s1hhv4njp6x8_h0000gn/T//cc224n80.s:937    .text.mc_interface_get_rpm:0000000000000000 $t
/var/folders/47/g7cdn6zj55s1hhv4njp6x8_h0000gn/T//cc224n80.s:943    .text.mc_interface_get_rpm:0000000000000000 mc_interface_get_rpm
/var/folders/47/g7cdn6zj55s1hhv4njp6x8_h0000gn/T//cc224n80.s:973    .text.mc_interface_get_rpm:000000000000001c $d
/var/folders/47/g7cdn6zj55s1hhv4njp6x8_h0000gn/T//cc224n80.s:979    .text.mc_interface_get_amp_hours:0000000000000000 $t
/var/folders/47/g7cdn6zj55s1hhv4njp6x8_h0000gn/T//cc224n80.s:985    .text.mc_interface_get_amp_hours:0000000000000000 mc_interface_get_amp_hours
/var/folders/47/g7cdn6zj55s1hhv4njp6x8_h0000gn/T//cc224n80.s:1010   .text.mc_interface_get_amp_hours:0000000000000018 $d
/var/folders/47/g7cdn6zj55s1hhv4njp6x8_h0000gn/T//cc224n80.s:1016   .text.mc_interface_get_amp_hours_charged:0000000000000000 $t
/var/folders/47/g7cdn6zj55s1hhv4njp6x8_h0000gn/T//cc224n80.s:1022   .text.mc_interface_get_amp_hours_charged:0000000000000000 mc_interface_get_amp_hours_charged
/var/folders/47/g7cdn6zj55s1hhv4njp6x8_h0000gn/T//cc224n80.s:1047   .text.mc_interface_get_amp_hours_charged:0000000000000018 $d
ARM GAS  /var/folders/47/g7cdn6zj55s1hhv4njp6x8_h0000gn/T//cc224n80.s 			page 257


/var/folders/47/g7cdn6zj55s1hhv4njp6x8_h0000gn/T//cc224n80.s:1053   .text.mc_interface_get_watt_hours:0000000000000000 $t
/var/folders/47/g7cdn6zj55s1hhv4njp6x8_h0000gn/T//cc224n80.s:1059   .text.mc_interface_get_watt_hours:0000000000000000 mc_interface_get_watt_hours
/var/folders/47/g7cdn6zj55s1hhv4njp6x8_h0000gn/T//cc224n80.s:1085   .text.mc_interface_get_watt_hours:0000000000000018 $d
/var/folders/47/g7cdn6zj55s1hhv4njp6x8_h0000gn/T//cc224n80.s:1092   .text.mc_interface_get_watt_hours_charged:0000000000000000 $t
/var/folders/47/g7cdn6zj55s1hhv4njp6x8_h0000gn/T//cc224n80.s:1098   .text.mc_interface_get_watt_hours_charged:0000000000000000 mc_interface_get_watt_hours_charged
/var/folders/47/g7cdn6zj55s1hhv4njp6x8_h0000gn/T//cc224n80.s:1123   .text.mc_interface_get_watt_hours_charged:0000000000000018 $d
/var/folders/47/g7cdn6zj55s1hhv4njp6x8_h0000gn/T//cc224n80.s:1129   .text.mc_interface_get_tot_current:0000000000000000 $t
/var/folders/47/g7cdn6zj55s1hhv4njp6x8_h0000gn/T//cc224n80.s:1135   .text.mc_interface_get_tot_current:0000000000000000 mc_interface_get_tot_current
/var/folders/47/g7cdn6zj55s1hhv4njp6x8_h0000gn/T//cc224n80.s:1165   .text.mc_interface_get_tot_current:000000000000001c $d
/var/folders/47/g7cdn6zj55s1hhv4njp6x8_h0000gn/T//cc224n80.s:1171   .text.mc_interface_get_tot_current_filtered:0000000000000000 $t
/var/folders/47/g7cdn6zj55s1hhv4njp6x8_h0000gn/T//cc224n80.s:1177   .text.mc_interface_get_tot_current_filtered:0000000000000000 mc_interface_get_tot_current_filtered
/var/folders/47/g7cdn6zj55s1hhv4njp6x8_h0000gn/T//cc224n80.s:1207   .text.mc_interface_get_tot_current_filtered:000000000000001c $d
/var/folders/47/g7cdn6zj55s1hhv4njp6x8_h0000gn/T//cc224n80.s:1213   .text.mc_interface_get_tot_current_directional:0000000000000000 $t
/var/folders/47/g7cdn6zj55s1hhv4njp6x8_h0000gn/T//cc224n80.s:1219   .text.mc_interface_get_tot_current_directional:0000000000000000 mc_interface_get_tot_current_directional
/var/folders/47/g7cdn6zj55s1hhv4njp6x8_h0000gn/T//cc224n80.s:1249   .text.mc_interface_get_tot_current_directional:000000000000001c $d
/var/folders/47/g7cdn6zj55s1hhv4njp6x8_h0000gn/T//cc224n80.s:1255   .text.mc_interface_get_tot_current_directional_filtered:0000000000000000 $t
/var/folders/47/g7cdn6zj55s1hhv4njp6x8_h0000gn/T//cc224n80.s:1261   .text.mc_interface_get_tot_current_directional_filtered:0000000000000000 mc_interface_get_tot_current_directional_filtered
/var/folders/47/g7cdn6zj55s1hhv4njp6x8_h0000gn/T//cc224n80.s:1291   .text.mc_interface_get_tot_current_directional_filtered:000000000000001c $d
/var/folders/47/g7cdn6zj55s1hhv4njp6x8_h0000gn/T//cc224n80.s:1297   .text.mc_interface_get_tot_current_in:0000000000000000 $t
/var/folders/47/g7cdn6zj55s1hhv4njp6x8_h0000gn/T//cc224n80.s:1303   .text.mc_interface_get_tot_current_in:0000000000000000 mc_interface_get_tot_current_in
/var/folders/47/g7cdn6zj55s1hhv4njp6x8_h0000gn/T//cc224n80.s:1333   .text.mc_interface_get_tot_current_in:000000000000001c $d
/var/folders/47/g7cdn6zj55s1hhv4njp6x8_h0000gn/T//cc224n80.s:1339   .text.mc_interface_get_tot_current_in_filtered:0000000000000000 $t
/var/folders/47/g7cdn6zj55s1hhv4njp6x8_h0000gn/T//cc224n80.s:1345   .text.mc_interface_get_tot_current_in_filtered:0000000000000000 mc_interface_get_tot_current_in_filtered
/var/folders/47/g7cdn6zj55s1hhv4njp6x8_h0000gn/T//cc224n80.s:1375   .text.mc_interface_get_tot_current_in_filtered:000000000000001c $d
/var/folders/47/g7cdn6zj55s1hhv4njp6x8_h0000gn/T//cc224n80.s:1381   .text.mc_interface_get_tachometer_value:0000000000000000 $t
/var/folders/47/g7cdn6zj55s1hhv4njp6x8_h0000gn/T//cc224n80.s:1387   .text.mc_interface_get_tachometer_value:0000000000000000 mc_interface_get_tachometer_value
/var/folders/47/g7cdn6zj55s1hhv4njp6x8_h0000gn/T//cc224n80.s:1419   .text.mc_interface_get_tachometer_value:000000000000001c $d
/var/folders/47/g7cdn6zj55s1hhv4njp6x8_h0000gn/T//cc224n80.s:1424   .text.mc_interface_get_tachometer_abs_value:0000000000000000 $t
/var/folders/47/g7cdn6zj55s1hhv4njp6x8_h0000gn/T//cc224n80.s:1430   .text.mc_interface_get_tachometer_abs_value:0000000000000000 mc_interface_get_tachometer_abs_value
/var/folders/47/g7cdn6zj55s1hhv4njp6x8_h0000gn/T//cc224n80.s:1462   .text.mc_interface_get_tachometer_abs_value:000000000000001c $d
/var/folders/47/g7cdn6zj55s1hhv4njp6x8_h0000gn/T//cc224n80.s:1467   .text.mc_interface_get_last_inj_adc_isr_duration:0000000000000000 $t
/var/folders/47/g7cdn6zj55s1hhv4njp6x8_h0000gn/T//cc224n80.s:1473   .text.mc_interface_get_last_inj_adc_isr_duration:0000000000000000 mc_interface_get_last_inj_adc_isr_duration
/var/folders/47/g7cdn6zj55s1hhv4njp6x8_h0000gn/T//cc224n80.s:1503   .text.mc_interface_get_last_inj_adc_isr_duration:000000000000001c $d
/var/folders/47/g7cdn6zj55s1hhv4njp6x8_h0000gn/T//cc224n80.s:1509   .text.mc_interface_read_reset_avg_motor_current:0000000000000000 $t
/var/folders/47/g7cdn6zj55s1hhv4njp6x8_h0000gn/T//cc224n80.s:1515   .text.mc_interface_read_reset_avg_motor_current:0000000000000000 mc_interface_read_reset_avg_motor_current
/var/folders/47/g7cdn6zj55s1hhv4njp6x8_h0000gn/T//cc224n80.s:1541   .text.mc_interface_read_reset_avg_motor_current:0000000000000018 $d
/var/folders/47/g7cdn6zj55s1hhv4njp6x8_h0000gn/T//cc224n80.s:1547   .text.mc_interface_read_reset_avg_input_current:0000000000000000 $t
/var/folders/47/g7cdn6zj55s1hhv4njp6x8_h0000gn/T//cc224n80.s:1553   .text.mc_interface_read_reset_avg_input_current:0000000000000000 mc_interface_read_reset_avg_input_current
/var/folders/47/g7cdn6zj55s1hhv4njp6x8_h0000gn/T//cc224n80.s:1579   .text.mc_interface_read_reset_avg_input_current:0000000000000018 $d
/var/folders/47/g7cdn6zj55s1hhv4njp6x8_h0000gn/T//cc224n80.s:1585   .text.mc_interface_get_pid_pos_set:0000000000000000 $t
/var/folders/47/g7cdn6zj55s1hhv4njp6x8_h0000gn/T//cc224n80.s:1591   .text.mc_interface_get_pid_pos_set:0000000000000000 mc_interface_get_pid_pos_set
/var/folders/47/g7cdn6zj55s1hhv4njp6x8_h0000gn/T//cc224n80.s:1606   .text.mc_interface_get_pid_pos_set:0000000000000008 $d
/var/folders/47/g7cdn6zj55s1hhv4njp6x8_h0000gn/T//cc224n80.s:1611   .text.mc_interface_get_pid_pos_now:0000000000000000 $t
/var/folders/47/g7cdn6zj55s1hhv4njp6x8_h0000gn/T//cc224n80.s:1617   .text.mc_interface_get_pid_pos_now:0000000000000000 mc_interface_get_pid_pos_now
/var/folders/47/g7cdn6zj55s1hhv4njp6x8_h0000gn/T//cc224n80.s:1647   .text.mc_interface_get_pid_pos_now:000000000000001c $d
/var/folders/47/g7cdn6zj55s1hhv4njp6x8_h0000gn/T//cc224n80.s:1653   .text.mc_interface_get_last_sample_adc_isr_duration:0000000000000000 $t
/var/folders/47/g7cdn6zj55s1hhv4njp6x8_h0000gn/T//cc224n80.s:1659   .text.mc_interface_get_last_sample_adc_isr_duration:0000000000000000 mc_interface_get_last_sample_adc_isr_duration
/var/folders/47/g7cdn6zj55s1hhv4njp6x8_h0000gn/T//cc224n80.s:1674   .text.mc_interface_get_last_sample_adc_isr_duration:0000000000000008 $d
/var/folders/47/g7cdn6zj55s1hhv4njp6x8_h0000gn/T//cc224n80.s:1679   .text.mc_interface_sample_print_data:0000000000000000 $t
/var/folders/47/g7cdn6zj55s1hhv4njp6x8_h0000gn/T//cc224n80.s:1685   .text.mc_interface_sample_print_data:0000000000000000 mc_interface_sample_print_data
/var/folders/47/g7cdn6zj55s1hhv4njp6x8_h0000gn/T//cc224n80.s:1735   .text.mc_interface_sample_print_data:0000000000000030 $d
/var/folders/47/g7cdn6zj55s1hhv4njp6x8_h0000gn/T//cc224n80.s:1745   .text.mc_interface_try_input:0000000000000000 $t
/var/folders/47/g7cdn6zj55s1hhv4njp6x8_h0000gn/T//cc224n80.s:1751   .text.mc_interface_try_input:0000000000000000 mc_interface_try_input
/var/folders/47/g7cdn6zj55s1hhv4njp6x8_h0000gn/T//cc224n80.s:1804   .text.mc_interface_try_input:0000000000000034 $d
/var/folders/47/g7cdn6zj55s1hhv4njp6x8_h0000gn/T//cc224n80.s:1811   .text.mc_interface_set_duty:0000000000000000 $t
/var/folders/47/g7cdn6zj55s1hhv4njp6x8_h0000gn/T//cc224n80.s:1817   .text.mc_interface_set_duty:0000000000000000 mc_interface_set_duty
/var/folders/47/g7cdn6zj55s1hhv4njp6x8_h0000gn/T//cc224n80.s:1908   .text.mc_interface_set_duty:0000000000000044 $d
ARM GAS  /var/folders/47/g7cdn6zj55s1hhv4njp6x8_h0000gn/T//cc224n80.s 			page 258


/var/folders/47/g7cdn6zj55s1hhv4njp6x8_h0000gn/T//cc224n80.s:1915   .text.mc_interface_brake_now:0000000000000000 $t
/var/folders/47/g7cdn6zj55s1hhv4njp6x8_h0000gn/T//cc224n80.s:1921   .text.mc_interface_brake_now:0000000000000000 mc_interface_brake_now
/var/folders/47/g7cdn6zj55s1hhv4njp6x8_h0000gn/T//cc224n80.s:1935   .text.mc_interface_brake_now:0000000000000008 $d
/var/folders/47/g7cdn6zj55s1hhv4njp6x8_h0000gn/T//cc224n80.s:1940   .text.mc_interface_set_duty_noramp:0000000000000000 $t
/var/folders/47/g7cdn6zj55s1hhv4njp6x8_h0000gn/T//cc224n80.s:1946   .text.mc_interface_set_duty_noramp:0000000000000000 mc_interface_set_duty_noramp
/var/folders/47/g7cdn6zj55s1hhv4njp6x8_h0000gn/T//cc224n80.s:2022   .text.mc_interface_set_duty_noramp:0000000000000044 $d
/var/folders/47/g7cdn6zj55s1hhv4njp6x8_h0000gn/T//cc224n80.s:2027   .text.mc_interface_set_pid_speed:0000000000000000 $t
/var/folders/47/g7cdn6zj55s1hhv4njp6x8_h0000gn/T//cc224n80.s:2033   .text.mc_interface_set_pid_speed:0000000000000000 mc_interface_set_pid_speed
/var/folders/47/g7cdn6zj55s1hhv4njp6x8_h0000gn/T//cc224n80.s:2109   .text.mc_interface_set_pid_speed:0000000000000044 $d
/var/folders/47/g7cdn6zj55s1hhv4njp6x8_h0000gn/T//cc224n80.s:2114   .text.mc_interface_set_pid_pos:0000000000000000 $t
/var/folders/47/g7cdn6zj55s1hhv4njp6x8_h0000gn/T//cc224n80.s:2120   .text.mc_interface_set_pid_pos:0000000000000000 mc_interface_set_pid_pos
/var/folders/47/g7cdn6zj55s1hhv4njp6x8_h0000gn/T//cc224n80.s:2201   .text.mc_interface_set_pid_pos:000000000000004c $d
/var/folders/47/g7cdn6zj55s1hhv4njp6x8_h0000gn/T//cc224n80.s:2207   .text.mc_interface_set_current:0000000000000000 $t
/var/folders/47/g7cdn6zj55s1hhv4njp6x8_h0000gn/T//cc224n80.s:2213   .text.mc_interface_set_current:0000000000000000 mc_interface_set_current
/var/folders/47/g7cdn6zj55s1hhv4njp6x8_h0000gn/T//cc224n80.s:2304   .text.mc_interface_set_current:0000000000000044 $d
/var/folders/47/g7cdn6zj55s1hhv4njp6x8_h0000gn/T//cc224n80.s:2311   .text.mc_interface_release_motor:0000000000000000 $t
/var/folders/47/g7cdn6zj55s1hhv4njp6x8_h0000gn/T//cc224n80.s:2317   .text.mc_interface_release_motor:0000000000000000 mc_interface_release_motor
/var/folders/47/g7cdn6zj55s1hhv4njp6x8_h0000gn/T//cc224n80.s:2331   .text.mc_interface_release_motor:0000000000000008 $d
/var/folders/47/g7cdn6zj55s1hhv4njp6x8_h0000gn/T//cc224n80.s:2336   .text.mc_interface_set_brake_current:0000000000000000 $t
/var/folders/47/g7cdn6zj55s1hhv4njp6x8_h0000gn/T//cc224n80.s:2342   .text.mc_interface_set_brake_current:0000000000000000 mc_interface_set_brake_current
/var/folders/47/g7cdn6zj55s1hhv4njp6x8_h0000gn/T//cc224n80.s:2418   .text.mc_interface_set_brake_current:0000000000000044 $d
/var/folders/47/g7cdn6zj55s1hhv4njp6x8_h0000gn/T//cc224n80.s:2423   .text.mc_interface_fault_stop:0000000000000000 $t
/var/folders/47/g7cdn6zj55s1hhv4njp6x8_h0000gn/T//cc224n80.s:2429   .text.mc_interface_fault_stop:0000000000000000 mc_interface_fault_stop
/var/folders/47/g7cdn6zj55s1hhv4njp6x8_h0000gn/T//cc224n80.s:2639   .text.mc_interface_fault_stop:000000000000010c $d
/var/folders/47/g7cdn6zj55s1hhv4njp6x8_h0000gn/T//cc224n80.s:2658   .text.update_override_limits.constprop.3:0000000000000000 $t
/var/folders/47/g7cdn6zj55s1hhv4njp6x8_h0000gn/T//cc224n80.s:2663   .text.update_override_limits.constprop.3:0000000000000000 update_override_limits.constprop.3
/var/folders/47/g7cdn6zj55s1hhv4njp6x8_h0000gn/T//cc224n80.s:2901   .text.update_override_limits.constprop.3:00000000000001a0 $d
/var/folders/47/g7cdn6zj55s1hhv4njp6x8_h0000gn/T//cc224n80.s:2915   .text.mc_interface_set_configuration:0000000000000000 $t
/var/folders/47/g7cdn6zj55s1hhv4njp6x8_h0000gn/T//cc224n80.s:2921   .text.mc_interface_set_configuration:0000000000000000 mc_interface_set_configuration
/var/folders/47/g7cdn6zj55s1hhv4njp6x8_h0000gn/T//cc224n80.s:3086   .text.mc_interface_set_configuration:00000000000000cc $d
/var/folders/47/g7cdn6zj55s1hhv4njp6x8_h0000gn/T//cc224n80.s:3091   .text.timer_thread:0000000000000000 $t
/var/folders/47/g7cdn6zj55s1hhv4njp6x8_h0000gn/T//cc224n80.s:3178   .text.timer_thread:000000000000004c $d
/var/folders/47/g7cdn6zj55s1hhv4njp6x8_h0000gn/T//cc224n80.s:3187   .text.mc_interface_mc_timer_isr:0000000000000000 $t
/var/folders/47/g7cdn6zj55s1hhv4njp6x8_h0000gn/T//cc224n80.s:3193   .text.mc_interface_mc_timer_isr:0000000000000000 mc_interface_mc_timer_isr
/var/folders/47/g7cdn6zj55s1hhv4njp6x8_h0000gn/T//cc224n80.s:3694   .text.mc_interface_mc_timer_isr:000000000000030c $d
/var/folders/47/g7cdn6zj55s1hhv4njp6x8_h0000gn/T//cc224n80.s:3734   .text.mc_interface_mc_timer_isr:000000000000039c $t
/var/folders/47/g7cdn6zj55s1hhv4njp6x8_h0000gn/T//cc224n80.s:3870   .text.mc_interface_mc_timer_isr:0000000000000474 $d
/var/folders/47/g7cdn6zj55s1hhv4njp6x8_h0000gn/T//cc224n80.s:3886   .text.mc_interface_adc_inj_int_handler:0000000000000000 $t
/var/folders/47/g7cdn6zj55s1hhv4njp6x8_h0000gn/T//cc224n80.s:3892   .text.mc_interface_adc_inj_int_handler:0000000000000000 mc_interface_adc_inj_int_handler
/var/folders/47/g7cdn6zj55s1hhv4njp6x8_h0000gn/T//cc224n80.s:3919   .text.mc_interface_adc_inj_int_handler:0000000000000018 $d
/var/folders/47/g7cdn6zj55s1hhv4njp6x8_h0000gn/T//cc224n80.s:3965   .bss.ADC_curr_norm_value:0000000000000000 ADC_curr_norm_value
/var/folders/47/g7cdn6zj55s1hhv4njp6x8_h0000gn/T//cc224n80.s:3992   .bss.ADC_Value:0000000000000000 ADC_Value
/var/folders/47/g7cdn6zj55s1hhv4njp6x8_h0000gn/T//cc224n80.s:3926   .bss.m_ignore_iterations:0000000000000000 $d
/var/folders/47/g7cdn6zj55s1hhv4njp6x8_h0000gn/T//cc224n80.s:3930   .bss.m_ignore_iterations:0000000000000000 m_ignore_iterations
/var/folders/47/g7cdn6zj55s1hhv4njp6x8_h0000gn/T//cc224n80.s:3933   .bss.curr_diff_samples.10495:0000000000000000 $d
/var/folders/47/g7cdn6zj55s1hhv4njp6x8_h0000gn/T//cc224n80.s:3937   .bss.curr_diff_samples.10495:0000000000000000 curr_diff_samples.10495
/var/folders/47/g7cdn6zj55s1hhv4njp6x8_h0000gn/T//cc224n80.s:3940   .bss.m_f_sw_samples:0000000000000000 $d
/var/folders/47/g7cdn6zj55s1hhv4njp6x8_h0000gn/T//cc224n80.s:3944   .bss.m_f_sw_samples:0000000000000000 m_f_sw_samples
/var/folders/47/g7cdn6zj55s1hhv4njp6x8_h0000gn/T//cc224n80.s:3947   .bss.m_sample_int:0000000000000000 $d
/var/folders/47/g7cdn6zj55s1hhv4njp6x8_h0000gn/T//cc224n80.s:3951   .bss.m_sample_int:0000000000000000 m_sample_int
/var/folders/47/g7cdn6zj55s1hhv4njp6x8_h0000gn/T//cc224n80.s:3954   .bss.m_watt_seconds_charged:0000000000000000 $d
/var/folders/47/g7cdn6zj55s1hhv4njp6x8_h0000gn/T//cc224n80.s:3958   .bss.m_watt_seconds_charged:0000000000000000 m_watt_seconds_charged
/var/folders/47/g7cdn6zj55s1hhv4njp6x8_h0000gn/T//cc224n80.s:3961   .bss.ADC_curr_norm_value:0000000000000000 $d
/var/folders/47/g7cdn6zj55s1hhv4njp6x8_h0000gn/T//cc224n80.s:3968   .bss.m_position_set:0000000000000000 $d
/var/folders/47/g7cdn6zj55s1hhv4njp6x8_h0000gn/T//cc224n80.s:3972   .bss.m_position_set:0000000000000000 m_position_set
/var/folders/47/g7cdn6zj55s1hhv4njp6x8_h0000gn/T//cc224n80.s:3978   .bss.m_lock_override_once:0000000000000000 m_lock_override_once
/var/folders/47/g7cdn6zj55s1hhv4njp6x8_h0000gn/T//cc224n80.s:3979   .bss.m_lock_override_once:0000000000000000 $d
ARM GAS  /var/folders/47/g7cdn6zj55s1hhv4njp6x8_h0000gn/T//cc224n80.s 			page 259


/var/folders/47/g7cdn6zj55s1hhv4njp6x8_h0000gn/T//cc224n80.s:3981   .bss.m_ph1_samples:0000000000000000 $d
/var/folders/47/g7cdn6zj55s1hhv4njp6x8_h0000gn/T//cc224n80.s:3985   .bss.m_ph1_samples:0000000000000000 m_ph1_samples
/var/folders/47/g7cdn6zj55s1hhv4njp6x8_h0000gn/T//cc224n80.s:3988   .bss.ADC_Value:0000000000000000 $d
/var/folders/47/g7cdn6zj55s1hhv4njp6x8_h0000gn/T//cc224n80.s:3995   .bss.m_motor_current_iterations:0000000000000000 $d
/var/folders/47/g7cdn6zj55s1hhv4njp6x8_h0000gn/T//cc224n80.s:3999   .bss.m_motor_current_iterations:0000000000000000 m_motor_current_iterations
/var/folders/47/g7cdn6zj55s1hhv4njp6x8_h0000gn/T//cc224n80.s:4002   .bss.m_last_adc_duration_sample:0000000000000000 $d
/var/folders/47/g7cdn6zj55s1hhv4njp6x8_h0000gn/T//cc224n80.s:4006   .bss.m_last_adc_duration_sample:0000000000000000 m_last_adc_duration_sample
/var/folders/47/g7cdn6zj55s1hhv4njp6x8_h0000gn/T//cc224n80.s:4009   .bss.a.10496:0000000000000000 $d
/var/folders/47/g7cdn6zj55s1hhv4njp6x8_h0000gn/T//cc224n80.s:4013   .bss.a.10496:0000000000000000 a.10496
/var/folders/47/g7cdn6zj55s1hhv4njp6x8_h0000gn/T//cc224n80.s:4016   .bss.m_amp_seconds_charged:0000000000000000 $d
/var/folders/47/g7cdn6zj55s1hhv4njp6x8_h0000gn/T//cc224n80.s:4020   .bss.m_amp_seconds_charged:0000000000000000 m_amp_seconds_charged
/var/folders/47/g7cdn6zj55s1hhv4njp6x8_h0000gn/T//cc224n80.s:4023   .bss.pwn_done_func:0000000000000000 $d
/var/folders/47/g7cdn6zj55s1hhv4njp6x8_h0000gn/T//cc224n80.s:4027   .bss.pwn_done_func:0000000000000000 pwn_done_func
/var/folders/47/g7cdn6zj55s1hhv4njp6x8_h0000gn/T//cc224n80.s:4030   .bss.m_input_current_sum:0000000000000000 $d
/var/folders/47/g7cdn6zj55s1hhv4njp6x8_h0000gn/T//cc224n80.s:4034   .bss.m_input_current_sum:0000000000000000 m_input_current_sum
/var/folders/47/g7cdn6zj55s1hhv4njp6x8_h0000gn/T//cc224n80.s:4037   .bss.m_vzero_samples:0000000000000000 $d
/var/folders/47/g7cdn6zj55s1hhv4njp6x8_h0000gn/T//cc224n80.s:4041   .bss.m_vzero_samples:0000000000000000 m_vzero_samples
/var/folders/47/g7cdn6zj55s1hhv4njp6x8_h0000gn/T//cc224n80.s:4044   .bss.m_sample_len:0000000000000000 $d
/var/folders/47/g7cdn6zj55s1hhv4njp6x8_h0000gn/T//cc224n80.s:4048   .bss.m_sample_len:0000000000000000 m_sample_len
/var/folders/47/g7cdn6zj55s1hhv4njp6x8_h0000gn/T//cc224n80.s:4051   .bss.m_conf:0000000000000000 $d
/var/folders/47/g7cdn6zj55s1hhv4njp6x8_h0000gn/T//cc224n80.s:4055   .bss.m_conf:0000000000000000 m_conf
/var/folders/47/g7cdn6zj55s1hhv4njp6x8_h0000gn/T//cc224n80.s:4061   .bss.m_fault_now:0000000000000000 m_fault_now
/var/folders/47/g7cdn6zj55s1hhv4njp6x8_h0000gn/T//cc224n80.s:4062   .bss.m_fault_now:0000000000000000 $d
/var/folders/47/g7cdn6zj55s1hhv4njp6x8_h0000gn/T//cc224n80.s:4064   .bss.curr_diff_sum.10494:0000000000000000 $d
/var/folders/47/g7cdn6zj55s1hhv4njp6x8_h0000gn/T//cc224n80.s:4068   .bss.curr_diff_sum.10494:0000000000000000 curr_diff_sum.10494
/var/folders/47/g7cdn6zj55s1hhv4njp6x8_h0000gn/T//cc224n80.s:4071   .bss.m_curr0_samples:0000000000000000 $d
/var/folders/47/g7cdn6zj55s1hhv4njp6x8_h0000gn/T//cc224n80.s:4075   .bss.m_curr0_samples:0000000000000000 m_curr0_samples
/var/folders/47/g7cdn6zj55s1hhv4njp6x8_h0000gn/T//cc224n80.s:4078   .bss.sample_send_tp:0000000000000000 $d
/var/folders/47/g7cdn6zj55s1hhv4njp6x8_h0000gn/T//cc224n80.s:4082   .bss.sample_send_tp:0000000000000000 sample_send_tp
/var/folders/47/g7cdn6zj55s1hhv4njp6x8_h0000gn/T//cc224n80.s:4085   .rodata.str1.4:0000000000000000 $d
/var/folders/47/g7cdn6zj55s1hhv4njp6x8_h0000gn/T//cc224n80.s:4113   .bss.m_cycles_running:0000000000000000 $d
/var/folders/47/g7cdn6zj55s1hhv4njp6x8_h0000gn/T//cc224n80.s:4117   .bss.m_cycles_running:0000000000000000 m_cycles_running
/var/folders/47/g7cdn6zj55s1hhv4njp6x8_h0000gn/T//cc224n80.s:4120   .bss.m_sample_ready:0000000000000000 $d
/var/folders/47/g7cdn6zj55s1hhv4njp6x8_h0000gn/T//cc224n80.s:4124   .bss.m_sample_ready:0000000000000000 m_sample_ready
/var/folders/47/g7cdn6zj55s1hhv4njp6x8_h0000gn/T//cc224n80.s:4127   .bss.m_ph2_samples:0000000000000000 $d
/var/folders/47/g7cdn6zj55s1hhv4njp6x8_h0000gn/T//cc224n80.s:4131   .bss.m_ph2_samples:0000000000000000 m_ph2_samples
/var/folders/47/g7cdn6zj55s1hhv4njp6x8_h0000gn/T//cc224n80.s:4134   .bss.m_motor_current_sum:0000000000000000 $d
/var/folders/47/g7cdn6zj55s1hhv4njp6x8_h0000gn/T//cc224n80.s:4138   .bss.m_motor_current_sum:0000000000000000 m_motor_current_sum
/var/folders/47/g7cdn6zj55s1hhv4njp6x8_h0000gn/T//cc224n80.s:4141   .bss.m_input_current_iterations:0000000000000000 $d
/var/folders/47/g7cdn6zj55s1hhv4njp6x8_h0000gn/T//cc224n80.s:4145   .bss.m_input_current_iterations:0000000000000000 m_input_current_iterations
/var/folders/47/g7cdn6zj55s1hhv4njp6x8_h0000gn/T//cc224n80.s:4148   .bss.m_amp_seconds:0000000000000000 $d
/var/folders/47/g7cdn6zj55s1hhv4njp6x8_h0000gn/T//cc224n80.s:4152   .bss.m_amp_seconds:0000000000000000 m_amp_seconds
/var/folders/47/g7cdn6zj55s1hhv4njp6x8_h0000gn/T//cc224n80.s:4155   .bss.sample_send_thread_wa:0000000000000000 $d
/var/folders/47/g7cdn6zj55s1hhv4njp6x8_h0000gn/T//cc224n80.s:4159   .bss.sample_send_thread_wa:0000000000000000 sample_send_thread_wa
/var/folders/47/g7cdn6zj55s1hhv4njp6x8_h0000gn/T//cc224n80.s:4162   .bss.m_curr_fir_samples:0000000000000000 $d
/var/folders/47/g7cdn6zj55s1hhv4njp6x8_h0000gn/T//cc224n80.s:4166   .bss.m_curr_fir_samples:0000000000000000 m_curr_fir_samples
/var/folders/47/g7cdn6zj55s1hhv4njp6x8_h0000gn/T//cc224n80.s:4169   .bss.m_sample_now:0000000000000000 $d
/var/folders/47/g7cdn6zj55s1hhv4njp6x8_h0000gn/T//cc224n80.s:4173   .bss.m_sample_now:0000000000000000 m_sample_now
/var/folders/47/g7cdn6zj55s1hhv4njp6x8_h0000gn/T//cc224n80.s:4176   .bss.m_status_samples:0000000000000000 $d
/var/folders/47/g7cdn6zj55s1hhv4njp6x8_h0000gn/T//cc224n80.s:4180   .bss.m_status_samples:0000000000000000 m_status_samples
/var/folders/47/g7cdn6zj55s1hhv4njp6x8_h0000gn/T//cc224n80.s:4186   .bss.m_lock_enabled:0000000000000000 m_lock_enabled
/var/folders/47/g7cdn6zj55s1hhv4njp6x8_h0000gn/T//cc224n80.s:4187   .bss.m_lock_enabled:0000000000000000 $d
/var/folders/47/g7cdn6zj55s1hhv4njp6x8_h0000gn/T//cc224n80.s:4189   .bss.m_start_comm:0000000000000000 $d
/var/folders/47/g7cdn6zj55s1hhv4njp6x8_h0000gn/T//cc224n80.s:4193   .bss.m_start_comm:0000000000000000 m_start_comm
/var/folders/47/g7cdn6zj55s1hhv4njp6x8_h0000gn/T//cc224n80.s:4196   .bss.m_watt_seconds:0000000000000000 $d
/var/folders/47/g7cdn6zj55s1hhv4njp6x8_h0000gn/T//cc224n80.s:4200   .bss.m_watt_seconds:0000000000000000 m_watt_seconds
/var/folders/47/g7cdn6zj55s1hhv4njp6x8_h0000gn/T//cc224n80.s:4203   .bss.m_curr1_samples:0000000000000000 $d
ARM GAS  /var/folders/47/g7cdn6zj55s1hhv4njp6x8_h0000gn/T//cc224n80.s 			page 260


/var/folders/47/g7cdn6zj55s1hhv4njp6x8_h0000gn/T//cc224n80.s:4207   .bss.m_curr1_samples:0000000000000000 m_curr1_samples
/var/folders/47/g7cdn6zj55s1hhv4njp6x8_h0000gn/T//cc224n80.s:4210   .bss.m_sample_at_start:0000000000000000 $d
/var/folders/47/g7cdn6zj55s1hhv4njp6x8_h0000gn/T//cc224n80.s:4214   .bss.m_sample_at_start:0000000000000000 m_sample_at_start
/var/folders/47/g7cdn6zj55s1hhv4njp6x8_h0000gn/T//cc224n80.s:4217   .rodata.CSWTCH.124:0000000000000000 $d
/var/folders/47/g7cdn6zj55s1hhv4njp6x8_h0000gn/T//cc224n80.s:4221   .rodata.CSWTCH.124:0000000000000000 CSWTCH.124
/var/folders/47/g7cdn6zj55s1hhv4njp6x8_h0000gn/T//cc224n80.s:4230   .bss.timer_thread_wa:0000000000000000 $d
/var/folders/47/g7cdn6zj55s1hhv4njp6x8_h0000gn/T//cc224n80.s:4234   .bss.timer_thread_wa:0000000000000000 timer_thread_wa
/var/folders/47/g7cdn6zj55s1hhv4njp6x8_h0000gn/T//cc224n80.s:4237   .bss.wrong_voltage_iterations.10488:0000000000000000 $d
/var/folders/47/g7cdn6zj55s1hhv4njp6x8_h0000gn/T//cc224n80.s:4241   .bss.wrong_voltage_iterations.10488:0000000000000000 wrong_voltage_iterations.10488
/var/folders/47/g7cdn6zj55s1hhv4njp6x8_h0000gn/T//cc224n80.s:4244   .bss.m_ph3_samples:0000000000000000 $d
/var/folders/47/g7cdn6zj55s1hhv4njp6x8_h0000gn/T//cc224n80.s:4248   .bss.m_ph3_samples:0000000000000000 m_ph3_samples
                     .debug_frame:0000000000000010 $d

UNDEFINED SYMBOLS
chEvtWaitAny
commands_send_samples
ch
memcpy
chThdCreateStatic
mcpwm_foc_init
encoder_init_as5047p_spi
mcpwm_init
encoder_init_abi
mcpwm_foc_is_dccal_done
mcpwm_is_dccal_done
mcpwm_foc_get_state
mcpwm_get_state
mcpwm_foc_set_position_pid_constants
mcpwm_foc_get_duty_cycle_set
mcpwm_get_duty_cycle_set
mcpwm_foc_get_duty_cycle_now
mcpwm_get_duty_cycle_now
mcpwm_foc_get_switching_frequency_now
mcpwm_get_switching_frequency_now
mcpwm_foc_get_rpm
mcpwm_get_rpm
mcpwm_foc_get_tot_current
mcpwm_get_tot_current
mcpwm_foc_get_tot_current_filtered
mcpwm_get_tot_current_filtered
mcpwm_foc_get_tot_current_directional
mcpwm_get_tot_current_directional
mcpwm_foc_get_tot_current_directional_filtered
mcpwm_get_tot_current_directional_filtered
mcpwm_foc_get_tot_current_in
mcpwm_get_tot_current_in
mcpwm_foc_get_tot_current_in_filtered
mcpwm_get_tot_current_in_filtered
mcpwm_foc_get_tachometer_value
mcpwm_get_tachometer_value
mcpwm_foc_get_tachometer_abs_value
mcpwm_get_tachometer_abs_value
mcpwm_foc_get_last_inj_adc_isr_duration
mcpwm_get_last_inj_adc_isr_duration
mcpwm_foc_get_pid_pos_now
encoder_read_deg
mcpwm_get_comm_step
ARM GAS  /var/folders/47/g7cdn6zj55s1hhv4njp6x8_h0000gn/T//cc224n80.s 			page 261


mcpwm_stop_pwm
mcpwm_foc_set_duty
mcpwm_set_duty
mcpwm_foc_set_duty_noramp
mcpwm_set_duty_noramp
mcpwm_foc_set_pid_speed
mcpwm_set_pid_speed
mcpwm_foc_set_pid_pos
mcpwm_set_pid_pos
mcpwm_foc_set_current
mcpwm_set_current
mcpwm_foc_set_brake_current
mcpwm_set_brake_current
mcpwm_foc_stop_pwm
logf
terminal_add_fault_data
utils_map
encoder_deinit
mcpwm_foc_set_configuration
mcpwm_set_configuration
mcpwm_foc_deinit
encoder_set_counts
mcpwm_deinit
chThdSleep
ledpwm_update_pwm
mcpwm_read_hall_phase
mcpwm_get_last_adc_isr_duration
mcpwm_foc_get_abs_motor_current
mcpwm_foc_get_abs_motor_current_filtered
mcpwm_vzero
chEvtSignalI
mcpwm_detect_currents
mcpwm_detect_currents_diff
mcpwm_detect_voltages
mcpwm_foc_adc_inj_int_handler
mcpwm_adc_inj_int_handler
