ARM GAS  /var/folders/47/g7cdn6zj55s1hhv4njp6x8_h0000gn/T//cc224n80.s 			page 1


   1              		.syntax unified
   2              		.cpu cortex-m4
   3              		.eabi_attribute 27, 1
   4              		.eabi_attribute 28, 1
   5              		.fpu fpv4-sp-d16
   6              		.eabi_attribute 20, 1
   7              		.eabi_attribute 21, 1
   8              		.eabi_attribute 23, 3
   9              		.eabi_attribute 24, 1
  10              		.eabi_attribute 25, 1
  11              		.eabi_attribute 26, 1
  12              		.eabi_attribute 30, 2
  13              		.eabi_attribute 34, 1
  14              		.eabi_attribute 18, 4
  15              		.thumb
  16              		.file	"mc_interface.c"
  17              		.text
  18              	.Ltext0:
  19              		.cfi_sections	.debug_frame
  20              		.section	.text.sample_send_thread,"ax",%progbits
  21              		.align	2
  22              		.p2align 4,,15
  23              		.thumb
  24              		.thumb_func
  25              		.type	sample_send_thread, %function
  26              	sample_send_thread:
  27              	.LFB305:
  28              		.file 1 "mc_interface.c"
  29              		.loc 1 1142 0
  30              		.cfi_startproc
  31              		@ args = 0, pretend = 0, frame = 32
  32              		@ frame_needed = 0, uses_anonymous_args = 0
  33              	.LVL0:
  34 0000 2DE9F04F 		push	{r4, r5, r6, r7, r8, r9, r10, fp, lr}
  35              		.cfi_def_cfa_offset 36
  36              		.cfi_offset 4, -36
  37              		.cfi_offset 5, -32
  38              		.cfi_offset 6, -28
  39              		.cfi_offset 7, -24
  40              		.cfi_offset 8, -20
  41              		.cfi_offset 9, -16
  42              		.cfi_offset 10, -12
  43              		.cfi_offset 11, -8
  44              		.cfi_offset 14, -4
  45              	.LBB65:
  46              	.LBB66:
  47              		.file 2 "ChibiOS_3.0.2/os/rt/include/chregistry.h"
  48              		.loc 2 135 0
  49 0004 3D4B     		ldr	r3, .L9
  50              	.LBE66:
  51              	.LBE65:
  52              		.loc 1 1147 0
  53 0006 3E4A     		ldr	r2, .L9+4
  54              	.LBB68:
  55              	.LBB67:
  56              		.loc 2 135 0
  57 0008 9B69     		ldr	r3, [r3, #24]
ARM GAS  /var/folders/47/g7cdn6zj55s1hhv4njp6x8_h0000gn/T//cc224n80.s 			page 2


  58 000a 3E49     		ldr	r1, .L9+8
  59 000c DFF810B1 		ldr	fp, .L9+36
  60 0010 DFF810A1 		ldr	r10, .L9+40
  61 0014 DFF81091 		ldr	r9, .L9+44
  62 0018 DFF81081 		ldr	r8, .L9+48
  63 001c 3A4F     		ldr	r7, .L9+12
  64 001e 3B4E     		ldr	r6, .L9+16
  65 0020 3B4D     		ldr	r5, .L9+20
  66 0022 3C4C     		ldr	r4, .L9+24
  67 0024 9961     		str	r1, [r3, #24]
  68              	.LBE67:
  69              	.LBE68:
  70              		.loc 1 1142 0
  71 0026 89B0     		sub	sp, sp, #36
  72              		.cfi_def_cfa_offset 72
  73              		.loc 1 1147 0
  74 0028 1360     		str	r3, [r2]
  75              	.LVL1:
  76              	.L3:
  77              		.loc 1 1150 0
  78 002a 0120     		movs	r0, #1
  79 002c FFF7FEFF 		bl	chEvtWaitAny
  80              	.LVL2:
  81              	.LBB69:
  82              		.loc 1 1152 0
  83 0030 394B     		ldr	r3, .L9+28
  84 0032 1B68     		ldr	r3, [r3]
  85 0034 002B     		cmp	r3, #0
  86 0036 F8DD     		ble	.L3
  87 0038 0023     		movs	r3, #0
  88              	.LVL3:
  89              	.L2:
  90              	.LBB70:
  91              		.loc 1 1156 0 discriminator 3
  92 003a 3BF81300 		ldrh	r0, [fp, r3, lsl #1]
  93              		.loc 1 1157 0 discriminator 3
  94 003e 3BF81320 		ldrh	r2, [fp, r3, lsl #1]
  95 0042 8DF80D20 		strb	r2, [sp, #13]
  96              		.loc 1 1158 0 discriminator 3
  97 0046 3AF81310 		ldrh	r1, [r10, r3, lsl #1]
  98              		.loc 1 1159 0 discriminator 3
  99 004a 3AF813E0 		ldrh	lr, [r10, r3, lsl #1]
 100              		.loc 1 1160 0 discriminator 3
 101 004e 39F81320 		ldrh	r2, [r9, r3, lsl #1]
 102              		.loc 1 1159 0 discriminator 3
 103 0052 8DF80FE0 		strb	lr, [sp, #15]
 104              		.loc 1 1161 0 discriminator 3
 105 0056 39F813E0 		ldrh	lr, [r9, r3, lsl #1]
 106 005a 8DF811E0 		strb	lr, [sp, #17]
 107              		.loc 1 1160 0 discriminator 3
 108 005e 42F30722 		sbfx	r2, r2, #8, #8
 109              		.loc 1 1162 0 discriminator 3
 110 0062 38F813E0 		ldrh	lr, [r8, r3, lsl #1]
 111              		.loc 1 1160 0 discriminator 3
 112 0066 8DF81020 		strb	r2, [sp, #16]
 113              		.loc 1 1168 0 discriminator 3
 114 006a 2C4A     		ldr	r2, .L9+32
ARM GAS  /var/folders/47/g7cdn6zj55s1hhv4njp6x8_h0000gn/T//cc224n80.s 			page 3


 115              		.loc 1 1163 0 discriminator 3
 116 006c 38F813C0 		ldrh	ip, [r8, r3, lsl #1]
 117 0070 8DF813C0 		strb	ip, [sp, #19]
 118              		.loc 1 1156 0 discriminator 3
 119 0074 40F30720 		sbfx	r0, r0, #8, #8
 120              		.loc 1 1158 0 discriminator 3
 121 0078 41F30721 		sbfx	r1, r1, #8, #8
 122              		.loc 1 1162 0 discriminator 3
 123 007c 4EF3072E 		sbfx	lr, lr, #8, #8
 124              		.loc 1 1156 0 discriminator 3
 125 0080 8DF80C00 		strb	r0, [sp, #12]
 126              	.LVL4:
 127              		.loc 1 1158 0 discriminator 3
 128 0084 8DF80E10 		strb	r1, [sp, #14]
 129              	.LVL5:
 130              		.loc 1 1164 0 discriminator 3
 131 0088 37F81300 		ldrh	r0, [r7, r3, lsl #1]
 132              		.loc 1 1162 0 discriminator 3
 133 008c 8DF812E0 		strb	lr, [sp, #18]
 134              	.LVL6:
 135              		.loc 1 1165 0 discriminator 3
 136 0090 37F81310 		ldrh	r1, [r7, r3, lsl #1]
 137              		.loc 1 1166 0 discriminator 3
 138 0094 36F813C0 		ldrh	ip, [r6, r3, lsl #1]
 139              		.loc 1 1167 0 discriminator 3
 140 0098 36F813E0 		ldrh	lr, [r6, r3, lsl #1]
 141              		.loc 1 1168 0 discriminator 3
 142 009c D25C     		ldrb	r2, [r2, r3]	@ zero_extendqisi2
 143              		.loc 1 1165 0 discriminator 3
 144 009e 8DF81510 		strb	r1, [sp, #21]
 145              		.loc 1 1168 0 discriminator 3
 146 00a2 8DF81820 		strb	r2, [sp, #24]
 147              		.loc 1 1169 0 discriminator 3
 148 00a6 35F81310 		ldrh	r1, [r5, r3, lsl #1]
 149              		.loc 1 1170 0 discriminator 3
 150 00aa 35F81320 		ldrh	r2, [r5, r3, lsl #1]
 151 00ae 8DF81A20 		strb	r2, [sp, #26]
 152              		.loc 1 1171 0 discriminator 3
 153 00b2 34F81320 		ldrh	r2, [r4, r3, lsl #1]
 154              		.loc 1 1167 0 discriminator 3
 155 00b6 8DF817E0 		strb	lr, [sp, #23]
 156              		.loc 1 1164 0 discriminator 3
 157 00ba 40F30720 		sbfx	r0, r0, #8, #8
 158              		.loc 1 1169 0 discriminator 3
 159 00be 41F30721 		sbfx	r1, r1, #8, #8
 160              		.loc 1 1172 0 discriminator 3
 161 00c2 34F813E0 		ldrh	lr, [r4, r3, lsl #1]
 162              		.loc 1 1164 0 discriminator 3
 163 00c6 8DF81400 		strb	r0, [sp, #20]
 164              	.LVL7:
 165              		.loc 1 1171 0 discriminator 3
 166 00ca 42F30722 		sbfx	r2, r2, #8, #8
 167              		.loc 1 1166 0 discriminator 3
 168 00ce 4CF3072C 		sbfx	ip, ip, #8, #8
 169              		.loc 1 1169 0 discriminator 3
 170 00d2 8DF81910 		strb	r1, [sp, #25]
 171              		.loc 1 1174 0 discriminator 3
ARM GAS  /var/folders/47/g7cdn6zj55s1hhv4njp6x8_h0000gn/T//cc224n80.s 			page 4


 172 00d6 03A8     		add	r0, sp, #12
 173 00d8 1121     		movs	r1, #17
 174              		.loc 1 1172 0 discriminator 3
 175 00da 0193     		str	r3, [sp, #4]
 176              		.loc 1 1166 0 discriminator 3
 177 00dc 8DF816C0 		strb	ip, [sp, #22]
 178              	.LVL8:
 179              		.loc 1 1171 0 discriminator 3
 180 00e0 8DF81B20 		strb	r2, [sp, #27]
 181              	.LVL9:
 182              		.loc 1 1172 0 discriminator 3
 183 00e4 8DF81CE0 		strb	lr, [sp, #28]
 184              		.loc 1 1174 0 discriminator 3
 185 00e8 FFF7FEFF 		bl	commands_send_samples
 186              	.LVL10:
 187              	.LBE70:
 188              		.loc 1 1152 0 discriminator 3
 189 00ec 0A4B     		ldr	r3, .L9+28
 190 00ee 1A68     		ldr	r2, [r3]
 191 00f0 019B     		ldr	r3, [sp, #4]
 192 00f2 0133     		adds	r3, r3, #1
 193              	.LVL11:
 194 00f4 9A42     		cmp	r2, r3
 195 00f6 A0DC     		bgt	.L2
 196 00f8 97E7     		b	.L3
 197              	.L10:
 198 00fa 00BF     		.align	2
 199              	.L9:
 200 00fc 00000000 		.word	ch
 201 0100 00000000 		.word	.LANCHOR0
 202 0104 00000000 		.word	.LC0
 203 0108 00000000 		.word	.LANCHOR6
 204 010c 00000000 		.word	.LANCHOR7
 205 0110 00000000 		.word	.LANCHOR9
 206 0114 00000000 		.word	.LANCHOR10
 207 0118 00000000 		.word	.LANCHOR1
 208 011c 00000000 		.word	.LANCHOR8
 209 0120 00000000 		.word	.LANCHOR2
 210 0124 00000000 		.word	.LANCHOR3
 211 0128 00000000 		.word	.LANCHOR4
 212 012c 00000000 		.word	.LANCHOR5
 213              	.LBE69:
 214              		.cfi_endproc
 215              	.LFE305:
 216              		.size	sample_send_thread, .-sample_send_thread
 217              		.section	.text.mc_interface_init,"ax",%progbits
 218              		.align	2
 219              		.p2align 4,,15
 220              		.global	mc_interface_init
 221              		.thumb
 222              		.thumb_func
 223              		.type	mc_interface_init, %function
 224              	mc_interface_init:
 225              	.LFB256:
 226              		.loc 1 92 0
 227              		.cfi_startproc
 228              		@ args = 0, pretend = 0, frame = 0
ARM GAS  /var/folders/47/g7cdn6zj55s1hhv4njp6x8_h0000gn/T//cc224n80.s 			page 5


 229              		@ frame_needed = 0, uses_anonymous_args = 0
 230              	.LVL12:
 231 0000 2DE9F04F 		push	{r4, r5, r6, r7, r8, r9, r10, fp, lr}
 232              		.cfi_def_cfa_offset 36
 233              		.cfi_offset 4, -36
 234              		.cfi_offset 5, -32
 235              		.cfi_offset 6, -28
 236              		.cfi_offset 7, -24
 237              		.cfi_offset 8, -20
 238              		.cfi_offset 9, -16
 239              		.cfi_offset 10, -12
 240              		.cfi_offset 11, -8
 241              		.cfi_offset 14, -4
 242              		.loc 1 93 0
 243 0004 424D     		ldr	r5, .L23
 244              		.loc 1 96 0
 245 0006 434E     		ldr	r6, .L23+4
 246              		.loc 1 99 0
 247 0008 DFF83CB1 		ldr	fp, .L23+56
 248              		.loc 1 100 0
 249 000c DFF83C91 		ldr	r9, .L23+60
 250              		.loc 1 103 0
 251 0010 DFF83CA1 		ldr	r10, .L23+64
 252              		.loc 1 104 0
 253 0014 DFF83C81 		ldr	r8, .L23+68
 254              		.loc 1 105 0
 255 0018 3F4F     		ldr	r7, .L23+8
 256              		.loc 1 92 0
 257 001a 83B0     		sub	sp, sp, #12
 258              		.cfi_def_cfa_offset 48
 259              		.loc 1 92 0
 260 001c 0146     		mov	r1, r0
 261              		.loc 1 93 0
 262 001e 4FF49A72 		mov	r2, #308
 263 0022 2846     		mov	r0, r5
 264              	.LVL13:
 265 0024 FFF7FEFF 		bl	memcpy
 266              	.LVL14:
 267              		.loc 1 94 0
 268 0028 0024     		movs	r4, #0
 269              		.loc 1 97 0
 270 002a 3C48     		ldr	r0, .L23+12
 271              		.loc 1 98 0
 272 002c 3C4A     		ldr	r2, .L23+16
 273              		.loc 1 101 0
 274 002e DFF828C1 		ldr	ip, .L23+72
 275              		.loc 1 102 0
 276 0032 DFF828E1 		ldr	lr, .L23+76
 277              		.loc 1 118 0
 278 0036 0094     		str	r4, [sp]
 279              		.loc 1 99 0
 280 0038 0023     		movs	r3, #0
 281              		.loc 1 96 0
 282 003a 3460     		str	r4, [r6]
 283              		.loc 1 106 0
 284 003c 3949     		ldr	r1, .L23+20
 285              		.loc 1 107 0
ARM GAS  /var/folders/47/g7cdn6zj55s1hhv4njp6x8_h0000gn/T//cc224n80.s 			page 6


 286 003e 3A4E     		ldr	r6, .L23+24
 287              		.loc 1 97 0
 288 0040 0470     		strb	r4, [r0]
 289              		.loc 1 98 0
 290 0042 1470     		strb	r4, [r2]
 291              		.loc 1 108 0
 292 0044 3948     		ldr	r0, .L23+28
 293              		.loc 1 99 0
 294 0046 CBF80030 		str	r3, [fp]	@ float
 295              		.loc 1 110 0
 296 004a 394A     		ldr	r2, .L23+32
 297              		.loc 1 100 0
 298 004c C9F80030 		str	r3, [r9]	@ float
 299              		.loc 1 111 0
 300 0050 DFF80CB1 		ldr	fp, .L23+80
 301              		.loc 1 101 0
 302 0054 CCF80030 		str	r3, [ip]	@ float
 303              		.loc 1 112 0
 304 0058 DFF80891 		ldr	r9, .L23+84
 305              		.loc 1 102 0
 306 005c CEF80030 		str	r3, [lr]	@ float
 307              		.loc 1 113 0
 308 0060 DFF804C1 		ldr	ip, .L23+88
 309              		.loc 1 103 0
 310 0064 CAF80030 		str	r3, [r10]	@ float
 311              		.loc 1 114 0
 312 0068 DFF800E1 		ldr	lr, .L23+92
 313              		.loc 1 104 0
 314 006c C8F80030 		str	r3, [r8]	@ float
 315              		.loc 1 94 0
 316 0070 DFF8FCA0 		ldr	r10, .L23+96
 317              		.loc 1 105 0
 318 0074 3B60     		str	r3, [r7]	@ float
 319              		.loc 1 95 0
 320 0076 DFF8FC80 		ldr	r8, .L23+100
 321              		.loc 1 115 0
 322 007a 2E4F     		ldr	r7, .L23+36
 323              		.loc 1 106 0
 324 007c 0B60     		str	r3, [r1]	@ float
 325              		.loc 1 107 0
 326 007e 3360     		str	r3, [r6]	@ float
 327              		.loc 1 110 0
 328 0080 4FF47A71 		mov	r1, #1000
 329              		.loc 1 111 0
 330 0084 0126     		movs	r6, #1
 331              		.loc 1 108 0
 332 0086 0360     		str	r3, [r0]	@ float
 333              		.loc 1 94 0
 334 0088 8AF80040 		strb	r4, [r10]
 335              		.loc 1 110 0
 336 008c 1160     		str	r1, [r2]
 337              		.loc 1 118 0
 338 008e 2A4B     		ldr	r3, .L23+40
 339              		.loc 1 111 0
 340 0090 CBF80060 		str	r6, [fp]
 341              		.loc 1 118 0
 342 0094 4FF4B361 		mov	r1, #1432
ARM GAS  /var/folders/47/g7cdn6zj55s1hhv4njp6x8_h0000gn/T//cc224n80.s 			page 7


 343              		.loc 1 112 0
 344 0098 C9F80060 		str	r6, [r9]
 345              		.loc 1 118 0
 346 009c 4022     		movs	r2, #64
 347              		.loc 1 113 0
 348 009e CCF80040 		str	r4, [ip]
 349              		.loc 1 118 0
 350 00a2 2648     		ldr	r0, .L23+44
 351              		.loc 1 114 0
 352 00a4 CEF80040 		str	r4, [lr]
 353              		.loc 1 95 0
 354 00a8 C8F80040 		str	r4, [r8]
 355              		.loc 1 115 0
 356 00ac 3C60     		str	r4, [r7]
 357              		.loc 1 118 0
 358 00ae FFF7FEFF 		bl	chThdCreateStatic
 359              	.LVL15:
 360              		.loc 1 119 0
 361 00b2 234B     		ldr	r3, .L23+48
 362 00b4 0094     		str	r4, [sp]
 363 00b6 2348     		ldr	r0, .L23+52
 364 00b8 4FF4B361 		mov	r1, #1432
 365 00bc 3F22     		movs	r2, #63
 366 00be FFF7FEFF 		bl	chThdCreateStatic
 367              	.LVL16:
 368              		.loc 1 123 0
 369 00c2 95F83031 		ldrb	r3, [r5, #304]	@ zero_extendqisi2
 370 00c6 DBB2     		uxtb	r3, r3
 371 00c8 B342     		cmp	r3, r6
 372 00ca 1CD0     		beq	.L13
 373 00cc 022B     		cmp	r3, #2
 374 00ce 0BD0     		beq	.L14
 375              	.L12:
 376              		.loc 1 138 0
 377 00d0 AB78     		ldrb	r3, [r5, #2]	@ zero_extendqisi2
 378 00d2 DBB2     		uxtb	r3, r3
 379 00d4 012B     		cmp	r3, #1
 380 00d6 0DD9     		bls	.L16
 381              	.L22:
 382 00d8 022B     		cmp	r3, #2
 383 00da 11D1     		bne	.L21
 384              		.loc 1 145 0
 385 00dc 0C48     		ldr	r0, .L23
 386              		.loc 1 151 0
 387 00de 03B0     		add	sp, sp, #12
 388              		.cfi_remember_state
 389              		.cfi_def_cfa_offset 36
 390              		@ sp needed
 391 00e0 BDE8F04F 		pop	{r4, r5, r6, r7, r8, r9, r10, fp, lr}
 392              		.cfi_restore 14
 393              		.cfi_restore 11
 394              		.cfi_restore 10
 395              		.cfi_restore 9
 396              		.cfi_restore 8
 397              		.cfi_restore 7
 398              		.cfi_restore 6
 399              		.cfi_restore 5
ARM GAS  /var/folders/47/g7cdn6zj55s1hhv4njp6x8_h0000gn/T//cc224n80.s 			page 8


 400              		.cfi_restore 4
 401              		.cfi_def_cfa_offset 0
 402              		.loc 1 145 0
 403 00e4 FFF7FEBF 		b	mcpwm_foc_init
 404              	.LVL17:
 405              	.L14:
 406              		.cfi_restore_state
 407              		.loc 1 129 0
 408 00e8 FFF7FEFF 		bl	encoder_init_as5047p_spi
 409              	.LVL18:
 410              		.loc 1 138 0
 411 00ec AB78     		ldrb	r3, [r5, #2]	@ zero_extendqisi2
 412 00ee DBB2     		uxtb	r3, r3
 413 00f0 012B     		cmp	r3, #1
 414 00f2 F1D8     		bhi	.L22
 415              	.L16:
 416              		.loc 1 141 0
 417 00f4 0648     		ldr	r0, .L23
 418              		.loc 1 151 0
 419 00f6 03B0     		add	sp, sp, #12
 420              		.cfi_remember_state
 421              		.cfi_def_cfa_offset 36
 422              		@ sp needed
 423 00f8 BDE8F04F 		pop	{r4, r5, r6, r7, r8, r9, r10, fp, lr}
 424              		.cfi_restore 14
 425              		.cfi_restore 11
 426              		.cfi_restore 10
 427              		.cfi_restore 9
 428              		.cfi_restore 8
 429              		.cfi_restore 7
 430              		.cfi_restore 6
 431              		.cfi_restore 5
 432              		.cfi_restore 4
 433              		.cfi_def_cfa_offset 0
 434              		.loc 1 141 0
 435 00fc FFF7FEBF 		b	mcpwm_init
 436              	.LVL19:
 437              	.L21:
 438              		.cfi_restore_state
 439              		.loc 1 151 0
 440 0100 03B0     		add	sp, sp, #12
 441              		.cfi_remember_state
 442              		.cfi_def_cfa_offset 36
 443              		@ sp needed
 444 0102 BDE8F08F 		pop	{r4, r5, r6, r7, r8, r9, r10, fp, pc}
 445              	.L13:
 446              		.cfi_restore_state
 447              		.loc 1 125 0
 448 0106 D5F82C01 		ldr	r0, [r5, #300]
 449 010a FFF7FEFF 		bl	encoder_init_abi
 450              	.LVL20:
 451              		.loc 1 126 0
 452 010e DFE7     		b	.L12
 453              	.L24:
 454              		.align	2
 455              	.L23:
 456 0110 00000000 		.word	.LANCHOR11
ARM GAS  /var/folders/47/g7cdn6zj55s1hhv4njp6x8_h0000gn/T//cc224n80.s 			page 9


 457 0114 00000000 		.word	.LANCHOR14
 458 0118 00000000 		.word	.LANCHOR23
 459 011c 00000000 		.word	.LANCHOR15
 460 0120 00000000 		.word	.LANCHOR16
 461 0124 00000000 		.word	.LANCHOR24
 462 0128 00000000 		.word	.LANCHOR25
 463 012c 00000000 		.word	.LANCHOR26
 464 0130 00000000 		.word	.LANCHOR1
 465 0134 00000000 		.word	.LANCHOR31
 466 0138 00000000 		.word	timer_thread
 467 013c 00000000 		.word	.LANCHOR32
 468 0140 00000000 		.word	sample_send_thread
 469 0144 00000000 		.word	.LANCHOR33
 470 0148 00000000 		.word	.LANCHOR17
 471 014c 00000000 		.word	.LANCHOR18
 472 0150 00000000 		.word	.LANCHOR21
 473 0154 00000000 		.word	.LANCHOR22
 474 0158 00000000 		.word	.LANCHOR19
 475 015c 00000000 		.word	.LANCHOR20
 476 0160 00000000 		.word	.LANCHOR27
 477 0164 00000000 		.word	.LANCHOR28
 478 0168 00000000 		.word	.LANCHOR29
 479 016c 00000000 		.word	.LANCHOR30
 480 0170 00000000 		.word	.LANCHOR12
 481 0174 00000000 		.word	.LANCHOR13
 482              		.cfi_endproc
 483              	.LFE256:
 484              		.size	mc_interface_init, .-mc_interface_init
 485              		.section	.text.mc_interface_get_configuration,"ax",%progbits
 486              		.align	2
 487              		.p2align 4,,15
 488              		.global	mc_interface_get_configuration
 489              		.thumb
 490              		.thumb_func
 491              		.type	mc_interface_get_configuration, %function
 492              	mc_interface_get_configuration:
 493              	.LFB257:
 494              		.loc 1 153 0
 495              		.cfi_startproc
 496              		@ args = 0, pretend = 0, frame = 0
 497              		@ frame_needed = 0, uses_anonymous_args = 0
 498              		@ link register save eliminated.
 499              		.loc 1 155 0
 500 0000 0048     		ldr	r0, .L26
 501 0002 7047     		bx	lr
 502              	.L27:
 503              		.align	2
 504              	.L26:
 505 0004 00000000 		.word	.LANCHOR11
 506              		.cfi_endproc
 507              	.LFE257:
 508              		.size	mc_interface_get_configuration, .-mc_interface_get_configuration
 509              		.section	.text.mc_interface_dccal_done,"ax",%progbits
 510              		.align	2
 511              		.p2align 4,,15
 512              		.global	mc_interface_dccal_done
 513              		.thumb
ARM GAS  /var/folders/47/g7cdn6zj55s1hhv4njp6x8_h0000gn/T//cc224n80.s 			page 10


 514              		.thumb_func
 515              		.type	mc_interface_dccal_done, %function
 516              	mc_interface_dccal_done:
 517              	.LFB259:
 518              		.loc 1 211 0
 519              		.cfi_startproc
 520              		@ args = 0, pretend = 0, frame = 0
 521              		@ frame_needed = 0, uses_anonymous_args = 0
 522              		@ link register save eliminated.
 523              	.LVL21:
 524              		.loc 1 213 0
 525 0000 064B     		ldr	r3, .L35
 526 0002 9B78     		ldrb	r3, [r3, #2]	@ zero_extendqisi2
 527 0004 DBB2     		uxtb	r3, r3
 528 0006 012B     		cmp	r3, #1
 529 0008 05D9     		bls	.L30
 530 000a 022B     		cmp	r3, #2
 531 000c 01D1     		bne	.L34
 532              		.loc 1 220 0
 533 000e FFF7FEBF 		b	mcpwm_foc_is_dccal_done
 534              	.LVL22:
 535              	.L34:
 536              		.loc 1 228 0
 537 0012 0020     		movs	r0, #0
 538 0014 7047     		bx	lr
 539              	.L30:
 540              		.loc 1 216 0
 541 0016 FFF7FEBF 		b	mcpwm_is_dccal_done
 542              	.LVL23:
 543              	.L36:
 544 001a 00BF     		.align	2
 545              	.L35:
 546 001c 00000000 		.word	.LANCHOR11
 547              		.cfi_endproc
 548              	.LFE259:
 549              		.size	mc_interface_dccal_done, .-mc_interface_dccal_done
 550              		.section	.text.mc_interface_set_pwm_callback,"ax",%progbits
 551              		.align	2
 552              		.p2align 4,,15
 553              		.global	mc_interface_set_pwm_callback
 554              		.thumb
 555              		.thumb_func
 556              		.type	mc_interface_set_pwm_callback, %function
 557              	mc_interface_set_pwm_callback:
 558              	.LFB260:
 559              		.loc 1 236 0
 560              		.cfi_startproc
 561              		@ args = 0, pretend = 0, frame = 0
 562              		@ frame_needed = 0, uses_anonymous_args = 0
 563              		@ link register save eliminated.
 564              	.LVL24:
 565              		.loc 1 237 0
 566 0000 014B     		ldr	r3, .L38
 567 0002 1860     		str	r0, [r3]
 568 0004 7047     		bx	lr
 569              	.L39:
 570 0006 00BF     		.align	2
ARM GAS  /var/folders/47/g7cdn6zj55s1hhv4njp6x8_h0000gn/T//cc224n80.s 			page 11


 571              	.L38:
 572 0008 00000000 		.word	.LANCHOR34
 573              		.cfi_endproc
 574              	.LFE260:
 575              		.size	mc_interface_set_pwm_callback, .-mc_interface_set_pwm_callback
 576              		.section	.text.mc_interface_lock,"ax",%progbits
 577              		.align	2
 578              		.p2align 4,,15
 579              		.global	mc_interface_lock
 580              		.thumb
 581              		.thumb_func
 582              		.type	mc_interface_lock, %function
 583              	mc_interface_lock:
 584              	.LFB261:
 585              		.loc 1 243 0
 586              		.cfi_startproc
 587              		@ args = 0, pretend = 0, frame = 0
 588              		@ frame_needed = 0, uses_anonymous_args = 0
 589              		@ link register save eliminated.
 590              		.loc 1 244 0
 591 0000 014B     		ldr	r3, .L41
 592 0002 0122     		movs	r2, #1
 593 0004 1A70     		strb	r2, [r3]
 594 0006 7047     		bx	lr
 595              	.L42:
 596              		.align	2
 597              	.L41:
 598 0008 00000000 		.word	.LANCHOR15
 599              		.cfi_endproc
 600              	.LFE261:
 601              		.size	mc_interface_lock, .-mc_interface_lock
 602              		.section	.text.mc_interface_unlock,"ax",%progbits
 603              		.align	2
 604              		.p2align 4,,15
 605              		.global	mc_interface_unlock
 606              		.thumb
 607              		.thumb_func
 608              		.type	mc_interface_unlock, %function
 609              	mc_interface_unlock:
 610              	.LFB262:
 611              		.loc 1 250 0
 612              		.cfi_startproc
 613              		@ args = 0, pretend = 0, frame = 0
 614              		@ frame_needed = 0, uses_anonymous_args = 0
 615              		@ link register save eliminated.
 616              		.loc 1 251 0
 617 0000 014B     		ldr	r3, .L44
 618 0002 0022     		movs	r2, #0
 619 0004 1A70     		strb	r2, [r3]
 620 0006 7047     		bx	lr
 621              	.L45:
 622              		.align	2
 623              	.L44:
 624 0008 00000000 		.word	.LANCHOR15
 625              		.cfi_endproc
 626              	.LFE262:
 627              		.size	mc_interface_unlock, .-mc_interface_unlock
ARM GAS  /var/folders/47/g7cdn6zj55s1hhv4njp6x8_h0000gn/T//cc224n80.s 			page 12


 628              		.section	.text.mc_interface_lock_override_once,"ax",%progbits
 629              		.align	2
 630              		.p2align 4,,15
 631              		.global	mc_interface_lock_override_once
 632              		.thumb
 633              		.thumb_func
 634              		.type	mc_interface_lock_override_once, %function
 635              	mc_interface_lock_override_once:
 636              	.LFB263:
 637              		.loc 1 257 0
 638              		.cfi_startproc
 639              		@ args = 0, pretend = 0, frame = 0
 640              		@ frame_needed = 0, uses_anonymous_args = 0
 641              		@ link register save eliminated.
 642              		.loc 1 258 0
 643 0000 014B     		ldr	r3, .L47
 644 0002 0122     		movs	r2, #1
 645 0004 1A70     		strb	r2, [r3]
 646 0006 7047     		bx	lr
 647              	.L48:
 648              		.align	2
 649              	.L47:
 650 0008 00000000 		.word	.LANCHOR16
 651              		.cfi_endproc
 652              	.LFE263:
 653              		.size	mc_interface_lock_override_once, .-mc_interface_lock_override_once
 654              		.section	.text.mc_interface_get_fault,"ax",%progbits
 655              		.align	2
 656              		.p2align 4,,15
 657              		.global	mc_interface_get_fault
 658              		.thumb
 659              		.thumb_func
 660              		.type	mc_interface_get_fault, %function
 661              	mc_interface_get_fault:
 662              	.LFB264:
 663              		.loc 1 261 0
 664              		.cfi_startproc
 665              		@ args = 0, pretend = 0, frame = 0
 666              		@ frame_needed = 0, uses_anonymous_args = 0
 667              		@ link register save eliminated.
 668              		.loc 1 262 0
 669 0000 014B     		ldr	r3, .L50
 670              		.loc 1 263 0
 671 0002 1878     		ldrb	r0, [r3]	@ zero_extendqisi2
 672 0004 7047     		bx	lr
 673              	.L51:
 674 0006 00BF     		.align	2
 675              	.L50:
 676 0008 00000000 		.word	.LANCHOR12
 677              		.cfi_endproc
 678              	.LFE264:
 679              		.size	mc_interface_get_fault, .-mc_interface_get_fault
 680              		.section	.text.mc_interface_fault_to_string,"ax",%progbits
 681              		.align	2
 682              		.p2align 4,,15
 683              		.global	mc_interface_fault_to_string
 684              		.thumb
ARM GAS  /var/folders/47/g7cdn6zj55s1hhv4njp6x8_h0000gn/T//cc224n80.s 			page 13


 685              		.thumb_func
 686              		.type	mc_interface_fault_to_string, %function
 687              	mc_interface_fault_to_string:
 688              	.LFB265:
 689              		.loc 1 265 0
 690              		.cfi_startproc
 691              		@ args = 0, pretend = 0, frame = 0
 692              		@ frame_needed = 0, uses_anonymous_args = 0
 693              		@ link register save eliminated.
 694              	.LVL25:
 695 0000 0628     		cmp	r0, #6
 696 0002 9ABF     		itte	ls
 697 0004 024B     		ldrls	r3, .L55
 698 0006 53F82000 		ldrls	r0, [r3, r0, lsl #2]
 699              	.LVL26:
 700              		.loc 1 265 0
 701 000a 0248     		ldrhi	r0, .L55+4
 702              		.loc 1 276 0
 703 000c 7047     		bx	lr
 704              	.L56:
 705 000e 00BF     		.align	2
 706              	.L55:
 707 0010 00000000 		.word	.LANCHOR35
 708 0014 10000000 		.word	.LC1
 709              		.cfi_endproc
 710              	.LFE265:
 711              		.size	mc_interface_fault_to_string, .-mc_interface_fault_to_string
 712              		.section	.text.mc_interface_get_state,"ax",%progbits
 713              		.align	2
 714              		.p2align 4,,15
 715              		.global	mc_interface_get_state
 716              		.thumb
 717              		.thumb_func
 718              		.type	mc_interface_get_state, %function
 719              	mc_interface_get_state:
 720              	.LFB266:
 721              		.loc 1 278 0
 722              		.cfi_startproc
 723              		@ args = 0, pretend = 0, frame = 0
 724              		@ frame_needed = 0, uses_anonymous_args = 0
 725              		@ link register save eliminated.
 726              	.LVL27:
 727              		.loc 1 280 0
 728 0000 064B     		ldr	r3, .L64
 729 0002 9B78     		ldrb	r3, [r3, #2]	@ zero_extendqisi2
 730 0004 DBB2     		uxtb	r3, r3
 731 0006 012B     		cmp	r3, #1
 732 0008 05D9     		bls	.L59
 733 000a 022B     		cmp	r3, #2
 734 000c 01D1     		bne	.L63
 735              		.loc 1 287 0
 736 000e FFF7FEBF 		b	mcpwm_foc_get_state
 737              	.LVL28:
 738              	.L63:
 739              		.loc 1 295 0
 740 0012 0020     		movs	r0, #0
 741 0014 7047     		bx	lr
ARM GAS  /var/folders/47/g7cdn6zj55s1hhv4njp6x8_h0000gn/T//cc224n80.s 			page 14


 742              	.L59:
 743              		.loc 1 283 0
 744 0016 FFF7FEBF 		b	mcpwm_get_state
 745              	.LVL29:
 746              	.L65:
 747 001a 00BF     		.align	2
 748              	.L64:
 749 001c 00000000 		.word	.LANCHOR11
 750              		.cfi_endproc
 751              	.LFE266:
 752              		.size	mc_interface_get_state, .-mc_interface_get_state
 753              		.section	.text.mc_interface_set_position_pid_constants,"ax",%progbits
 754              		.align	2
 755              		.p2align 4,,15
 756              		.global	mc_interface_set_position_pid_constants
 757              		.thumb
 758              		.thumb_func
 759              		.type	mc_interface_set_position_pid_constants, %function
 760              	mc_interface_set_position_pid_constants:
 761              	.LFB270:
 762              		.loc 1 359 0
 763              		.cfi_startproc
 764              		@ args = 0, pretend = 0, frame = 0
 765              		@ frame_needed = 0, uses_anonymous_args = 0
 766              		@ link register save eliminated.
 767              	.LVL30:
 768              		.loc 1 360 0
 769 0000 064B     		ldr	r3, .L71
 770 0002 9A78     		ldrb	r2, [r3, #2]	@ zero_extendqisi2
 771 0004 022A     		cmp	r2, #2
 772 0006 00D0     		beq	.L70
 773 0008 7047     		bx	lr
 774              	.L70:
 775              		.loc 1 366 0
 776 000a 83ED3F0A 		fsts	s0, [r3, #252]
 777              		.loc 1 367 0
 778 000e C3ED400A 		fsts	s1, [r3, #256]
 779              		.loc 1 368 0
 780 0012 83ED411A 		fsts	s2, [r3, #260]
 781              		.loc 1 370 0
 782 0016 FFF7FEBF 		b	mcpwm_foc_set_position_pid_constants
 783              	.LVL31:
 784              	.L72:
 785 001a 00BF     		.align	2
 786              	.L71:
 787 001c 00000000 		.word	.LANCHOR11
 788              		.cfi_endproc
 789              	.LFE270:
 790              		.size	mc_interface_set_position_pid_constants, .-mc_interface_set_position_pid_constants
 791              		.section	.text.mc_interface_get_duty_cycle_set,"ax",%progbits
 792              		.align	2
 793              		.p2align 4,,15
 794              		.global	mc_interface_get_duty_cycle_set
 795              		.thumb
 796              		.thumb_func
 797              		.type	mc_interface_get_duty_cycle_set, %function
 798              	mc_interface_get_duty_cycle_set:
ARM GAS  /var/folders/47/g7cdn6zj55s1hhv4njp6x8_h0000gn/T//cc224n80.s 			page 15


 799              	.LFB276:
 800              		.loc 1 451 0
 801              		.cfi_startproc
 802              		@ args = 0, pretend = 0, frame = 0
 803              		@ frame_needed = 0, uses_anonymous_args = 0
 804              		@ link register save eliminated.
 805              	.LVL32:
 806              		.loc 1 454 0
 807 0000 064B     		ldr	r3, .L80
 808 0002 9B78     		ldrb	r3, [r3, #2]	@ zero_extendqisi2
 809 0004 DBB2     		uxtb	r3, r3
 810 0006 012B     		cmp	r3, #1
 811 0008 06D9     		bls	.L75
 812 000a 022B     		cmp	r3, #2
 813 000c 01D1     		bne	.L79
 814              		.loc 1 461 0
 815 000e FFF7FEBF 		b	mcpwm_foc_get_duty_cycle_set
 816              	.LVL33:
 817              	.L79:
 818              		.loc 1 469 0
 819 0012 9FED030A 		flds	s0, .L80+4
 820 0016 7047     		bx	lr
 821              	.L75:
 822              		.loc 1 457 0
 823 0018 FFF7FEBF 		b	mcpwm_get_duty_cycle_set
 824              	.LVL34:
 825              	.L81:
 826              		.align	2
 827              	.L80:
 828 001c 00000000 		.word	.LANCHOR11
 829 0020 00000000 		.word	0
 830              		.cfi_endproc
 831              	.LFE276:
 832              		.size	mc_interface_get_duty_cycle_set, .-mc_interface_get_duty_cycle_set
 833              		.section	.text.mc_interface_get_duty_cycle_now,"ax",%progbits
 834              		.align	2
 835              		.p2align 4,,15
 836              		.global	mc_interface_get_duty_cycle_now
 837              		.thumb
 838              		.thumb_func
 839              		.type	mc_interface_get_duty_cycle_now, %function
 840              	mc_interface_get_duty_cycle_now:
 841              	.LFB277:
 842              		.loc 1 471 0
 843              		.cfi_startproc
 844              		@ args = 0, pretend = 0, frame = 0
 845              		@ frame_needed = 0, uses_anonymous_args = 0
 846              		@ link register save eliminated.
 847              	.LVL35:
 848              		.loc 1 474 0
 849 0000 064B     		ldr	r3, .L89
 850 0002 9B78     		ldrb	r3, [r3, #2]	@ zero_extendqisi2
 851 0004 DBB2     		uxtb	r3, r3
 852 0006 012B     		cmp	r3, #1
 853 0008 06D9     		bls	.L84
 854 000a 022B     		cmp	r3, #2
 855 000c 01D1     		bne	.L88
ARM GAS  /var/folders/47/g7cdn6zj55s1hhv4njp6x8_h0000gn/T//cc224n80.s 			page 16


 856              		.loc 1 481 0
 857 000e FFF7FEBF 		b	mcpwm_foc_get_duty_cycle_now
 858              	.LVL36:
 859              	.L88:
 860              		.loc 1 489 0
 861 0012 9FED030A 		flds	s0, .L89+4
 862 0016 7047     		bx	lr
 863              	.L84:
 864              		.loc 1 477 0
 865 0018 FFF7FEBF 		b	mcpwm_get_duty_cycle_now
 866              	.LVL37:
 867              	.L90:
 868              		.align	2
 869              	.L89:
 870 001c 00000000 		.word	.LANCHOR11
 871 0020 00000000 		.word	0
 872              		.cfi_endproc
 873              	.LFE277:
 874              		.size	mc_interface_get_duty_cycle_now, .-mc_interface_get_duty_cycle_now
 875              		.section	.text.mc_interface_get_sampling_frequency_now,"ax",%progbits
 876              		.align	2
 877              		.p2align 4,,15
 878              		.global	mc_interface_get_sampling_frequency_now
 879              		.thumb
 880              		.thumb_func
 881              		.type	mc_interface_get_sampling_frequency_now, %function
 882              	mc_interface_get_sampling_frequency_now:
 883              	.LFB278:
 884              		.loc 1 491 0
 885              		.cfi_startproc
 886              		@ args = 0, pretend = 0, frame = 0
 887              		@ frame_needed = 0, uses_anonymous_args = 0
 888              	.LVL38:
 889 0000 08B5     		push	{r3, lr}
 890              		.cfi_def_cfa_offset 8
 891              		.cfi_offset 3, -8
 892              		.cfi_offset 14, -4
 893              		.loc 1 494 0
 894 0002 0A4B     		ldr	r3, .L100
 895 0004 9B78     		ldrb	r3, [r3, #2]	@ zero_extendqisi2
 896 0006 DBB2     		uxtb	r3, r3
 897 0008 012B     		cmp	r3, #1
 898 000a 0BD9     		bls	.L93
 899 000c 022B     		cmp	r3, #2
 900 000e 06D1     		bne	.L99
 901              	.LBB73:
 902              	.LBB74:
 903              		.loc 1 501 0
 904 0010 FFF7FEFF 		bl	mcpwm_foc_get_switching_frequency_now
 905              	.LVL39:
 906 0014 F6EE007A 		fconsts	s15, #96
 907 0018 20EE270A 		fmuls	s0, s0, s15
 908              	.LVL40:
 909 001c 08BD     		pop	{r3, pc}
 910              	.LVL41:
 911              	.L99:
 912              	.LBE74:
ARM GAS  /var/folders/47/g7cdn6zj55s1hhv4njp6x8_h0000gn/T//cc224n80.s 			page 17


 913              	.LBE73:
 914              		.loc 1 492 0
 915 001e 9FED040A 		flds	s0, .L100+4
 916              	.LVL42:
 917              		.loc 1 509 0
 918 0022 08BD     		pop	{r3, pc}
 919              	.LVL43:
 920              	.L93:
 921 0024 BDE80840 		pop	{r3, lr}
 922              		.cfi_restore 14
 923              		.cfi_restore 3
 924              		.cfi_def_cfa_offset 0
 925              		.loc 1 497 0
 926 0028 FFF7FEBF 		b	mcpwm_get_switching_frequency_now
 927              	.LVL44:
 928              	.L101:
 929              		.align	2
 930              	.L100:
 931 002c 00000000 		.word	.LANCHOR11
 932 0030 00000000 		.word	0
 933              		.cfi_endproc
 934              	.LFE278:
 935              		.size	mc_interface_get_sampling_frequency_now, .-mc_interface_get_sampling_frequency_now
 936              		.section	.text.mc_interface_get_rpm,"ax",%progbits
 937              		.align	2
 938              		.p2align 4,,15
 939              		.global	mc_interface_get_rpm
 940              		.thumb
 941              		.thumb_func
 942              		.type	mc_interface_get_rpm, %function
 943              	mc_interface_get_rpm:
 944              	.LFB279:
 945              		.loc 1 511 0
 946              		.cfi_startproc
 947              		@ args = 0, pretend = 0, frame = 0
 948              		@ frame_needed = 0, uses_anonymous_args = 0
 949              		@ link register save eliminated.
 950              	.LVL45:
 951              		.loc 1 514 0
 952 0000 064B     		ldr	r3, .L109
 953 0002 9B78     		ldrb	r3, [r3, #2]	@ zero_extendqisi2
 954 0004 DBB2     		uxtb	r3, r3
 955 0006 012B     		cmp	r3, #1
 956 0008 06D9     		bls	.L104
 957 000a 022B     		cmp	r3, #2
 958 000c 01D1     		bne	.L108
 959              		.loc 1 521 0
 960 000e FFF7FEBF 		b	mcpwm_foc_get_rpm
 961              	.LVL46:
 962              	.L108:
 963              		.loc 1 529 0
 964 0012 9FED030A 		flds	s0, .L109+4
 965 0016 7047     		bx	lr
 966              	.L104:
 967              		.loc 1 517 0
 968 0018 FFF7FEBF 		b	mcpwm_get_rpm
 969              	.LVL47:
ARM GAS  /var/folders/47/g7cdn6zj55s1hhv4njp6x8_h0000gn/T//cc224n80.s 			page 18


 970              	.L110:
 971              		.align	2
 972              	.L109:
 973 001c 00000000 		.word	.LANCHOR11
 974 0020 00000000 		.word	0
 975              		.cfi_endproc
 976              	.LFE279:
 977              		.size	mc_interface_get_rpm, .-mc_interface_get_rpm
 978              		.section	.text.mc_interface_get_amp_hours,"ax",%progbits
 979              		.align	2
 980              		.p2align 4,,15
 981              		.global	mc_interface_get_amp_hours
 982              		.thumb
 983              		.thumb_func
 984              		.type	mc_interface_get_amp_hours, %function
 985              	mc_interface_get_amp_hours:
 986              	.LFB280:
 987              		.loc 1 540 0
 988              		.cfi_startproc
 989              		@ args = 0, pretend = 0, frame = 0
 990              		@ frame_needed = 0, uses_anonymous_args = 0
 991              		@ link register save eliminated.
 992              	.LVL48:
 993              		.loc 1 541 0
 994 0000 054B     		ldr	r3, .L116
 995 0002 9FED060A 		flds	s0, .L116+4
 996 0006 D3ED007A 		flds	s15, [r3]
 997 000a 87EE800A 		fdivs	s0, s15, s0
 998              	.LVL49:
 999              		.loc 1 543 0
 1000 000e 08B1     		cbz	r0, .L112
 1001              		.loc 1 544 0
 1002 0010 0022     		movs	r2, #0
 1003 0012 1A60     		str	r2, [r3]	@ float
 1004              	.L112:
 1005              		.loc 1 548 0
 1006 0014 7047     		bx	lr
 1007              	.L117:
 1008 0016 00BF     		.align	2
 1009              	.L116:
 1010 0018 00000000 		.word	.LANCHOR21
 1011 001c 00006145 		.word	1163984896
 1012              		.cfi_endproc
 1013              	.LFE280:
 1014              		.size	mc_interface_get_amp_hours, .-mc_interface_get_amp_hours
 1015              		.section	.text.mc_interface_get_amp_hours_charged,"ax",%progbits
 1016              		.align	2
 1017              		.p2align 4,,15
 1018              		.global	mc_interface_get_amp_hours_charged
 1019              		.thumb
 1020              		.thumb_func
 1021              		.type	mc_interface_get_amp_hours_charged, %function
 1022              	mc_interface_get_amp_hours_charged:
 1023              	.LFB281:
 1024              		.loc 1 559 0
 1025              		.cfi_startproc
 1026              		@ args = 0, pretend = 0, frame = 0
ARM GAS  /var/folders/47/g7cdn6zj55s1hhv4njp6x8_h0000gn/T//cc224n80.s 			page 19


 1027              		@ frame_needed = 0, uses_anonymous_args = 0
 1028              		@ link register save eliminated.
 1029              	.LVL50:
 1030              		.loc 1 560 0
 1031 0000 054B     		ldr	r3, .L123
 1032 0002 9FED060A 		flds	s0, .L123+4
 1033 0006 D3ED007A 		flds	s15, [r3]
 1034 000a 87EE800A 		fdivs	s0, s15, s0
 1035              	.LVL51:
 1036              		.loc 1 562 0
 1037 000e 08B1     		cbz	r0, .L119
 1038              		.loc 1 563 0
 1039 0010 0022     		movs	r2, #0
 1040 0012 1A60     		str	r2, [r3]	@ float
 1041              	.L119:
 1042              		.loc 1 567 0
 1043 0014 7047     		bx	lr
 1044              	.L124:
 1045 0016 00BF     		.align	2
 1046              	.L123:
 1047 0018 00000000 		.word	.LANCHOR22
 1048 001c 00006145 		.word	1163984896
 1049              		.cfi_endproc
 1050              	.LFE281:
 1051              		.size	mc_interface_get_amp_hours_charged, .-mc_interface_get_amp_hours_charged
 1052              		.section	.text.mc_interface_get_watt_hours,"ax",%progbits
 1053              		.align	2
 1054              		.p2align 4,,15
 1055              		.global	mc_interface_get_watt_hours
 1056              		.thumb
 1057              		.thumb_func
 1058              		.type	mc_interface_get_watt_hours, %function
 1059              	mc_interface_get_watt_hours:
 1060              	.LFB282:
 1061              		.loc 1 578 0
 1062              		.cfi_startproc
 1063              		@ args = 0, pretend = 0, frame = 0
 1064              		@ frame_needed = 0, uses_anonymous_args = 0
 1065              		@ link register save eliminated.
 1066              	.LVL52:
 1067              		.loc 1 579 0
 1068 0000 054B     		ldr	r3, .L130
 1069 0002 9FED060A 		flds	s0, .L130+4
 1070 0006 D3ED007A 		flds	s15, [r3]
 1071 000a 87EE800A 		fdivs	s0, s15, s0
 1072              	.LVL53:
 1073              		.loc 1 581 0
 1074 000e 10B1     		cbz	r0, .L126
 1075              		.loc 1 582 0
 1076 0010 034B     		ldr	r3, .L130+8
 1077 0012 0022     		movs	r2, #0
 1078 0014 1A60     		str	r2, [r3]	@ float
 1079              	.L126:
 1080              		.loc 1 586 0
 1081 0016 7047     		bx	lr
 1082              	.L131:
 1083              		.align	2
ARM GAS  /var/folders/47/g7cdn6zj55s1hhv4njp6x8_h0000gn/T//cc224n80.s 			page 20


 1084              	.L130:
 1085 0018 00000000 		.word	.LANCHOR23
 1086 001c 00006145 		.word	1163984896
 1087 0020 00000000 		.word	.LANCHOR21
 1088              		.cfi_endproc
 1089              	.LFE282:
 1090              		.size	mc_interface_get_watt_hours, .-mc_interface_get_watt_hours
 1091              		.section	.text.mc_interface_get_watt_hours_charged,"ax",%progbits
 1092              		.align	2
 1093              		.p2align 4,,15
 1094              		.global	mc_interface_get_watt_hours_charged
 1095              		.thumb
 1096              		.thumb_func
 1097              		.type	mc_interface_get_watt_hours_charged, %function
 1098              	mc_interface_get_watt_hours_charged:
 1099              	.LFB283:
 1100              		.loc 1 597 0
 1101              		.cfi_startproc
 1102              		@ args = 0, pretend = 0, frame = 0
 1103              		@ frame_needed = 0, uses_anonymous_args = 0
 1104              		@ link register save eliminated.
 1105              	.LVL54:
 1106              		.loc 1 598 0
 1107 0000 054B     		ldr	r3, .L137
 1108 0002 9FED060A 		flds	s0, .L137+4
 1109 0006 D3ED007A 		flds	s15, [r3]
 1110 000a 87EE800A 		fdivs	s0, s15, s0
 1111              	.LVL55:
 1112              		.loc 1 600 0
 1113 000e 08B1     		cbz	r0, .L133
 1114              		.loc 1 601 0
 1115 0010 0022     		movs	r2, #0
 1116 0012 1A60     		str	r2, [r3]	@ float
 1117              	.L133:
 1118              		.loc 1 605 0
 1119 0014 7047     		bx	lr
 1120              	.L138:
 1121 0016 00BF     		.align	2
 1122              	.L137:
 1123 0018 00000000 		.word	.LANCHOR24
 1124 001c 00006145 		.word	1163984896
 1125              		.cfi_endproc
 1126              	.LFE283:
 1127              		.size	mc_interface_get_watt_hours_charged, .-mc_interface_get_watt_hours_charged
 1128              		.section	.text.mc_interface_get_tot_current,"ax",%progbits
 1129              		.align	2
 1130              		.p2align 4,,15
 1131              		.global	mc_interface_get_tot_current
 1132              		.thumb
 1133              		.thumb_func
 1134              		.type	mc_interface_get_tot_current, %function
 1135              	mc_interface_get_tot_current:
 1136              	.LFB284:
 1137              		.loc 1 607 0
 1138              		.cfi_startproc
 1139              		@ args = 0, pretend = 0, frame = 0
 1140              		@ frame_needed = 0, uses_anonymous_args = 0
ARM GAS  /var/folders/47/g7cdn6zj55s1hhv4njp6x8_h0000gn/T//cc224n80.s 			page 21


 1141              		@ link register save eliminated.
 1142              	.LVL56:
 1143              		.loc 1 610 0
 1144 0000 064B     		ldr	r3, .L146
 1145 0002 9B78     		ldrb	r3, [r3, #2]	@ zero_extendqisi2
 1146 0004 DBB2     		uxtb	r3, r3
 1147 0006 012B     		cmp	r3, #1
 1148 0008 06D9     		bls	.L141
 1149 000a 022B     		cmp	r3, #2
 1150 000c 01D1     		bne	.L145
 1151              		.loc 1 617 0
 1152 000e FFF7FEBF 		b	mcpwm_foc_get_tot_current
 1153              	.LVL57:
 1154              	.L145:
 1155              		.loc 1 625 0
 1156 0012 9FED030A 		flds	s0, .L146+4
 1157 0016 7047     		bx	lr
 1158              	.L141:
 1159              		.loc 1 613 0
 1160 0018 FFF7FEBF 		b	mcpwm_get_tot_current
 1161              	.LVL58:
 1162              	.L147:
 1163              		.align	2
 1164              	.L146:
 1165 001c 00000000 		.word	.LANCHOR11
 1166 0020 00000000 		.word	0
 1167              		.cfi_endproc
 1168              	.LFE284:
 1169              		.size	mc_interface_get_tot_current, .-mc_interface_get_tot_current
 1170              		.section	.text.mc_interface_get_tot_current_filtered,"ax",%progbits
 1171              		.align	2
 1172              		.p2align 4,,15
 1173              		.global	mc_interface_get_tot_current_filtered
 1174              		.thumb
 1175              		.thumb_func
 1176              		.type	mc_interface_get_tot_current_filtered, %function
 1177              	mc_interface_get_tot_current_filtered:
 1178              	.LFB285:
 1179              		.loc 1 627 0
 1180              		.cfi_startproc
 1181              		@ args = 0, pretend = 0, frame = 0
 1182              		@ frame_needed = 0, uses_anonymous_args = 0
 1183              		@ link register save eliminated.
 1184              	.LVL59:
 1185              		.loc 1 630 0
 1186 0000 064B     		ldr	r3, .L155
 1187 0002 9B78     		ldrb	r3, [r3, #2]	@ zero_extendqisi2
 1188 0004 DBB2     		uxtb	r3, r3
 1189 0006 012B     		cmp	r3, #1
 1190 0008 06D9     		bls	.L150
 1191 000a 022B     		cmp	r3, #2
 1192 000c 01D1     		bne	.L154
 1193              		.loc 1 637 0
 1194 000e FFF7FEBF 		b	mcpwm_foc_get_tot_current_filtered
 1195              	.LVL60:
 1196              	.L154:
 1197              		.loc 1 645 0
ARM GAS  /var/folders/47/g7cdn6zj55s1hhv4njp6x8_h0000gn/T//cc224n80.s 			page 22


 1198 0012 9FED030A 		flds	s0, .L155+4
 1199 0016 7047     		bx	lr
 1200              	.L150:
 1201              		.loc 1 633 0
 1202 0018 FFF7FEBF 		b	mcpwm_get_tot_current_filtered
 1203              	.LVL61:
 1204              	.L156:
 1205              		.align	2
 1206              	.L155:
 1207 001c 00000000 		.word	.LANCHOR11
 1208 0020 00000000 		.word	0
 1209              		.cfi_endproc
 1210              	.LFE285:
 1211              		.size	mc_interface_get_tot_current_filtered, .-mc_interface_get_tot_current_filtered
 1212              		.section	.text.mc_interface_get_tot_current_directional,"ax",%progbits
 1213              		.align	2
 1214              		.p2align 4,,15
 1215              		.global	mc_interface_get_tot_current_directional
 1216              		.thumb
 1217              		.thumb_func
 1218              		.type	mc_interface_get_tot_current_directional, %function
 1219              	mc_interface_get_tot_current_directional:
 1220              	.LFB286:
 1221              		.loc 1 647 0
 1222              		.cfi_startproc
 1223              		@ args = 0, pretend = 0, frame = 0
 1224              		@ frame_needed = 0, uses_anonymous_args = 0
 1225              		@ link register save eliminated.
 1226              	.LVL62:
 1227              		.loc 1 650 0
 1228 0000 064B     		ldr	r3, .L164
 1229 0002 9B78     		ldrb	r3, [r3, #2]	@ zero_extendqisi2
 1230 0004 DBB2     		uxtb	r3, r3
 1231 0006 012B     		cmp	r3, #1
 1232 0008 06D9     		bls	.L159
 1233 000a 022B     		cmp	r3, #2
 1234 000c 01D1     		bne	.L163
 1235              		.loc 1 657 0
 1236 000e FFF7FEBF 		b	mcpwm_foc_get_tot_current_directional
 1237              	.LVL63:
 1238              	.L163:
 1239              		.loc 1 665 0
 1240 0012 9FED030A 		flds	s0, .L164+4
 1241 0016 7047     		bx	lr
 1242              	.L159:
 1243              		.loc 1 653 0
 1244 0018 FFF7FEBF 		b	mcpwm_get_tot_current_directional
 1245              	.LVL64:
 1246              	.L165:
 1247              		.align	2
 1248              	.L164:
 1249 001c 00000000 		.word	.LANCHOR11
 1250 0020 00000000 		.word	0
 1251              		.cfi_endproc
 1252              	.LFE286:
 1253              		.size	mc_interface_get_tot_current_directional, .-mc_interface_get_tot_current_directional
 1254              		.section	.text.mc_interface_get_tot_current_directional_filtered,"ax",%progbits
ARM GAS  /var/folders/47/g7cdn6zj55s1hhv4njp6x8_h0000gn/T//cc224n80.s 			page 23


 1255              		.align	2
 1256              		.p2align 4,,15
 1257              		.global	mc_interface_get_tot_current_directional_filtered
 1258              		.thumb
 1259              		.thumb_func
 1260              		.type	mc_interface_get_tot_current_directional_filtered, %function
 1261              	mc_interface_get_tot_current_directional_filtered:
 1262              	.LFB287:
 1263              		.loc 1 667 0
 1264              		.cfi_startproc
 1265              		@ args = 0, pretend = 0, frame = 0
 1266              		@ frame_needed = 0, uses_anonymous_args = 0
 1267              		@ link register save eliminated.
 1268              	.LVL65:
 1269              		.loc 1 670 0
 1270 0000 064B     		ldr	r3, .L173
 1271 0002 9B78     		ldrb	r3, [r3, #2]	@ zero_extendqisi2
 1272 0004 DBB2     		uxtb	r3, r3
 1273 0006 012B     		cmp	r3, #1
 1274 0008 06D9     		bls	.L168
 1275 000a 022B     		cmp	r3, #2
 1276 000c 01D1     		bne	.L172
 1277              		.loc 1 677 0
 1278 000e FFF7FEBF 		b	mcpwm_foc_get_tot_current_directional_filtered
 1279              	.LVL66:
 1280              	.L172:
 1281              		.loc 1 685 0
 1282 0012 9FED030A 		flds	s0, .L173+4
 1283 0016 7047     		bx	lr
 1284              	.L168:
 1285              		.loc 1 673 0
 1286 0018 FFF7FEBF 		b	mcpwm_get_tot_current_directional_filtered
 1287              	.LVL67:
 1288              	.L174:
 1289              		.align	2
 1290              	.L173:
 1291 001c 00000000 		.word	.LANCHOR11
 1292 0020 00000000 		.word	0
 1293              		.cfi_endproc
 1294              	.LFE287:
 1295              		.size	mc_interface_get_tot_current_directional_filtered, .-mc_interface_get_tot_current_directiona
 1296              		.section	.text.mc_interface_get_tot_current_in,"ax",%progbits
 1297              		.align	2
 1298              		.p2align 4,,15
 1299              		.global	mc_interface_get_tot_current_in
 1300              		.thumb
 1301              		.thumb_func
 1302              		.type	mc_interface_get_tot_current_in, %function
 1303              	mc_interface_get_tot_current_in:
 1304              	.LFB288:
 1305              		.loc 1 687 0
 1306              		.cfi_startproc
 1307              		@ args = 0, pretend = 0, frame = 0
 1308              		@ frame_needed = 0, uses_anonymous_args = 0
 1309              		@ link register save eliminated.
 1310              	.LVL68:
 1311              		.loc 1 690 0
ARM GAS  /var/folders/47/g7cdn6zj55s1hhv4njp6x8_h0000gn/T//cc224n80.s 			page 24


 1312 0000 064B     		ldr	r3, .L182
 1313 0002 9B78     		ldrb	r3, [r3, #2]	@ zero_extendqisi2
 1314 0004 DBB2     		uxtb	r3, r3
 1315 0006 012B     		cmp	r3, #1
 1316 0008 06D9     		bls	.L177
 1317 000a 022B     		cmp	r3, #2
 1318 000c 01D1     		bne	.L181
 1319              		.loc 1 697 0
 1320 000e FFF7FEBF 		b	mcpwm_foc_get_tot_current_in
 1321              	.LVL69:
 1322              	.L181:
 1323              		.loc 1 705 0
 1324 0012 9FED030A 		flds	s0, .L182+4
 1325 0016 7047     		bx	lr
 1326              	.L177:
 1327              		.loc 1 693 0
 1328 0018 FFF7FEBF 		b	mcpwm_get_tot_current_in
 1329              	.LVL70:
 1330              	.L183:
 1331              		.align	2
 1332              	.L182:
 1333 001c 00000000 		.word	.LANCHOR11
 1334 0020 00000000 		.word	0
 1335              		.cfi_endproc
 1336              	.LFE288:
 1337              		.size	mc_interface_get_tot_current_in, .-mc_interface_get_tot_current_in
 1338              		.section	.text.mc_interface_get_tot_current_in_filtered,"ax",%progbits
 1339              		.align	2
 1340              		.p2align 4,,15
 1341              		.global	mc_interface_get_tot_current_in_filtered
 1342              		.thumb
 1343              		.thumb_func
 1344              		.type	mc_interface_get_tot_current_in_filtered, %function
 1345              	mc_interface_get_tot_current_in_filtered:
 1346              	.LFB289:
 1347              		.loc 1 707 0
 1348              		.cfi_startproc
 1349              		@ args = 0, pretend = 0, frame = 0
 1350              		@ frame_needed = 0, uses_anonymous_args = 0
 1351              		@ link register save eliminated.
 1352              	.LVL71:
 1353              		.loc 1 710 0
 1354 0000 064B     		ldr	r3, .L191
 1355 0002 9B78     		ldrb	r3, [r3, #2]	@ zero_extendqisi2
 1356 0004 DBB2     		uxtb	r3, r3
 1357 0006 012B     		cmp	r3, #1
 1358 0008 06D9     		bls	.L186
 1359 000a 022B     		cmp	r3, #2
 1360 000c 01D1     		bne	.L190
 1361              		.loc 1 717 0
 1362 000e FFF7FEBF 		b	mcpwm_foc_get_tot_current_in_filtered
 1363              	.LVL72:
 1364              	.L190:
 1365              		.loc 1 725 0
 1366 0012 9FED030A 		flds	s0, .L191+4
 1367 0016 7047     		bx	lr
 1368              	.L186:
ARM GAS  /var/folders/47/g7cdn6zj55s1hhv4njp6x8_h0000gn/T//cc224n80.s 			page 25


 1369              		.loc 1 713 0
 1370 0018 FFF7FEBF 		b	mcpwm_get_tot_current_in_filtered
 1371              	.LVL73:
 1372              	.L192:
 1373              		.align	2
 1374              	.L191:
 1375 001c 00000000 		.word	.LANCHOR11
 1376 0020 00000000 		.word	0
 1377              		.cfi_endproc
 1378              	.LFE289:
 1379              		.size	mc_interface_get_tot_current_in_filtered, .-mc_interface_get_tot_current_in_filtered
 1380              		.section	.text.mc_interface_get_tachometer_value,"ax",%progbits
 1381              		.align	2
 1382              		.p2align 4,,15
 1383              		.global	mc_interface_get_tachometer_value
 1384              		.thumb
 1385              		.thumb_func
 1386              		.type	mc_interface_get_tachometer_value, %function
 1387              	mc_interface_get_tachometer_value:
 1388              	.LFB290:
 1389              		.loc 1 727 0
 1390              		.cfi_startproc
 1391              		@ args = 0, pretend = 0, frame = 0
 1392              		@ frame_needed = 0, uses_anonymous_args = 0
 1393              		@ link register save eliminated.
 1394              	.LVL74:
 1395              		.loc 1 730 0
 1396 0000 064B     		ldr	r3, .L200
 1397 0002 9B78     		ldrb	r3, [r3, #2]	@ zero_extendqisi2
 1398 0004 DBB2     		uxtb	r3, r3
 1399 0006 012B     		cmp	r3, #1
 1400 0008 05D9     		bls	.L195
 1401 000a 022B     		cmp	r3, #2
 1402 000c 01D1     		bne	.L199
 1403              		.loc 1 737 0
 1404 000e FFF7FEBF 		b	mcpwm_foc_get_tachometer_value
 1405              	.LVL75:
 1406              	.L199:
 1407              		.loc 1 745 0
 1408 0012 0020     		movs	r0, #0
 1409              	.LVL76:
 1410 0014 7047     		bx	lr
 1411              	.LVL77:
 1412              	.L195:
 1413              		.loc 1 733 0
 1414 0016 FFF7FEBF 		b	mcpwm_get_tachometer_value
 1415              	.LVL78:
 1416              	.L201:
 1417 001a 00BF     		.align	2
 1418              	.L200:
 1419 001c 00000000 		.word	.LANCHOR11
 1420              		.cfi_endproc
 1421              	.LFE290:
 1422              		.size	mc_interface_get_tachometer_value, .-mc_interface_get_tachometer_value
 1423              		.section	.text.mc_interface_get_tachometer_abs_value,"ax",%progbits
 1424              		.align	2
 1425              		.p2align 4,,15
ARM GAS  /var/folders/47/g7cdn6zj55s1hhv4njp6x8_h0000gn/T//cc224n80.s 			page 26


 1426              		.global	mc_interface_get_tachometer_abs_value
 1427              		.thumb
 1428              		.thumb_func
 1429              		.type	mc_interface_get_tachometer_abs_value, %function
 1430              	mc_interface_get_tachometer_abs_value:
 1431              	.LFB291:
 1432              		.loc 1 747 0
 1433              		.cfi_startproc
 1434              		@ args = 0, pretend = 0, frame = 0
 1435              		@ frame_needed = 0, uses_anonymous_args = 0
 1436              		@ link register save eliminated.
 1437              	.LVL79:
 1438              		.loc 1 750 0
 1439 0000 064B     		ldr	r3, .L209
 1440 0002 9B78     		ldrb	r3, [r3, #2]	@ zero_extendqisi2
 1441 0004 DBB2     		uxtb	r3, r3
 1442 0006 012B     		cmp	r3, #1
 1443 0008 05D9     		bls	.L204
 1444 000a 022B     		cmp	r3, #2
 1445 000c 01D1     		bne	.L208
 1446              		.loc 1 757 0
 1447 000e FFF7FEBF 		b	mcpwm_foc_get_tachometer_abs_value
 1448              	.LVL80:
 1449              	.L208:
 1450              		.loc 1 765 0
 1451 0012 0020     		movs	r0, #0
 1452              	.LVL81:
 1453 0014 7047     		bx	lr
 1454              	.LVL82:
 1455              	.L204:
 1456              		.loc 1 753 0
 1457 0016 FFF7FEBF 		b	mcpwm_get_tachometer_abs_value
 1458              	.LVL83:
 1459              	.L210:
 1460 001a 00BF     		.align	2
 1461              	.L209:
 1462 001c 00000000 		.word	.LANCHOR11
 1463              		.cfi_endproc
 1464              	.LFE291:
 1465              		.size	mc_interface_get_tachometer_abs_value, .-mc_interface_get_tachometer_abs_value
 1466              		.section	.text.mc_interface_get_last_inj_adc_isr_duration,"ax",%progbits
 1467              		.align	2
 1468              		.p2align 4,,15
 1469              		.global	mc_interface_get_last_inj_adc_isr_duration
 1470              		.thumb
 1471              		.thumb_func
 1472              		.type	mc_interface_get_last_inj_adc_isr_duration, %function
 1473              	mc_interface_get_last_inj_adc_isr_duration:
 1474              	.LFB292:
 1475              		.loc 1 767 0
 1476              		.cfi_startproc
 1477              		@ args = 0, pretend = 0, frame = 0
 1478              		@ frame_needed = 0, uses_anonymous_args = 0
 1479              		@ link register save eliminated.
 1480              	.LVL84:
 1481              		.loc 1 770 0
 1482 0000 064B     		ldr	r3, .L218
ARM GAS  /var/folders/47/g7cdn6zj55s1hhv4njp6x8_h0000gn/T//cc224n80.s 			page 27


 1483 0002 9B78     		ldrb	r3, [r3, #2]	@ zero_extendqisi2
 1484 0004 DBB2     		uxtb	r3, r3
 1485 0006 012B     		cmp	r3, #1
 1486 0008 06D9     		bls	.L213
 1487 000a 022B     		cmp	r3, #2
 1488 000c 01D1     		bne	.L217
 1489              		.loc 1 777 0
 1490 000e FFF7FEBF 		b	mcpwm_foc_get_last_inj_adc_isr_duration
 1491              	.LVL85:
 1492              	.L217:
 1493              		.loc 1 785 0
 1494 0012 9FED030A 		flds	s0, .L218+4
 1495 0016 7047     		bx	lr
 1496              	.L213:
 1497              		.loc 1 773 0
 1498 0018 FFF7FEBF 		b	mcpwm_get_last_inj_adc_isr_duration
 1499              	.LVL86:
 1500              	.L219:
 1501              		.align	2
 1502              	.L218:
 1503 001c 00000000 		.word	.LANCHOR11
 1504 0020 00000000 		.word	0
 1505              		.cfi_endproc
 1506              	.LFE292:
 1507              		.size	mc_interface_get_last_inj_adc_isr_duration, .-mc_interface_get_last_inj_adc_isr_duration
 1508              		.section	.text.mc_interface_read_reset_avg_motor_current,"ax",%progbits
 1509              		.align	2
 1510              		.p2align 4,,15
 1511              		.global	mc_interface_read_reset_avg_motor_current
 1512              		.thumb
 1513              		.thumb_func
 1514              		.type	mc_interface_read_reset_avg_motor_current, %function
 1515              	mc_interface_read_reset_avg_motor_current:
 1516              	.LFB293:
 1517              		.loc 1 787 0
 1518              		.cfi_startproc
 1519              		@ args = 0, pretend = 0, frame = 0
 1520              		@ frame_needed = 0, uses_anonymous_args = 0
 1521              		@ link register save eliminated.
 1522              		.loc 1 788 0
 1523 0000 0549     		ldr	r1, .L221
 1524 0002 064B     		ldr	r3, .L221+4
 1525 0004 91ED000A 		flds	s0, [r1]
 1526 0008 D3ED007A 		flds	s15, [r3]
 1527              	.LVL87:
 1528              		.loc 1 789 0
 1529 000c 0022     		movs	r2, #0
 1530 000e 0A60     		str	r2, [r1]	@ float
 1531              		.loc 1 792 0
 1532 0010 80EE270A 		fdivs	s0, s0, s15
 1533              	.LVL88:
 1534              		.loc 1 790 0
 1535 0014 1A60     		str	r2, [r3]	@ float
 1536              		.loc 1 792 0
 1537 0016 7047     		bx	lr
 1538              	.L222:
 1539              		.align	2
ARM GAS  /var/folders/47/g7cdn6zj55s1hhv4njp6x8_h0000gn/T//cc224n80.s 			page 28


 1540              	.L221:
 1541 0018 00000000 		.word	.LANCHOR17
 1542 001c 00000000 		.word	.LANCHOR19
 1543              		.cfi_endproc
 1544              	.LFE293:
 1545              		.size	mc_interface_read_reset_avg_motor_current, .-mc_interface_read_reset_avg_motor_current
 1546              		.section	.text.mc_interface_read_reset_avg_input_current,"ax",%progbits
 1547              		.align	2
 1548              		.p2align 4,,15
 1549              		.global	mc_interface_read_reset_avg_input_current
 1550              		.thumb
 1551              		.thumb_func
 1552              		.type	mc_interface_read_reset_avg_input_current, %function
 1553              	mc_interface_read_reset_avg_input_current:
 1554              	.LFB294:
 1555              		.loc 1 794 0
 1556              		.cfi_startproc
 1557              		@ args = 0, pretend = 0, frame = 0
 1558              		@ frame_needed = 0, uses_anonymous_args = 0
 1559              		@ link register save eliminated.
 1560              		.loc 1 795 0
 1561 0000 0549     		ldr	r1, .L224
 1562 0002 064B     		ldr	r3, .L224+4
 1563 0004 91ED000A 		flds	s0, [r1]
 1564 0008 D3ED007A 		flds	s15, [r3]
 1565              	.LVL89:
 1566              		.loc 1 796 0
 1567 000c 0022     		movs	r2, #0
 1568 000e 0A60     		str	r2, [r1]	@ float
 1569              		.loc 1 799 0
 1570 0010 80EE270A 		fdivs	s0, s0, s15
 1571              	.LVL90:
 1572              		.loc 1 797 0
 1573 0014 1A60     		str	r2, [r3]	@ float
 1574              		.loc 1 799 0
 1575 0016 7047     		bx	lr
 1576              	.L225:
 1577              		.align	2
 1578              	.L224:
 1579 0018 00000000 		.word	.LANCHOR18
 1580 001c 00000000 		.word	.LANCHOR20
 1581              		.cfi_endproc
 1582              	.LFE294:
 1583              		.size	mc_interface_read_reset_avg_input_current, .-mc_interface_read_reset_avg_input_current
 1584              		.section	.text.mc_interface_get_pid_pos_set,"ax",%progbits
 1585              		.align	2
 1586              		.p2align 4,,15
 1587              		.global	mc_interface_get_pid_pos_set
 1588              		.thumb
 1589              		.thumb_func
 1590              		.type	mc_interface_get_pid_pos_set, %function
 1591              	mc_interface_get_pid_pos_set:
 1592              	.LFB295:
 1593              		.loc 1 801 0
 1594              		.cfi_startproc
 1595              		@ args = 0, pretend = 0, frame = 0
 1596              		@ frame_needed = 0, uses_anonymous_args = 0
ARM GAS  /var/folders/47/g7cdn6zj55s1hhv4njp6x8_h0000gn/T//cc224n80.s 			page 29


 1597              		@ link register save eliminated.
 1598              		.loc 1 802 0
 1599 0000 014B     		ldr	r3, .L227
 1600 0002 93ED000A 		flds	s0, [r3]
 1601              		.loc 1 803 0
 1602 0006 7047     		bx	lr
 1603              	.L228:
 1604              		.align	2
 1605              	.L227:
 1606 0008 00000000 		.word	.LANCHOR25
 1607              		.cfi_endproc
 1608              	.LFE295:
 1609              		.size	mc_interface_get_pid_pos_set, .-mc_interface_get_pid_pos_set
 1610              		.section	.text.mc_interface_get_pid_pos_now,"ax",%progbits
 1611              		.align	2
 1612              		.p2align 4,,15
 1613              		.global	mc_interface_get_pid_pos_now
 1614              		.thumb
 1615              		.thumb_func
 1616              		.type	mc_interface_get_pid_pos_now, %function
 1617              	mc_interface_get_pid_pos_now:
 1618              	.LFB296:
 1619              		.loc 1 805 0
 1620              		.cfi_startproc
 1621              		@ args = 0, pretend = 0, frame = 0
 1622              		@ frame_needed = 0, uses_anonymous_args = 0
 1623              		@ link register save eliminated.
 1624              	.LVL91:
 1625              		.loc 1 808 0
 1626 0000 064B     		ldr	r3, .L236
 1627 0002 9B78     		ldrb	r3, [r3, #2]	@ zero_extendqisi2
 1628 0004 DBB2     		uxtb	r3, r3
 1629 0006 012B     		cmp	r3, #1
 1630 0008 06D9     		bls	.L231
 1631 000a 022B     		cmp	r3, #2
 1632 000c 01D1     		bne	.L235
 1633              		.loc 1 815 0
 1634 000e FFF7FEBF 		b	mcpwm_foc_get_pid_pos_now
 1635              	.LVL92:
 1636              	.L235:
 1637              		.loc 1 823 0
 1638 0012 9FED030A 		flds	s0, .L236+4
 1639 0016 7047     		bx	lr
 1640              	.L231:
 1641              		.loc 1 811 0
 1642 0018 FFF7FEBF 		b	encoder_read_deg
 1643              	.LVL93:
 1644              	.L237:
 1645              		.align	2
 1646              	.L236:
 1647 001c 00000000 		.word	.LANCHOR11
 1648 0020 00000000 		.word	0
 1649              		.cfi_endproc
 1650              	.LFE296:
 1651              		.size	mc_interface_get_pid_pos_now, .-mc_interface_get_pid_pos_now
 1652              		.section	.text.mc_interface_get_last_sample_adc_isr_duration,"ax",%progbits
 1653              		.align	2
ARM GAS  /var/folders/47/g7cdn6zj55s1hhv4njp6x8_h0000gn/T//cc224n80.s 			page 30


 1654              		.p2align 4,,15
 1655              		.global	mc_interface_get_last_sample_adc_isr_duration
 1656              		.thumb
 1657              		.thumb_func
 1658              		.type	mc_interface_get_last_sample_adc_isr_duration, %function
 1659              	mc_interface_get_last_sample_adc_isr_duration:
 1660              	.LFB297:
 1661              		.loc 1 825 0
 1662              		.cfi_startproc
 1663              		@ args = 0, pretend = 0, frame = 0
 1664              		@ frame_needed = 0, uses_anonymous_args = 0
 1665              		@ link register save eliminated.
 1666              		.loc 1 826 0
 1667 0000 014B     		ldr	r3, .L239
 1668 0002 93ED000A 		flds	s0, [r3]
 1669              		.loc 1 827 0
 1670 0006 7047     		bx	lr
 1671              	.L240:
 1672              		.align	2
 1673              	.L239:
 1674 0008 00000000 		.word	.LANCHOR26
 1675              		.cfi_endproc
 1676              	.LFE297:
 1677              		.size	mc_interface_get_last_sample_adc_isr_duration, .-mc_interface_get_last_sample_adc_isr_durati
 1678              		.section	.text.mc_interface_sample_print_data,"ax",%progbits
 1679              		.align	2
 1680              		.p2align 4,,15
 1681              		.global	mc_interface_sample_print_data
 1682              		.thumb
 1683              		.thumb_func
 1684              		.type	mc_interface_sample_print_data, %function
 1685              	mc_interface_sample_print_data:
 1686              	.LFB298:
 1687              		.loc 1 829 0
 1688              		.cfi_startproc
 1689              		@ args = 0, pretend = 0, frame = 0
 1690              		@ frame_needed = 0, uses_anonymous_args = 0
 1691              	.LVL94:
 1692 0000 10B5     		push	{r4, lr}
 1693              		.cfi_def_cfa_offset 8
 1694              		.cfi_offset 4, -8
 1695              		.cfi_offset 14, -4
 1696              		.loc 1 835 0
 1697 0002 0B4B     		ldr	r3, .L246
 1698              		.loc 1 834 0
 1699 0004 0B4C     		ldr	r4, .L246+4
 1700 0006 B1F5FA6F 		cmp	r1, #2000
 1701 000a 28BF     		it	cs
 1702 000c 4FF4FA61 		movcs	r1, #2000
 1703              	.LVL95:
 1704 0010 2160     		str	r1, [r4]
 1705              		.loc 1 835 0
 1706 0012 1A60     		str	r2, [r3]
 1707              		.loc 1 837 0
 1708 0014 20B9     		cbnz	r0, .L245
 1709              		.loc 1 841 0
 1710 0016 084A     		ldr	r2, .L246+8
ARM GAS  /var/folders/47/g7cdn6zj55s1hhv4njp6x8_h0000gn/T//cc224n80.s 			page 31


 1711              	.LVL96:
 1712              		.loc 1 842 0
 1713 0018 084B     		ldr	r3, .L246+12
 1714              		.loc 1 841 0
 1715 001a 1060     		str	r0, [r2]
 1716              		.loc 1 842 0
 1717 001c 1860     		str	r0, [r3]
 1718 001e 10BD     		pop	{r4, pc}
 1719              	.LVL97:
 1720              	.L245:
 1721              		.loc 1 838 0
 1722 0020 074B     		ldr	r3, .L246+16
 1723 0022 0122     		movs	r2, #1
 1724              	.LVL98:
 1725 0024 1A60     		str	r2, [r3]
 1726              		.loc 1 839 0
 1727 0026 FFF7FEFF 		bl	mcpwm_get_comm_step
 1728              	.LVL99:
 1729 002a 064B     		ldr	r3, .L246+20
 1730 002c 1860     		str	r0, [r3]
 1731 002e 10BD     		pop	{r4, pc}
 1732              	.L247:
 1733              		.align	2
 1734              	.L246:
 1735 0030 00000000 		.word	.LANCHOR27
 1736 0034 00000000 		.word	.LANCHOR1
 1737 0038 00000000 		.word	.LANCHOR29
 1738 003c 00000000 		.word	.LANCHOR28
 1739 0040 00000000 		.word	.LANCHOR30
 1740 0044 00000000 		.word	.LANCHOR31
 1741              		.cfi_endproc
 1742              	.LFE298:
 1743              		.size	mc_interface_sample_print_data, .-mc_interface_sample_print_data
 1744              		.section	.text.mc_interface_try_input,"ax",%progbits
 1745              		.align	2
 1746              		.p2align 4,,15
 1747              		.global	mc_interface_try_input
 1748              		.thumb
 1749              		.thumb_func
 1750              		.type	mc_interface_try_input, %function
 1751              	mc_interface_try_input:
 1752              	.LFB299:
 1753              		.loc 1 855 0
 1754              		.cfi_startproc
 1755              		@ args = 0, pretend = 0, frame = 0
 1756              		@ frame_needed = 0, uses_anonymous_args = 0
 1757 0000 08B5     		push	{r3, lr}
 1758              		.cfi_def_cfa_offset 8
 1759              		.cfi_offset 3, -8
 1760              		.cfi_offset 14, -4
 1761              		.loc 1 857 0
 1762 0002 FFF7FEFF 		bl	mc_interface_get_state
 1763              	.LVL100:
 1764 0006 0128     		cmp	r0, #1
 1765 0008 0CD0     		beq	.L256
 1766              		.loc 1 862 0
 1767 000a 0A4B     		ldr	r3, .L257
ARM GAS  /var/folders/47/g7cdn6zj55s1hhv4njp6x8_h0000gn/T//cc224n80.s 			page 32


 1768 000c 1868     		ldr	r0, [r3]
 1769              	.LVL101:
 1770              		.loc 1 864 0
 1771 000e 40B9     		cbnz	r0, .L250
 1772              		.loc 1 864 0 is_stmt 0 discriminator 1
 1773 0010 094B     		ldr	r3, .L257+4
 1774 0012 1B78     		ldrb	r3, [r3]	@ zero_extendqisi2
 1775 0014 2BB1     		cbz	r3, .L250
 1776              		.loc 1 865 0 is_stmt 1
 1777 0016 094B     		ldr	r3, .L257+8
 1778 0018 1A78     		ldrb	r2, [r3]	@ zero_extendqisi2
 1779 001a 0AB1     		cbz	r2, .L251
 1780              		.loc 1 868 0
 1781 001c 1870     		strb	r0, [r3]
 1782 001e 08BD     		pop	{r3, pc}
 1783              	.L251:
 1784              		.loc 1 866 0
 1785 0020 0120     		movs	r0, #1
 1786              	.LVL102:
 1787              	.L250:
 1788              		.loc 1 873 0
 1789 0022 08BD     		pop	{r3, pc}
 1790              	.LVL103:
 1791              	.L256:
 1792              		.loc 1 858 0
 1793 0024 FFF7FEFF 		bl	mcpwm_stop_pwm
 1794              	.LVL104:
 1795              		.loc 1 859 0
 1796 0028 024B     		ldr	r3, .L257
 1797 002a 4FF4FA70 		mov	r0, #500
 1798 002e 1860     		str	r0, [r3]
 1799              	.LVL105:
 1800 0030 08BD     		pop	{r3, pc}
 1801              	.L258:
 1802 0032 00BF     		.align	2
 1803              	.L257:
 1804 0034 00000000 		.word	.LANCHOR13
 1805 0038 00000000 		.word	.LANCHOR15
 1806 003c 00000000 		.word	.LANCHOR16
 1807              		.cfi_endproc
 1808              	.LFE299:
 1809              		.size	mc_interface_try_input, .-mc_interface_try_input
 1810              		.section	.text.mc_interface_set_duty,"ax",%progbits
 1811              		.align	2
 1812              		.p2align 4,,15
 1813              		.global	mc_interface_set_duty
 1814              		.thumb
 1815              		.thumb_func
 1816              		.type	mc_interface_set_duty, %function
 1817              	mc_interface_set_duty:
 1818              	.LFB267:
 1819              		.loc 1 298 0
 1820              		.cfi_startproc
 1821              		@ args = 0, pretend = 0, frame = 0
 1822              		@ frame_needed = 0, uses_anonymous_args = 0
 1823              	.LVL106:
 1824 0000 08B5     		push	{r3, lr}
ARM GAS  /var/folders/47/g7cdn6zj55s1hhv4njp6x8_h0000gn/T//cc224n80.s 			page 33


 1825              		.cfi_def_cfa_offset 8
 1826              		.cfi_offset 3, -8
 1827              		.cfi_offset 14, -4
 1828 0002 2DED028B 		fstmfdd	sp!, {d8}
 1829              		.cfi_def_cfa_offset 16
 1830              		.cfi_offset 80, -16
 1831              		.cfi_offset 81, -12
 1832              		.loc 1 298 0
 1833 0006 B0EE408A 		fcpys	s16, s0
 1834              		.loc 1 299 0
 1835 000a FFF7FEFF 		bl	mc_interface_try_input
 1836              	.LVL107:
 1837 000e 70B9     		cbnz	r0, .L259
 1838              	.LVL108:
 1839              	.LBB77:
 1840              	.LBB78:
 1841              		.loc 1 303 0
 1842 0010 0C4B     		ldr	r3, .L264
 1843 0012 9B78     		ldrb	r3, [r3, #2]	@ zero_extendqisi2
 1844 0014 DBB2     		uxtb	r3, r3
 1845 0016 012B     		cmp	r3, #1
 1846 0018 0CD9     		bls	.L261
 1847 001a 022B     		cmp	r3, #2
 1848 001c 07D1     		bne	.L259
 1849              		.loc 1 310 0
 1850 001e B0EE480A 		fcpys	s0, s16
 1851              	.LBE78:
 1852              	.LBE77:
 1853              		.loc 1 316 0
 1854 0022 BDEC028B 		fldmfdd	sp!, {d8}
 1855              		.cfi_remember_state
 1856              		.cfi_restore 80
 1857              		.cfi_restore 81
 1858              		.cfi_def_cfa_offset 8
 1859              	.LVL109:
 1860 0026 BDE80840 		pop	{r3, lr}
 1861              		.cfi_restore 14
 1862              		.cfi_restore 3
 1863              		.cfi_def_cfa_offset 0
 1864              	.LBB82:
 1865              	.LBB79:
 1866              		.loc 1 310 0
 1867 002a FFF7FEBF 		b	mcpwm_foc_set_duty
 1868              	.LVL110:
 1869              	.L259:
 1870              		.cfi_restore_state
 1871              	.LBE79:
 1872              	.LBE82:
 1873              		.loc 1 316 0
 1874 002e BDEC028B 		fldmfdd	sp!, {d8}
 1875              		.cfi_remember_state
 1876              		.cfi_restore 80
 1877              		.cfi_restore 81
 1878              		.cfi_def_cfa_offset 8
 1879              	.LVL111:
 1880 0032 08BD     		pop	{r3, pc}
 1881              	.LVL112:
ARM GAS  /var/folders/47/g7cdn6zj55s1hhv4njp6x8_h0000gn/T//cc224n80.s 			page 34


 1882              	.L261:
 1883              		.cfi_restore_state
 1884              	.LBB83:
 1885              	.LBB80:
 1886              		.loc 1 306 0
 1887 0034 B0EE480A 		fcpys	s0, s16
 1888              	.LBE80:
 1889              	.LBE83:
 1890              		.loc 1 316 0
 1891 0038 BDEC028B 		fldmfdd	sp!, {d8}
 1892              		.cfi_restore 80
 1893              		.cfi_restore 81
 1894              		.cfi_def_cfa_offset 8
 1895              	.LVL113:
 1896 003c BDE80840 		pop	{r3, lr}
 1897              		.cfi_restore 14
 1898              		.cfi_restore 3
 1899              		.cfi_def_cfa_offset 0
 1900              	.LBB84:
 1901              	.LBB81:
 1902              		.loc 1 306 0
 1903 0040 FFF7FEBF 		b	mcpwm_set_duty
 1904              	.LVL114:
 1905              	.L265:
 1906              		.align	2
 1907              	.L264:
 1908 0044 00000000 		.word	.LANCHOR11
 1909              	.LBE81:
 1910              	.LBE84:
 1911              		.cfi_endproc
 1912              	.LFE267:
 1913              		.size	mc_interface_set_duty, .-mc_interface_set_duty
 1914              		.section	.text.mc_interface_brake_now,"ax",%progbits
 1915              		.align	2
 1916              		.p2align 4,,15
 1917              		.global	mc_interface_brake_now
 1918              		.thumb
 1919              		.thumb_func
 1920              		.type	mc_interface_brake_now, %function
 1921              	mc_interface_brake_now:
 1922              	.LFB274:
 1923              		.loc 1 437 0
 1924              		.cfi_startproc
 1925              		@ args = 0, pretend = 0, frame = 0
 1926              		@ frame_needed = 0, uses_anonymous_args = 0
 1927              		@ link register save eliminated.
 1928              		.loc 1 438 0
 1929 0000 9FED010A 		flds	s0, .L267
 1930 0004 FFF7FEBF 		b	mc_interface_set_duty
 1931              	.LVL115:
 1932              	.L268:
 1933              		.align	2
 1934              	.L267:
 1935 0008 00000000 		.word	0
 1936              		.cfi_endproc
 1937              	.LFE274:
 1938              		.size	mc_interface_brake_now, .-mc_interface_brake_now
ARM GAS  /var/folders/47/g7cdn6zj55s1hhv4njp6x8_h0000gn/T//cc224n80.s 			page 35


 1939              		.section	.text.mc_interface_set_duty_noramp,"ax",%progbits
 1940              		.align	2
 1941              		.p2align 4,,15
 1942              		.global	mc_interface_set_duty_noramp
 1943              		.thumb
 1944              		.thumb_func
 1945              		.type	mc_interface_set_duty_noramp, %function
 1946              	mc_interface_set_duty_noramp:
 1947              	.LFB268:
 1948              		.loc 1 318 0
 1949              		.cfi_startproc
 1950              		@ args = 0, pretend = 0, frame = 0
 1951              		@ frame_needed = 0, uses_anonymous_args = 0
 1952              	.LVL116:
 1953 0000 08B5     		push	{r3, lr}
 1954              		.cfi_def_cfa_offset 8
 1955              		.cfi_offset 3, -8
 1956              		.cfi_offset 14, -4
 1957 0002 2DED028B 		fstmfdd	sp!, {d8}
 1958              		.cfi_def_cfa_offset 16
 1959              		.cfi_offset 80, -16
 1960              		.cfi_offset 81, -12
 1961              		.loc 1 318 0
 1962 0006 B0EE408A 		fcpys	s16, s0
 1963              		.loc 1 319 0
 1964 000a FFF7FEFF 		bl	mc_interface_try_input
 1965              	.LVL117:
 1966 000e 70B9     		cbnz	r0, .L269
 1967              		.loc 1 323 0
 1968 0010 0C4B     		ldr	r3, .L274
 1969 0012 9B78     		ldrb	r3, [r3, #2]	@ zero_extendqisi2
 1970 0014 DBB2     		uxtb	r3, r3
 1971 0016 012B     		cmp	r3, #1
 1972 0018 0CD9     		bls	.L271
 1973 001a 022B     		cmp	r3, #2
 1974 001c 07D1     		bne	.L269
 1975              		.loc 1 330 0
 1976 001e B0EE480A 		fcpys	s0, s16
 1977              		.loc 1 336 0
 1978 0022 BDEC028B 		fldmfdd	sp!, {d8}
 1979              		.cfi_remember_state
 1980              		.cfi_restore 80
 1981              		.cfi_restore 81
 1982              		.cfi_def_cfa_offset 8
 1983              	.LVL118:
 1984 0026 BDE80840 		pop	{r3, lr}
 1985              		.cfi_restore 14
 1986              		.cfi_restore 3
 1987              		.cfi_def_cfa_offset 0
 1988              		.loc 1 330 0
 1989 002a FFF7FEBF 		b	mcpwm_foc_set_duty_noramp
 1990              	.LVL119:
 1991              	.L269:
 1992              		.cfi_restore_state
 1993              		.loc 1 336 0
 1994 002e BDEC028B 		fldmfdd	sp!, {d8}
 1995              		.cfi_remember_state
ARM GAS  /var/folders/47/g7cdn6zj55s1hhv4njp6x8_h0000gn/T//cc224n80.s 			page 36


 1996              		.cfi_restore 80
 1997              		.cfi_restore 81
 1998              		.cfi_def_cfa_offset 8
 1999              	.LVL120:
 2000 0032 08BD     		pop	{r3, pc}
 2001              	.LVL121:
 2002              	.L271:
 2003              		.cfi_restore_state
 2004              		.loc 1 326 0
 2005 0034 B0EE480A 		fcpys	s0, s16
 2006              		.loc 1 336 0
 2007 0038 BDEC028B 		fldmfdd	sp!, {d8}
 2008              		.cfi_restore 80
 2009              		.cfi_restore 81
 2010              		.cfi_def_cfa_offset 8
 2011              	.LVL122:
 2012 003c BDE80840 		pop	{r3, lr}
 2013              		.cfi_restore 14
 2014              		.cfi_restore 3
 2015              		.cfi_def_cfa_offset 0
 2016              		.loc 1 326 0
 2017 0040 FFF7FEBF 		b	mcpwm_set_duty_noramp
 2018              	.LVL123:
 2019              	.L275:
 2020              		.align	2
 2021              	.L274:
 2022 0044 00000000 		.word	.LANCHOR11
 2023              		.cfi_endproc
 2024              	.LFE268:
 2025              		.size	mc_interface_set_duty_noramp, .-mc_interface_set_duty_noramp
 2026              		.section	.text.mc_interface_set_pid_speed,"ax",%progbits
 2027              		.align	2
 2028              		.p2align 4,,15
 2029              		.global	mc_interface_set_pid_speed
 2030              		.thumb
 2031              		.thumb_func
 2032              		.type	mc_interface_set_pid_speed, %function
 2033              	mc_interface_set_pid_speed:
 2034              	.LFB269:
 2035              		.loc 1 338 0
 2036              		.cfi_startproc
 2037              		@ args = 0, pretend = 0, frame = 0
 2038              		@ frame_needed = 0, uses_anonymous_args = 0
 2039              	.LVL124:
 2040 0000 08B5     		push	{r3, lr}
 2041              		.cfi_def_cfa_offset 8
 2042              		.cfi_offset 3, -8
 2043              		.cfi_offset 14, -4
 2044 0002 2DED028B 		fstmfdd	sp!, {d8}
 2045              		.cfi_def_cfa_offset 16
 2046              		.cfi_offset 80, -16
 2047              		.cfi_offset 81, -12
 2048              		.loc 1 338 0
 2049 0006 B0EE408A 		fcpys	s16, s0
 2050              		.loc 1 339 0
 2051 000a FFF7FEFF 		bl	mc_interface_try_input
 2052              	.LVL125:
ARM GAS  /var/folders/47/g7cdn6zj55s1hhv4njp6x8_h0000gn/T//cc224n80.s 			page 37


 2053 000e 70B9     		cbnz	r0, .L276
 2054              		.loc 1 343 0
 2055 0010 0C4B     		ldr	r3, .L281
 2056 0012 9B78     		ldrb	r3, [r3, #2]	@ zero_extendqisi2
 2057 0014 DBB2     		uxtb	r3, r3
 2058 0016 012B     		cmp	r3, #1
 2059 0018 0CD9     		bls	.L278
 2060 001a 022B     		cmp	r3, #2
 2061 001c 07D1     		bne	.L276
 2062              		.loc 1 350 0
 2063 001e B0EE480A 		fcpys	s0, s16
 2064              		.loc 1 356 0
 2065 0022 BDEC028B 		fldmfdd	sp!, {d8}
 2066              		.cfi_remember_state
 2067              		.cfi_restore 80
 2068              		.cfi_restore 81
 2069              		.cfi_def_cfa_offset 8
 2070              	.LVL126:
 2071 0026 BDE80840 		pop	{r3, lr}
 2072              		.cfi_restore 14
 2073              		.cfi_restore 3
 2074              		.cfi_def_cfa_offset 0
 2075              		.loc 1 350 0
 2076 002a FFF7FEBF 		b	mcpwm_foc_set_pid_speed
 2077              	.LVL127:
 2078              	.L276:
 2079              		.cfi_restore_state
 2080              		.loc 1 356 0
 2081 002e BDEC028B 		fldmfdd	sp!, {d8}
 2082              		.cfi_remember_state
 2083              		.cfi_restore 80
 2084              		.cfi_restore 81
 2085              		.cfi_def_cfa_offset 8
 2086              	.LVL128:
 2087 0032 08BD     		pop	{r3, pc}
 2088              	.LVL129:
 2089              	.L278:
 2090              		.cfi_restore_state
 2091              		.loc 1 346 0
 2092 0034 B0EE480A 		fcpys	s0, s16
 2093              		.loc 1 356 0
 2094 0038 BDEC028B 		fldmfdd	sp!, {d8}
 2095              		.cfi_restore 80
 2096              		.cfi_restore 81
 2097              		.cfi_def_cfa_offset 8
 2098              	.LVL130:
 2099 003c BDE80840 		pop	{r3, lr}
 2100              		.cfi_restore 14
 2101              		.cfi_restore 3
 2102              		.cfi_def_cfa_offset 0
 2103              		.loc 1 346 0
 2104 0040 FFF7FEBF 		b	mcpwm_set_pid_speed
 2105              	.LVL131:
 2106              	.L282:
 2107              		.align	2
 2108              	.L281:
 2109 0044 00000000 		.word	.LANCHOR11
ARM GAS  /var/folders/47/g7cdn6zj55s1hhv4njp6x8_h0000gn/T//cc224n80.s 			page 38


 2110              		.cfi_endproc
 2111              	.LFE269:
 2112              		.size	mc_interface_set_pid_speed, .-mc_interface_set_pid_speed
 2113              		.section	.text.mc_interface_set_pid_pos,"ax",%progbits
 2114              		.align	2
 2115              		.p2align 4,,15
 2116              		.global	mc_interface_set_pid_pos
 2117              		.thumb
 2118              		.thumb_func
 2119              		.type	mc_interface_set_pid_pos, %function
 2120              	mc_interface_set_pid_pos:
 2121              	.LFB271:
 2122              		.loc 1 375 0
 2123              		.cfi_startproc
 2124              		@ args = 0, pretend = 0, frame = 0
 2125              		@ frame_needed = 0, uses_anonymous_args = 0
 2126              	.LVL132:
 2127 0000 08B5     		push	{r3, lr}
 2128              		.cfi_def_cfa_offset 8
 2129              		.cfi_offset 3, -8
 2130              		.cfi_offset 14, -4
 2131 0002 2DED028B 		fstmfdd	sp!, {d8}
 2132              		.cfi_def_cfa_offset 16
 2133              		.cfi_offset 80, -16
 2134              		.cfi_offset 81, -12
 2135              		.loc 1 375 0
 2136 0006 B0EE408A 		fcpys	s16, s0
 2137              		.loc 1 376 0
 2138 000a FFF7FEFF 		bl	mc_interface_try_input
 2139              	.LVL133:
 2140 000e 88B9     		cbnz	r0, .L283
 2141              		.loc 1 380 0
 2142 0010 0E4A     		ldr	r2, .L288
 2143              		.loc 1 382 0
 2144 0012 0F4B     		ldr	r3, .L288+4
 2145              		.loc 1 380 0
 2146 0014 82ED008A 		fsts	s16, [r2]
 2147              		.loc 1 382 0
 2148 0018 9B78     		ldrb	r3, [r3, #2]	@ zero_extendqisi2
 2149 001a DBB2     		uxtb	r3, r3
 2150 001c 012B     		cmp	r3, #1
 2151 001e 0CD9     		bls	.L285
 2152 0020 022B     		cmp	r3, #2
 2153 0022 07D1     		bne	.L283
 2154              		.loc 1 389 0
 2155 0024 B0EE480A 		fcpys	s0, s16
 2156              		.loc 1 395 0
 2157 0028 BDEC028B 		fldmfdd	sp!, {d8}
 2158              		.cfi_remember_state
 2159              		.cfi_restore 80
 2160              		.cfi_restore 81
 2161              		.cfi_def_cfa_offset 8
 2162              	.LVL134:
 2163 002c BDE80840 		pop	{r3, lr}
 2164              		.cfi_restore 14
 2165              		.cfi_restore 3
 2166              		.cfi_def_cfa_offset 0
ARM GAS  /var/folders/47/g7cdn6zj55s1hhv4njp6x8_h0000gn/T//cc224n80.s 			page 39


 2167              		.loc 1 389 0
 2168 0030 FFF7FEBF 		b	mcpwm_foc_set_pid_pos
 2169              	.LVL135:
 2170              	.L283:
 2171              		.cfi_restore_state
 2172              		.loc 1 395 0
 2173 0034 BDEC028B 		fldmfdd	sp!, {d8}
 2174              		.cfi_remember_state
 2175              		.cfi_restore 80
 2176              		.cfi_restore 81
 2177              		.cfi_def_cfa_offset 8
 2178              	.LVL136:
 2179 0038 08BD     		pop	{r3, pc}
 2180              	.LVL137:
 2181              	.L285:
 2182              		.cfi_restore_state
 2183              		.loc 1 385 0
 2184 003a B0EE480A 		fcpys	s0, s16
 2185              		.loc 1 395 0
 2186 003e BDEC028B 		fldmfdd	sp!, {d8}
 2187              		.cfi_restore 80
 2188              		.cfi_restore 81
 2189              		.cfi_def_cfa_offset 8
 2190              	.LVL138:
 2191 0042 BDE80840 		pop	{r3, lr}
 2192              		.cfi_restore 14
 2193              		.cfi_restore 3
 2194              		.cfi_def_cfa_offset 0
 2195              		.loc 1 385 0
 2196 0046 FFF7FEBF 		b	mcpwm_set_pid_pos
 2197              	.LVL139:
 2198              	.L289:
 2199 004a 00BF     		.align	2
 2200              	.L288:
 2201 004c 00000000 		.word	.LANCHOR25
 2202 0050 00000000 		.word	.LANCHOR11
 2203              		.cfi_endproc
 2204              	.LFE271:
 2205              		.size	mc_interface_set_pid_pos, .-mc_interface_set_pid_pos
 2206              		.section	.text.mc_interface_set_current,"ax",%progbits
 2207              		.align	2
 2208              		.p2align 4,,15
 2209              		.global	mc_interface_set_current
 2210              		.thumb
 2211              		.thumb_func
 2212              		.type	mc_interface_set_current, %function
 2213              	mc_interface_set_current:
 2214              	.LFB272:
 2215              		.loc 1 397 0
 2216              		.cfi_startproc
 2217              		@ args = 0, pretend = 0, frame = 0
 2218              		@ frame_needed = 0, uses_anonymous_args = 0
 2219              	.LVL140:
 2220 0000 08B5     		push	{r3, lr}
 2221              		.cfi_def_cfa_offset 8
 2222              		.cfi_offset 3, -8
 2223              		.cfi_offset 14, -4
ARM GAS  /var/folders/47/g7cdn6zj55s1hhv4njp6x8_h0000gn/T//cc224n80.s 			page 40


 2224 0002 2DED028B 		fstmfdd	sp!, {d8}
 2225              		.cfi_def_cfa_offset 16
 2226              		.cfi_offset 80, -16
 2227              		.cfi_offset 81, -12
 2228              		.loc 1 397 0
 2229 0006 B0EE408A 		fcpys	s16, s0
 2230              		.loc 1 398 0
 2231 000a FFF7FEFF 		bl	mc_interface_try_input
 2232              	.LVL141:
 2233 000e 70B9     		cbnz	r0, .L290
 2234              	.LVL142:
 2235              	.LBB87:
 2236              	.LBB88:
 2237              		.loc 1 402 0
 2238 0010 0C4B     		ldr	r3, .L295
 2239 0012 9B78     		ldrb	r3, [r3, #2]	@ zero_extendqisi2
 2240 0014 DBB2     		uxtb	r3, r3
 2241 0016 012B     		cmp	r3, #1
 2242 0018 0CD9     		bls	.L292
 2243 001a 022B     		cmp	r3, #2
 2244 001c 07D1     		bne	.L290
 2245              		.loc 1 409 0
 2246 001e B0EE480A 		fcpys	s0, s16
 2247              	.LBE88:
 2248              	.LBE87:
 2249              		.loc 1 415 0
 2250 0022 BDEC028B 		fldmfdd	sp!, {d8}
 2251              		.cfi_remember_state
 2252              		.cfi_restore 80
 2253              		.cfi_restore 81
 2254              		.cfi_def_cfa_offset 8
 2255              	.LVL143:
 2256 0026 BDE80840 		pop	{r3, lr}
 2257              		.cfi_restore 14
 2258              		.cfi_restore 3
 2259              		.cfi_def_cfa_offset 0
 2260              	.LBB92:
 2261              	.LBB89:
 2262              		.loc 1 409 0
 2263 002a FFF7FEBF 		b	mcpwm_foc_set_current
 2264              	.LVL144:
 2265              	.L290:
 2266              		.cfi_restore_state
 2267              	.LBE89:
 2268              	.LBE92:
 2269              		.loc 1 415 0
 2270 002e BDEC028B 		fldmfdd	sp!, {d8}
 2271              		.cfi_remember_state
 2272              		.cfi_restore 80
 2273              		.cfi_restore 81
 2274              		.cfi_def_cfa_offset 8
 2275              	.LVL145:
 2276 0032 08BD     		pop	{r3, pc}
 2277              	.LVL146:
 2278              	.L292:
 2279              		.cfi_restore_state
 2280              	.LBB93:
ARM GAS  /var/folders/47/g7cdn6zj55s1hhv4njp6x8_h0000gn/T//cc224n80.s 			page 41


 2281              	.LBB90:
 2282              		.loc 1 405 0
 2283 0034 B0EE480A 		fcpys	s0, s16
 2284              	.LBE90:
 2285              	.LBE93:
 2286              		.loc 1 415 0
 2287 0038 BDEC028B 		fldmfdd	sp!, {d8}
 2288              		.cfi_restore 80
 2289              		.cfi_restore 81
 2290              		.cfi_def_cfa_offset 8
 2291              	.LVL147:
 2292 003c BDE80840 		pop	{r3, lr}
 2293              		.cfi_restore 14
 2294              		.cfi_restore 3
 2295              		.cfi_def_cfa_offset 0
 2296              	.LBB94:
 2297              	.LBB91:
 2298              		.loc 1 405 0
 2299 0040 FFF7FEBF 		b	mcpwm_set_current
 2300              	.LVL148:
 2301              	.L296:
 2302              		.align	2
 2303              	.L295:
 2304 0044 00000000 		.word	.LANCHOR11
 2305              	.LBE91:
 2306              	.LBE94:
 2307              		.cfi_endproc
 2308              	.LFE272:
 2309              		.size	mc_interface_set_current, .-mc_interface_set_current
 2310              		.section	.text.mc_interface_release_motor,"ax",%progbits
 2311              		.align	2
 2312              		.p2align 4,,15
 2313              		.global	mc_interface_release_motor
 2314              		.thumb
 2315              		.thumb_func
 2316              		.type	mc_interface_release_motor, %function
 2317              	mc_interface_release_motor:
 2318              	.LFB275:
 2319              		.loc 1 444 0
 2320              		.cfi_startproc
 2321              		@ args = 0, pretend = 0, frame = 0
 2322              		@ frame_needed = 0, uses_anonymous_args = 0
 2323              		@ link register save eliminated.
 2324              		.loc 1 445 0
 2325 0000 9FED010A 		flds	s0, .L298
 2326 0004 FFF7FEBF 		b	mc_interface_set_current
 2327              	.LVL149:
 2328              	.L299:
 2329              		.align	2
 2330              	.L298:
 2331 0008 00000000 		.word	0
 2332              		.cfi_endproc
 2333              	.LFE275:
 2334              		.size	mc_interface_release_motor, .-mc_interface_release_motor
 2335              		.section	.text.mc_interface_set_brake_current,"ax",%progbits
 2336              		.align	2
 2337              		.p2align 4,,15
ARM GAS  /var/folders/47/g7cdn6zj55s1hhv4njp6x8_h0000gn/T//cc224n80.s 			page 42


 2338              		.global	mc_interface_set_brake_current
 2339              		.thumb
 2340              		.thumb_func
 2341              		.type	mc_interface_set_brake_current, %function
 2342              	mc_interface_set_brake_current:
 2343              	.LFB273:
 2344              		.loc 1 417 0
 2345              		.cfi_startproc
 2346              		@ args = 0, pretend = 0, frame = 0
 2347              		@ frame_needed = 0, uses_anonymous_args = 0
 2348              	.LVL150:
 2349 0000 08B5     		push	{r3, lr}
 2350              		.cfi_def_cfa_offset 8
 2351              		.cfi_offset 3, -8
 2352              		.cfi_offset 14, -4
 2353 0002 2DED028B 		fstmfdd	sp!, {d8}
 2354              		.cfi_def_cfa_offset 16
 2355              		.cfi_offset 80, -16
 2356              		.cfi_offset 81, -12
 2357              		.loc 1 417 0
 2358 0006 B0EE408A 		fcpys	s16, s0
 2359              		.loc 1 418 0
 2360 000a FFF7FEFF 		bl	mc_interface_try_input
 2361              	.LVL151:
 2362 000e 70B9     		cbnz	r0, .L300
 2363              		.loc 1 422 0
 2364 0010 0C4B     		ldr	r3, .L305
 2365 0012 9B78     		ldrb	r3, [r3, #2]	@ zero_extendqisi2
 2366 0014 DBB2     		uxtb	r3, r3
 2367 0016 012B     		cmp	r3, #1
 2368 0018 0CD9     		bls	.L302
 2369 001a 022B     		cmp	r3, #2
 2370 001c 07D1     		bne	.L300
 2371              		.loc 1 429 0
 2372 001e B0EE480A 		fcpys	s0, s16
 2373              		.loc 1 435 0
 2374 0022 BDEC028B 		fldmfdd	sp!, {d8}
 2375              		.cfi_remember_state
 2376              		.cfi_restore 80
 2377              		.cfi_restore 81
 2378              		.cfi_def_cfa_offset 8
 2379              	.LVL152:
 2380 0026 BDE80840 		pop	{r3, lr}
 2381              		.cfi_restore 14
 2382              		.cfi_restore 3
 2383              		.cfi_def_cfa_offset 0
 2384              		.loc 1 429 0
 2385 002a FFF7FEBF 		b	mcpwm_foc_set_brake_current
 2386              	.LVL153:
 2387              	.L300:
 2388              		.cfi_restore_state
 2389              		.loc 1 435 0
 2390 002e BDEC028B 		fldmfdd	sp!, {d8}
 2391              		.cfi_remember_state
 2392              		.cfi_restore 80
 2393              		.cfi_restore 81
 2394              		.cfi_def_cfa_offset 8
ARM GAS  /var/folders/47/g7cdn6zj55s1hhv4njp6x8_h0000gn/T//cc224n80.s 			page 43


 2395              	.LVL154:
 2396 0032 08BD     		pop	{r3, pc}
 2397              	.LVL155:
 2398              	.L302:
 2399              		.cfi_restore_state
 2400              		.loc 1 425 0
 2401 0034 B0EE480A 		fcpys	s0, s16
 2402              		.loc 1 435 0
 2403 0038 BDEC028B 		fldmfdd	sp!, {d8}
 2404              		.cfi_restore 80
 2405              		.cfi_restore 81
 2406              		.cfi_def_cfa_offset 8
 2407              	.LVL156:
 2408 003c BDE80840 		pop	{r3, lr}
 2409              		.cfi_restore 14
 2410              		.cfi_restore 3
 2411              		.cfi_def_cfa_offset 0
 2412              		.loc 1 425 0
 2413 0040 FFF7FEBF 		b	mcpwm_set_brake_current
 2414              	.LVL157:
 2415              	.L306:
 2416              		.align	2
 2417              	.L305:
 2418 0044 00000000 		.word	.LANCHOR11
 2419              		.cfi_endproc
 2420              	.LFE273:
 2421              		.size	mc_interface_set_brake_current, .-mc_interface_set_brake_current
 2422              		.section	.text.mc_interface_fault_stop,"ax",%progbits
 2423              		.align	2
 2424              		.p2align 4,,15
 2425              		.global	mc_interface_fault_stop
 2426              		.thumb
 2427              		.thumb_func
 2428              		.type	mc_interface_fault_stop, %function
 2429              	mc_interface_fault_stop:
 2430              	.LFB300:
 2431              		.loc 1 875 0
 2432              		.cfi_startproc
 2433              		@ args = 0, pretend = 0, frame = 64
 2434              		@ frame_needed = 0, uses_anonymous_args = 0
 2435              	.LVL158:
 2436 0000 F0B5     		push	{r4, r5, r6, r7, lr}
 2437              		.cfi_def_cfa_offset 20
 2438              		.cfi_offset 4, -20
 2439              		.cfi_offset 5, -16
 2440              		.cfi_offset 6, -12
 2441              		.cfi_offset 7, -8
 2442              		.cfi_offset 14, -4
 2443 0002 91B0     		sub	sp, sp, #68
 2444              		.cfi_def_cfa_offset 88
 2445              		.loc 1 875 0
 2446 0004 0546     		mov	r5, r0
 2447              		.loc 1 876 0
 2448 0006 FFF7FEFF 		bl	mc_interface_dccal_done
 2449              	.LVL159:
 2450 000a 404C     		ldr	r4, .L317
 2451 000c 08B1     		cbz	r0, .L308
ARM GAS  /var/folders/47/g7cdn6zj55s1hhv4njp6x8_h0000gn/T//cc224n80.s 			page 44


 2452              		.loc 1 876 0 is_stmt 0 discriminator 1
 2453 000e 2678     		ldrb	r6, [r4]	@ zero_extendqisi2
 2454 0010 A6B1     		cbz	r6, .L316
 2455              	.L308:
 2456              		.loc 1 902 0 is_stmt 1
 2457 0012 3F4B     		ldr	r3, .L317+4
 2458 0014 3F4A     		ldr	r2, .L317+8
 2459 0016 D3F81C11 		ldr	r1, [r3, #284]
 2460              		.loc 1 904 0
 2461 001a 9B78     		ldrb	r3, [r3, #2]	@ zero_extendqisi2
 2462              		.loc 1 902 0
 2463 001c 1160     		str	r1, [r2]
 2464              		.loc 1 904 0
 2465 001e DBB2     		uxtb	r3, r3
 2466 0020 012B     		cmp	r3, #1
 2467 0022 06D9     		bls	.L310
 2468 0024 022B     		cmp	r3, #2
 2469 0026 01D1     		bne	.L309
 2470              		.loc 1 911 0
 2471 0028 FFF7FEFF 		bl	mcpwm_foc_stop_pwm
 2472              	.LVL160:
 2473              	.L309:
 2474              		.loc 1 918 0
 2475 002c 2570     		strb	r5, [r4]
 2476              		.loc 1 919 0
 2477 002e 11B0     		add	sp, sp, #68
 2478              		.cfi_remember_state
 2479              		.cfi_def_cfa_offset 20
 2480              		@ sp needed
 2481 0030 F0BD     		pop	{r4, r5, r6, r7, pc}
 2482              	.L310:
 2483              		.cfi_restore_state
 2484              		.loc 1 907 0
 2485 0032 FFF7FEFF 		bl	mcpwm_stop_pwm
 2486              	.LVL161:
 2487              		.loc 1 918 0
 2488 0036 2570     		strb	r5, [r4]
 2489              		.loc 1 919 0
 2490 0038 11B0     		add	sp, sp, #68
 2491              		.cfi_remember_state
 2492              		.cfi_def_cfa_offset 20
 2493              		@ sp needed
 2494 003a F0BD     		pop	{r4, r5, r6, r7, pc}
 2495              	.L316:
 2496              		.cfi_restore_state
 2497              	.LVL162:
 2498              	.LBB95:
 2499              	.LBB96:
 2500              	.LBB97:
 2501              	.LBB98:
 2502              	.LBB99:
 2503              		.file 3 "ChibiOS_3.0.2/os/ext/CMSIS/include/core_cmFunc.h"
 2504              		.loc 3 546 0
 2505 003c 2023     		movs	r3, #32
 2506              	@ 546 "ChibiOS_3.0.2/os/ext/CMSIS/include/core_cmFunc.h" 1
 2507 003e 83F31188 		MSR basepri, r3
 2508              	@ 0 "" 2
ARM GAS  /var/folders/47/g7cdn6zj55s1hhv4njp6x8_h0000gn/T//cc224n80.s 			page 45


 2509              		.thumb
 2510              	.LBE99:
 2511              	.LBE98:
 2512              	.LBE97:
 2513              	.LBE96:
 2514              		.loc 1 880 0
 2515 0042 354A     		ldr	r2, .L317+12
 2516              		.loc 1 881 0
 2517 0044 354B     		ldr	r3, .L317+16
 2518              		.loc 1 880 0
 2519 0046 526B     		ldr	r2, [r2, #52]
 2520 0048 0092     		str	r2, [sp]
 2521              		.loc 1 881 0
 2522 004a 1A6C     		ldr	r2, [r3, #64]
 2523 004c 0192     		str	r2, [sp, #4]
 2524              		.loc 1 882 0
 2525 004e DB6A     		ldr	r3, [r3, #44]
 2526 0050 0293     		str	r3, [sp, #8]
 2527              	.LVL163:
 2528              	.LBB100:
 2529              	.LBB101:
 2530              	.LBB102:
 2531              	.LBB103:
 2532              	.LBB104:
 2533              		.loc 3 546 0
 2534              	@ 546 "ChibiOS_3.0.2/os/ext/CMSIS/include/core_cmFunc.h" 1
 2535 0052 86F31188 		MSR basepri, r6
 2536              	@ 0 "" 2
 2537              		.thumb
 2538              	.LBE104:
 2539              	.LBE103:
 2540              	.LBE102:
 2541              	.LBE101:
 2542              	.LBE100:
 2543              		.loc 1 886 0
 2544 0056 8DF80C50 		strb	r5, [sp, #12]
 2545              		.loc 1 887 0
 2546 005a FFF7FEFF 		bl	mc_interface_get_tot_current
 2547              	.LVL164:
 2548              		.loc 1 889 0
 2549 005e 304F     		ldr	r7, .L317+20
 2550              		.loc 1 887 0
 2551 0060 8DED040A 		fsts	s0, [sp, #16]
 2552              		.loc 1 888 0
 2553 0064 FFF7FEFF 		bl	mc_interface_get_tot_current_filtered
 2554              	.LVL165:
 2555              		.loc 1 889 0
 2556 0068 3B8A     		ldrh	r3, [r7, #16]
 2557 006a DFED2E6A 		flds	s13, .L317+24
 2558 006e 9FED2E7A 		flds	s14, .L317+28
 2559              		.loc 1 888 0
 2560 0072 8DED050A 		fsts	s0, [sp, #20]
 2561              		.loc 1 889 0
 2562 0076 9BB2     		uxth	r3, r3
 2563 0078 07EE903A 		fmsr	s15, r3	@ int
 2564 007c F8EE677A 		fuitos	s15, s15
 2565 0080 67EEA67A 		fmuls	s15, s15, s13
ARM GAS  /var/folders/47/g7cdn6zj55s1hhv4njp6x8_h0000gn/T//cc224n80.s 			page 46


 2566 0084 67EE877A 		fmuls	s15, s15, s14
 2567 0088 CDED067A 		fsts	s15, [sp, #24]
 2568              		.loc 1 890 0
 2569 008c FFF7FEFF 		bl	mc_interface_get_duty_cycle_now
 2570              	.LVL166:
 2571 0090 8DED070A 		fsts	s0, [sp, #28]
 2572              		.loc 1 891 0
 2573 0094 FFF7FEFF 		bl	mc_interface_get_rpm
 2574              	.LVL167:
 2575              		.loc 1 892 0
 2576 0098 3046     		mov	r0, r6
 2577              		.loc 1 891 0
 2578 009a 8DED080A 		fsts	s0, [sp, #32]
 2579              		.loc 1 892 0
 2580 009e FFF7FEFF 		bl	mc_interface_get_tachometer_value
 2581              	.LVL168:
 2582              		.loc 1 893 0
 2583 00a2 224B     		ldr	r3, .L317+32
 2584              		.loc 1 892 0
 2585 00a4 0990     		str	r0, [sp, #36]
 2586              		.loc 1 893 0
 2587 00a6 1868     		ldr	r0, [r3]
 2588              		.loc 1 894 0
 2589 00a8 0099     		ldr	r1, [sp]
 2590              		.loc 1 895 0
 2591 00aa 019A     		ldr	r2, [sp, #4]
 2592              		.loc 1 896 0
 2593 00ac 029B     		ldr	r3, [sp, #8]
 2594              		.loc 1 894 0
 2595 00ae 0B91     		str	r1, [sp, #44]
 2596              		.loc 1 895 0
 2597 00b0 0C92     		str	r2, [sp, #48]
 2598              		.loc 1 896 0
 2599 00b2 0D93     		str	r3, [sp, #52]
 2600              		.loc 1 893 0
 2601 00b4 0A90     		str	r0, [sp, #40]
 2602              		.loc 1 897 0
 2603 00b6 FFF7FEFF 		bl	mcpwm_get_comm_step
 2604              	.LVL169:
 2605              		.loc 1 898 0
 2606 00ba 7B89     		ldrh	r3, [r7, #10]
 2607 00bc 9FED1C7A 		flds	s14, .L317+36
 2608 00c0 9FED1C0A 		flds	s0, .L317+40
 2609              		.loc 1 897 0
 2610 00c4 0E90     		str	r0, [sp, #56]
 2611              		.loc 1 898 0
 2612 00c6 9BB2     		uxth	r3, r3
 2613 00c8 07EE903A 		fmsr	s15, r3	@ int
 2614 00cc F8EEE77A 		fsitos	s15, s15
 2615 00d0 C7EE277A 		fdivs	s15, s14, s15
 2616 00d4 77EEC07A 		fsubs	s15, s15, s0
 2617 00d8 87EE800A 		fdivs	s0, s15, s0
 2618 00dc FFF7FEFF 		bl	logf
 2619              	.LVL170:
 2620              		.loc 1 899 0
 2621 00e0 03A8     		add	r0, sp, #12
 2622              		.loc 1 898 0
ARM GAS  /var/folders/47/g7cdn6zj55s1hhv4njp6x8_h0000gn/T//cc224n80.s 			page 47


 2623 00e2 9FED157A 		flds	s14, .L317+44
 2624 00e6 DFED156A 		flds	s13, .L317+48
 2625 00ea DFED157A 		flds	s15, .L317+52
 2626 00ee 80EE070A 		fdivs	s0, s0, s14
 2627 00f2 B7EE007A 		fconsts	s14, #112
 2628 00f6 30EE260A 		fadds	s0, s0, s13
 2629 00fa 87EE000A 		fdivs	s0, s14, s0
 2630 00fe 70EE677A 		fsubs	s15, s0, s15
 2631 0102 CDED0F7A 		fsts	s15, [sp, #60]
 2632              		.loc 1 899 0
 2633 0106 FFF7FEFF 		bl	terminal_add_fault_data
 2634              	.LVL171:
 2635 010a 82E7     		b	.L308
 2636              	.L318:
 2637              		.align	2
 2638              	.L317:
 2639 010c 00000000 		.word	.LANCHOR12
 2640 0110 00000000 		.word	.LANCHOR11
 2641 0114 00000000 		.word	.LANCHOR13
 2642 0118 00040140 		.word	1073808384
 2643 011c 00000140 		.word	1073807360
 2644 0120 00000000 		.word	.LANCHOR36
 2645 0124 6740533A 		.word	978534503
 2646 0128 74D19541 		.word	1100337524
 2647 012c 00000000 		.word	.LANCHOR14
 2648 0130 3C361C4C 		.word	1276917308
 2649 0134 00401C46 		.word	1176256512
 2650 0138 00A05645 		.word	1163304960
 2651 013c 0FCF5B3B 		.word	995872527
 2652 0140 33938843 		.word	1133024051
 2653              	.LBE95:
 2654              		.cfi_endproc
 2655              	.LFE300:
 2656              		.size	mc_interface_fault_stop, .-mc_interface_fault_stop
 2657              		.section	.text.update_override_limits.constprop.3,"ax",%progbits
 2658              		.align	2
 2659              		.p2align 4,,15
 2660              		.thumb
 2661              		.thumb_func
 2662              		.type	update_override_limits.constprop.3, %function
 2663              	update_override_limits.constprop.3:
 2664              	.LFB309:
 2665              		.loc 1 1074 0
 2666              		.cfi_startproc
 2667              		@ args = 0, pretend = 0, frame = 0
 2668              		@ frame_needed = 0, uses_anonymous_args = 0
 2669              	.LVL172:
 2670 0000 38B5     		push	{r3, r4, r5, lr}
 2671              		.cfi_def_cfa_offset 16
 2672              		.cfi_offset 3, -16
 2673              		.cfi_offset 4, -12
 2674              		.cfi_offset 5, -8
 2675              		.cfi_offset 14, -4
 2676              		.loc 1 1075 0
 2677 0002 674D     		ldr	r5, .L353
 2678 0004 9FED677A 		flds	s14, .L353+4
 2679 0008 6B89     		ldrh	r3, [r5, #10]
ARM GAS  /var/folders/47/g7cdn6zj55s1hhv4njp6x8_h0000gn/T//cc224n80.s 			page 48


 2680 000a 9FED670A 		flds	s0, .L353+8
 2681              		.loc 1 1079 0
 2682 000e 674C     		ldr	r4, .L353+12
 2683              		.loc 1 1075 0
 2684 0010 9BB2     		uxth	r3, r3
 2685 0012 07EE903A 		fmsr	s15, r3	@ int
 2686 0016 F8EEE77A 		fsitos	s15, s15
 2687              		.loc 1 1074 0
 2688 001a 2DED028B 		fstmfdd	sp!, {d8}
 2689              		.cfi_def_cfa_offset 24
 2690              		.cfi_offset 80, -24
 2691              		.cfi_offset 81, -20
 2692              		.loc 1 1075 0
 2693 001e C7EE277A 		fdivs	s15, s14, s15
 2694              		.loc 1 1076 0
 2695 0022 9FED638A 		flds	s16, .L353+16
 2696              		.loc 1 1075 0
 2697 0026 77EEC07A 		fsubs	s15, s15, s0
 2698 002a 87EE800A 		fdivs	s0, s15, s0
 2699 002e FFF7FEFF 		bl	logf
 2700              	.LVL173:
 2701              		.loc 1 1076 0
 2702 0032 2B8A     		ldrh	r3, [r5, #16]
 2703 0034 9BB2     		uxth	r3, r3
 2704              		.loc 1 1075 0
 2705 0036 9FED5F7A 		flds	s14, .L353+20
 2706 003a DFED5F7A 		flds	s15, .L353+24
 2707 003e DFED5F5A 		flds	s11, .L353+28
 2708              		.loc 1 1079 0
 2709 0042 D4ED0F6A 		flds	s13, [r4, #60]
 2710              		.loc 1 1076 0
 2711 0046 9FED5E6A 		flds	s12, .L353+32
 2712              		.loc 1 1075 0
 2713 004a 80EE070A 		fdivs	s0, s0, s14
 2714 004e B7EE007A 		fconsts	s14, #112
 2715 0052 30EE270A 		fadds	s0, s0, s15
 2716              		.loc 1 1076 0
 2717 0056 07EE903A 		fmsr	s15, r3	@ int
 2718              		.loc 1 1075 0
 2719 005a 87EE000A 		fdivs	s0, s14, s0
 2720              		.loc 1 1076 0
 2721 005e F8EE677A 		fuitos	s15, s15
 2722              		.loc 1 1075 0
 2723 0062 30EE650A 		fsubs	s0, s0, s11
 2724              	.LVL174:
 2725              		.loc 1 1076 0
 2726 0066 67EE887A 		fmuls	s15, s15, s16
 2727              		.loc 1 1079 0
 2728 006a B4EEE60A 		fcmpes	s0, s13
 2729 006e F1EE10FA 		fmstat
 2730              		.loc 1 1076 0
 2731 0072 27EE868A 		fmuls	s16, s15, s12
 2732              	.LVL175:
 2733              		.loc 1 1079 0
 2734 0076 19D5     		bpl	.L346
 2735              		.loc 1 1080 0
 2736 0078 A368     		ldr	r3, [r4, #8]	@ float
ARM GAS  /var/folders/47/g7cdn6zj55s1hhv4njp6x8_h0000gn/T//cc224n80.s 			page 49


 2737 007a A365     		str	r3, [r4, #88]	@ float
 2738              		.loc 1 1081 0
 2739 007c 6368     		ldr	r3, [r4, #4]	@ float
 2740 007e 6365     		str	r3, [r4, #84]	@ float
 2741              	.LVL176:
 2742              	.L322:
 2743              		.loc 1 1104 0
 2744 0080 D4ED0C7A 		flds	s15, [r4, #48]
 2745 0084 494D     		ldr	r5, .L353+12
 2746 0086 B4EEE78A 		fcmpes	s16, s15
 2747 008a F1EE10FA 		fmstat
 2748 008e 78DC     		bgt	.L351
 2749              		.loc 1 1106 0
 2750 0090 D5ED0D7A 		flds	s15, [r5, #52]
 2751 0094 B4EEE78A 		fcmpes	s16, s15
 2752 0098 F1EE10FA 		fmstat
 2753 009c 5ED5     		bpl	.L349
 2754              		.loc 1 1114 0
 2755 009e BDEC028B 		fldmfdd	sp!, {d8}
 2756              		.cfi_remember_state
 2757              		.cfi_restore 80
 2758              		.cfi_restore 81
 2759              		.cfi_def_cfa_offset 16
 2760              	.LVL177:
 2761              		.loc 1 1107 0
 2762 00a2 0023     		movs	r3, #0
 2763 00a4 EB65     		str	r3, [r5, #92]	@ float
 2764              		.loc 1 1113 0
 2765 00a6 2369     		ldr	r3, [r4, #16]	@ float
 2766 00a8 2366     		str	r3, [r4, #96]	@ float
 2767              		.loc 1 1114 0
 2768 00aa 38BD     		pop	{r3, r4, r5, pc}
 2769              	.LVL178:
 2770              	.L346:
 2771              		.cfi_restore_state
 2772              		.loc 1 1082 0
 2773 00ac D4ED107A 		flds	s15, [r4, #64]
 2774 00b0 B4EEE70A 		fcmpes	s0, s15
 2775 00b4 F1EE10FA 		fmstat
 2776 00b8 6ADC     		bgt	.L352
 2777              	.LBB105:
 2778              		.loc 1 1087 0
 2779 00ba D4ED011A 		flds	s3, [r4, #4]
 2780              		.loc 1 1088 0
 2781 00be D4ED027A 		flds	s15, [r4, #8]
 2782              		.loc 1 1092 0
 2783 00c2 9FED402A 		flds	s4, .L353+36
 2784 00c6 394D     		ldr	r5, .L353+12
 2785              		.loc 1 1087 0
 2786 00c8 F0EEE11A 		fabss	s3, s3
 2787              	.LVL179:
 2788              		.loc 1 1088 0
 2789 00cc F0EEE77A 		fabss	s15, s15
 2790 00d0 F4EEE71A 		fcmpes	s3, s15
 2791 00d4 F1EE10FA 		fmstat
 2792              		.loc 1 1089 0
 2793 00d8 48BF     		it	mi
ARM GAS  /var/folders/47/g7cdn6zj55s1hhv4njp6x8_h0000gn/T//cc224n80.s 			page 50


 2794 00da D4ED021A 		fldsmi	s3, [r4, #8]
 2795              	.LVL180:
 2796              		.loc 1 1092 0
 2797 00de D4ED0F0A 		flds	s1, [r4, #60]
 2798 00e2 94ED101A 		flds	s2, [r4, #64]
 2799              		.loc 1 1089 0
 2800 00e6 48BF     		it	mi
 2801 00e8 F0EEE11A 		fabssmi	s3, s3
 2802              	.LVL181:
 2803              		.loc 1 1092 0
 2804 00ec FFF7FEFF 		bl	utils_map
 2805              	.LVL182:
 2806              		.loc 1 1094 0
 2807 00f0 D4ED017A 		flds	s15, [r4, #4]
 2808 00f4 F0EEE77A 		fabss	s15, s15
 2809 00f8 B4EEE70A 		fcmpes	s0, s15
 2810 00fc F1EE10FA 		fmstat
 2811 0100 10D5     		bpl	.L327
 2812              		.loc 1 1095 0
 2813 0102 D5ED017A 		flds	s15, [r5, #4]
 2814 0106 F5EEC07A 		fcmpezs	s15
 2815 010a F1EE10FA 		fmstat
 2816 010e FFEE007A 		fconsts	s15, #240
 2817 0112 B7EE007A 		fconsts	s14, #112
 2818 0116 58BF     		it	pl
 2819 0118 F0EE477A 		fcpyspl	s15, s14
 2820 011c 60EE277A 		fmuls	s15, s0, s15
 2821 0120 C4ED157A 		fsts	s15, [r4, #84]
 2822              	.L327:
 2823              		.loc 1 1098 0
 2824 0124 D4ED027A 		flds	s15, [r4, #8]
 2825 0128 204B     		ldr	r3, .L353+12
 2826 012a F0EEE77A 		fabss	s15, s15
 2827 012e B4EEE70A 		fcmpes	s0, s15
 2828 0132 F1EE10FA 		fmstat
 2829 0136 A3D5     		bpl	.L322
 2830              		.loc 1 1099 0
 2831 0138 D3ED027A 		flds	s15, [r3, #8]
 2832 013c F5EEC07A 		fcmpezs	s15
 2833 0140 F1EE10FA 		fmstat
 2834 0144 FFEE007A 		fconsts	s15, #240
 2835 0148 B7EE007A 		fconsts	s14, #112
 2836 014c 58BF     		it	pl
 2837 014e F0EE477A 		fcpyspl	s15, s14
 2838 0152 20EE270A 		fmuls	s0, s0, s15
 2839              	.LVL183:
 2840 0156 84ED160A 		fsts	s0, [r4, #88]
 2841 015a 91E7     		b	.L322
 2842              	.L349:
 2843              	.LBE105:
 2844              		.loc 1 1109 0
 2845 015c D5ED0C0A 		flds	s1, [r5, #48]
 2846 0160 9FED182A 		flds	s4, .L353+36
 2847 0164 95ED0D1A 		flds	s2, [r5, #52]
 2848 0168 D5ED031A 		flds	s3, [r5, #12]
 2849 016c B0EE480A 		fcpys	s0, s16
 2850 0170 FFF7FEFF 		bl	utils_map
ARM GAS  /var/folders/47/g7cdn6zj55s1hhv4njp6x8_h0000gn/T//cc224n80.s 			page 51


 2851              	.LVL184:
 2852              		.loc 1 1114 0
 2853 0174 BDEC028B 		fldmfdd	sp!, {d8}
 2854              		.cfi_remember_state
 2855              		.cfi_restore 80
 2856              		.cfi_restore 81
 2857              		.cfi_def_cfa_offset 16
 2858              	.LVL185:
 2859              		.loc 1 1109 0
 2860 0178 85ED170A 		fsts	s0, [r5, #92]
 2861              		.loc 1 1113 0
 2862 017c 2369     		ldr	r3, [r4, #16]	@ float
 2863 017e 2366     		str	r3, [r4, #96]	@ float
 2864              		.loc 1 1114 0
 2865 0180 38BD     		pop	{r3, r4, r5, pc}
 2866              	.LVL186:
 2867              	.L351:
 2868              		.cfi_restore_state
 2869 0182 BDEC028B 		fldmfdd	sp!, {d8}
 2870              		.cfi_remember_state
 2871              		.cfi_restore 80
 2872              		.cfi_restore 81
 2873              		.cfi_def_cfa_offset 16
 2874              	.LVL187:
 2875              		.loc 1 1105 0
 2876 0186 EB68     		ldr	r3, [r5, #12]	@ float
 2877 0188 EB65     		str	r3, [r5, #92]	@ float
 2878              		.loc 1 1113 0
 2879 018a 2369     		ldr	r3, [r4, #16]	@ float
 2880 018c 2366     		str	r3, [r4, #96]	@ float
 2881              		.loc 1 1114 0
 2882 018e 38BD     		pop	{r3, r4, r5, pc}
 2883              	.LVL188:
 2884              	.L352:
 2885              		.cfi_restore_state
 2886              		.loc 1 1083 0
 2887 0190 0023     		movs	r3, #0
 2888              		.loc 1 1085 0
 2889 0192 0520     		movs	r0, #5
 2890              		.loc 1 1083 0
 2891 0194 A365     		str	r3, [r4, #88]	@ float
 2892              		.loc 1 1084 0
 2893 0196 6365     		str	r3, [r4, #84]	@ float
 2894              		.loc 1 1085 0
 2895 0198 FFF7FEFF 		bl	mc_interface_fault_stop
 2896              	.LVL189:
 2897 019c 70E7     		b	.L322
 2898              	.L354:
 2899 019e 00BF     		.align	2
 2900              	.L353:
 2901 01a0 00000000 		.word	.LANCHOR36
 2902 01a4 3C361C4C 		.word	1276917308
 2903 01a8 00401C46 		.word	1176256512
 2904 01ac 00000000 		.word	.LANCHOR11
 2905 01b0 6740533A 		.word	978534503
 2906 01b4 00A05645 		.word	1163304960
 2907 01b8 0FCF5B3B 		.word	995872527
ARM GAS  /var/folders/47/g7cdn6zj55s1hhv4njp6x8_h0000gn/T//cc224n80.s 			page 52


 2908 01bc 33938843 		.word	1133024051
 2909 01c0 74D19541 		.word	1100337524
 2910 01c4 00000000 		.word	0
 2911              		.cfi_endproc
 2912              	.LFE309:
 2913              		.size	update_override_limits.constprop.3, .-update_override_limits.constprop.3
 2914              		.section	.text.mc_interface_set_configuration,"ax",%progbits
 2915              		.align	2
 2916              		.p2align 4,,15
 2917              		.global	mc_interface_set_configuration
 2918              		.thumb
 2919              		.thumb_func
 2920              		.type	mc_interface_set_configuration, %function
 2921              	mc_interface_set_configuration:
 2922              	.LFB258:
 2923              		.loc 1 157 0
 2924              		.cfi_startproc
 2925              		@ args = 0, pretend = 0, frame = 0
 2926              		@ frame_needed = 0, uses_anonymous_args = 0
 2927              	.LVL190:
 2928 0000 70B5     		push	{r4, r5, r6, lr}
 2929              		.cfi_def_cfa_offset 16
 2930              		.cfi_offset 4, -16
 2931              		.cfi_offset 5, -12
 2932              		.cfi_offset 6, -8
 2933              		.cfi_offset 14, -4
 2934              		.loc 1 159 0
 2935 0002 324D     		ldr	r5, .L376
 2936 0004 90F83031 		ldrb	r3, [r0, #304]	@ zero_extendqisi2
 2937 0008 95F83021 		ldrb	r2, [r5, #304]	@ zero_extendqisi2
 2938 000c 9A42     		cmp	r2, r3
 2939              		.loc 1 157 0
 2940 000e 0446     		mov	r4, r0
 2941              		.loc 1 159 0
 2942 0010 07D0     		beq	.L356
 2943              		.loc 1 160 0
 2944 0012 FFF7FEFF 		bl	encoder_deinit
 2945              	.LVL191:
 2946              		.loc 1 161 0
 2947 0016 94F83031 		ldrb	r3, [r4, #304]	@ zero_extendqisi2
 2948 001a 012B     		cmp	r3, #1
 2949 001c 40D0     		beq	.L357
 2950 001e 022B     		cmp	r3, #2
 2951 0020 33D0     		beq	.L358
 2952              	.L356:
 2953              		.loc 1 175 0
 2954 0022 012B     		cmp	r3, #1
 2955 0024 37D0     		beq	.L373
 2956              	.L359:
 2957              		.loc 1 180 0
 2958 0026 AB78     		ldrb	r3, [r5, #2]	@ zero_extendqisi2
 2959 0028 284E     		ldr	r6, .L376
 2960 002a 022B     		cmp	r3, #2
 2961 002c 1ED0     		beq	.L374
 2962              		.loc 1 185 0
 2963 002e B378     		ldrb	r3, [r6, #2]	@ zero_extendqisi2
 2964 0030 022B     		cmp	r3, #2
ARM GAS  /var/folders/47/g7cdn6zj55s1hhv4njp6x8_h0000gn/T//cc224n80.s 			page 53


 2965 0032 02D0     		beq	.L363
 2966              		.loc 1 186 0
 2967 0034 A378     		ldrb	r3, [r4, #2]	@ zero_extendqisi2
 2968 0036 022B     		cmp	r3, #2
 2969 0038 3CD0     		beq	.L367
 2970              	.L363:
 2971              		.loc 1 191 0
 2972 003a 2146     		mov	r1, r4
 2973 003c 2348     		ldr	r0, .L376
 2974 003e 4FF49A72 		mov	r2, #308
 2975 0042 FFF7FEFF 		bl	memcpy
 2976              	.LVL192:
 2977              	.L362:
 2978              		.loc 1 194 0
 2979 0046 FFF7FEFF 		bl	update_override_limits.constprop.3
 2980              	.LVL193:
 2981              		.loc 1 196 0
 2982 004a AB78     		ldrb	r3, [r5, #2]	@ zero_extendqisi2
 2983 004c DBB2     		uxtb	r3, r3
 2984 004e 012B     		cmp	r3, #1
 2985 0050 07D9     		bls	.L365
 2986 0052 022B     		cmp	r3, #2
 2987 0054 04D1     		bne	.L375
 2988              		.loc 1 203 0
 2989 0056 1D48     		ldr	r0, .L376
 2990              		.loc 1 209 0
 2991 0058 BDE87040 		pop	{r4, r5, r6, lr}
 2992              		.cfi_remember_state
 2993              		.cfi_restore 14
 2994              		.cfi_restore 6
 2995              		.cfi_restore 5
 2996              		.cfi_restore 4
 2997              		.cfi_def_cfa_offset 0
 2998              	.LVL194:
 2999              		.loc 1 203 0
 3000 005c FFF7FEBF 		b	mcpwm_foc_set_configuration
 3001              	.LVL195:
 3002              	.L375:
 3003              		.cfi_restore_state
 3004 0060 70BD     		pop	{r4, r5, r6, pc}
 3005              	.LVL196:
 3006              	.L365:
 3007              		.loc 1 199 0
 3008 0062 1A48     		ldr	r0, .L376
 3009              		.loc 1 209 0
 3010 0064 BDE87040 		pop	{r4, r5, r6, lr}
 3011              		.cfi_remember_state
 3012              		.cfi_restore 14
 3013              		.cfi_restore 6
 3014              		.cfi_restore 5
 3015              		.cfi_restore 4
 3016              		.cfi_def_cfa_offset 0
 3017              	.LVL197:
 3018              		.loc 1 199 0
 3019 0068 FFF7FEBF 		b	mcpwm_set_configuration
 3020              	.LVL198:
 3021              	.L374:
ARM GAS  /var/folders/47/g7cdn6zj55s1hhv4njp6x8_h0000gn/T//cc224n80.s 			page 54


 3022              		.cfi_restore_state
 3023              		.loc 1 181 0
 3024 006c A378     		ldrb	r3, [r4, #2]	@ zero_extendqisi2
 3025 006e 022B     		cmp	r3, #2
 3026 0070 1DD0     		beq	.L361
 3027              		.loc 1 182 0
 3028 0072 FFF7FEFF 		bl	mcpwm_foc_deinit
 3029              	.LVL199:
 3030              		.loc 1 183 0
 3031 0076 3046     		mov	r0, r6
 3032 0078 2146     		mov	r1, r4
 3033 007a 4FF49A72 		mov	r2, #308
 3034 007e FFF7FEFF 		bl	memcpy
 3035              	.LVL200:
 3036              		.loc 1 184 0
 3037 0082 3046     		mov	r0, r6
 3038 0084 FFF7FEFF 		bl	mcpwm_init
 3039              	.LVL201:
 3040 0088 DDE7     		b	.L362
 3041              	.L358:
 3042              		.loc 1 167 0
 3043 008a FFF7FEFF 		bl	encoder_init_as5047p_spi
 3044              	.LVL202:
 3045 008e 94F83031 		ldrb	r3, [r4, #304]	@ zero_extendqisi2
 3046              		.loc 1 175 0
 3047 0092 012B     		cmp	r3, #1
 3048 0094 C7D1     		bne	.L359
 3049              	.L373:
 3050              		.loc 1 176 0
 3051 0096 D4F82C01 		ldr	r0, [r4, #300]
 3052 009a FFF7FEFF 		bl	encoder_set_counts
 3053              	.LVL203:
 3054 009e C2E7     		b	.L359
 3055              	.L357:
 3056              		.loc 1 163 0
 3057 00a0 D4F82C01 		ldr	r0, [r4, #300]
 3058 00a4 FFF7FEFF 		bl	encoder_init_abi
 3059              	.LVL204:
 3060 00a8 94F83031 		ldrb	r3, [r4, #304]	@ zero_extendqisi2
 3061              		.loc 1 164 0
 3062 00ac B9E7     		b	.L356
 3063              	.L361:
 3064              		.loc 1 185 0
 3065 00ae B378     		ldrb	r3, [r6, #2]	@ zero_extendqisi2
 3066 00b0 022B     		cmp	r3, #2
 3067 00b2 C2D0     		beq	.L363
 3068              	.L367:
 3069              		.loc 1 187 0
 3070 00b4 FFF7FEFF 		bl	mcpwm_deinit
 3071              	.LVL205:
 3072              		.loc 1 188 0
 3073 00b8 2146     		mov	r1, r4
 3074 00ba 4FF49A72 		mov	r2, #308
 3075 00be 0348     		ldr	r0, .L376
 3076 00c0 FFF7FEFF 		bl	memcpy
 3077              	.LVL206:
 3078              		.loc 1 189 0
ARM GAS  /var/folders/47/g7cdn6zj55s1hhv4njp6x8_h0000gn/T//cc224n80.s 			page 55


 3079 00c4 0148     		ldr	r0, .L376
 3080 00c6 FFF7FEFF 		bl	mcpwm_foc_init
 3081              	.LVL207:
 3082 00ca BCE7     		b	.L362
 3083              	.L377:
 3084              		.align	2
 3085              	.L376:
 3086 00cc 00000000 		.word	.LANCHOR11
 3087              		.cfi_endproc
 3088              	.LFE258:
 3089              		.size	mc_interface_set_configuration, .-mc_interface_set_configuration
 3090              		.section	.text.timer_thread,"ax",%progbits
 3091              		.align	2
 3092              		.p2align 4,,15
 3093              		.thumb
 3094              		.thumb_func
 3095              		.type	timer_thread, %function
 3096              	timer_thread:
 3097              	.LFB304:
 3098              		.loc 1 1116 0
 3099              		.cfi_startproc
 3100              		@ Volatile: function does not return.
 3101              		@ args = 0, pretend = 0, frame = 0
 3102              		@ frame_needed = 0, uses_anonymous_args = 0
 3103              	.LVL208:
 3104              	.LBB106:
 3105              	.LBB107:
 3106              		.loc 2 135 0
 3107 0000 124B     		ldr	r3, .L388
 3108 0002 134D     		ldr	r5, .L388+4
 3109 0004 9B69     		ldr	r3, [r3, #24]
 3110 0006 134A     		ldr	r2, .L388+8
 3111              	.LBE107:
 3112              	.LBE106:
 3113              		.loc 1 1123 0
 3114 0008 134C     		ldr	r4, .L388+12
 3115              		.loc 1 1116 0
 3116 000a 80B5     		push	{r7, lr}
 3117              		.cfi_def_cfa_offset 8
 3118              		.cfi_offset 7, -8
 3119              		.cfi_offset 14, -4
 3120              		.loc 1 1128 0
 3121 000c 2E46     		mov	r6, r5
 3122 000e 134F     		ldr	r7, .L388+16
 3123              	.LBB109:
 3124              	.LBB108:
 3125              		.loc 2 135 0
 3126 0010 9A61     		str	r2, [r3, #24]
 3127 0012 0AE0     		b	.L382
 3128              	.LVL209:
 3129              	.L379:
 3130              	.LBE108:
 3131              	.LBE109:
 3132              		.loc 1 1128 0
 3133 0014 2B68     		ldr	r3, [r5]
 3134 0016 002B     		cmp	r3, #0
 3135              		.loc 1 1129 0
ARM GAS  /var/folders/47/g7cdn6zj55s1hhv4njp6x8_h0000gn/T//cc224n80.s 			page 56


 3136 0018 03F1FF33 		add	r3, r3, #-1
 3137              		.loc 1 1128 0
 3138 001c 10DD     		ble	.L380
 3139              	.L387:
 3140              		.loc 1 1129 0
 3141 001e 3360     		str	r3, [r6]
 3142              	.L381:
 3143              		.loc 1 1136 0
 3144 0020 FFF7FEFF 		bl	update_override_limits.constprop.3
 3145              	.LVL210:
 3146              		.loc 1 1138 0
 3147 0024 0A20     		movs	r0, #10
 3148 0026 FFF7FEFF 		bl	chThdSleep
 3149              	.LVL211:
 3150              	.L382:
 3151              		.loc 1 1123 0
 3152 002a 2369     		ldr	r3, [r4, #16]
 3153 002c DA04     		lsls	r2, r3, #19
 3154 002e F1D4     		bmi	.L379
 3155              		.loc 1 1124 0
 3156 0030 0320     		movs	r0, #3
 3157 0032 FFF7FEFF 		bl	mc_interface_fault_stop
 3158              	.LVL212:
 3159              		.loc 1 1128 0
 3160 0036 2B68     		ldr	r3, [r5]
 3161 0038 002B     		cmp	r3, #0
 3162              		.loc 1 1129 0
 3163 003a 03F1FF33 		add	r3, r3, #-1
 3164              		.loc 1 1128 0
 3165 003e EEDC     		bgt	.L387
 3166              	.L380:
 3167              		.loc 1 1131 0
 3168 0040 2369     		ldr	r3, [r4, #16]
 3169 0042 DB04     		lsls	r3, r3, #19
 3170              		.loc 1 1132 0
 3171 0044 44BF     		itt	mi
 3172 0046 0023     		movmi	r3, #0
 3173 0048 3B70     		strbmi	r3, [r7]
 3174 004a E9E7     		b	.L381
 3175              	.L389:
 3176              		.align	2
 3177              	.L388:
 3178 004c 00000000 		.word	ch
 3179 0050 00000000 		.word	.LANCHOR13
 3180 0054 20000000 		.word	.LC2
 3181 0058 00080240 		.word	1073874944
 3182 005c 00000000 		.word	.LANCHOR12
 3183              		.cfi_endproc
 3184              	.LFE304:
 3185              		.size	timer_thread, .-timer_thread
 3186              		.section	.text.mc_interface_mc_timer_isr,"ax",%progbits
 3187              		.align	2
 3188              		.p2align 4,,15
 3189              		.global	mc_interface_mc_timer_isr
 3190              		.thumb
 3191              		.thumb_func
 3192              		.type	mc_interface_mc_timer_isr, %function
ARM GAS  /var/folders/47/g7cdn6zj55s1hhv4njp6x8_h0000gn/T//cc224n80.s 			page 57


 3193              	mc_interface_mc_timer_isr:
 3194              	.LFB301:
 3195              		.loc 1 921 0
 3196              		.cfi_startproc
 3197              		@ args = 0, pretend = 0, frame = 8
 3198              		@ frame_needed = 0, uses_anonymous_args = 0
 3199 0000 2DE9F043 		push	{r4, r5, r6, r7, r8, r9, lr}
 3200              		.cfi_def_cfa_offset 28
 3201              		.cfi_offset 4, -28
 3202              		.cfi_offset 5, -24
 3203              		.cfi_offset 6, -20
 3204              		.cfi_offset 7, -16
 3205              		.cfi_offset 8, -12
 3206              		.cfi_offset 9, -8
 3207              		.cfi_offset 14, -4
 3208 0004 2DED048B 		fstmfdd	sp!, {d8, d9}
 3209              		.cfi_def_cfa_offset 44
 3210              		.cfi_offset 80, -44
 3211              		.cfi_offset 81, -40
 3212              		.cfi_offset 82, -36
 3213              		.cfi_offset 83, -32
 3214              		.loc 1 924 0
 3215 0008 C04D     		ldr	r5, .L441
 3216 000a 9FEDC18A 		flds	s16, .L441+4
 3217              		.loc 1 928 0
 3218 000e C14C     		ldr	r4, .L441+8
 3219              		.loc 1 921 0
 3220 0010 83B0     		sub	sp, sp, #12
 3221              		.cfi_def_cfa_offset 56
 3222              		.loc 1 922 0
 3223 0012 FFF7FEFF 		bl	ledpwm_update_pwm
 3224              	.LVL213:
 3225              		.loc 1 924 0
 3226 0016 2B8A     		ldrh	r3, [r5, #16]
 3227 0018 DFEDBF6A 		flds	s13, .L441+12
 3228              		.loc 1 928 0
 3229 001c 94ED0A7A 		flds	s14, [r4, #40]
 3230              		.loc 1 924 0
 3231 0020 9BB2     		uxth	r3, r3
 3232 0022 07EE903A 		fmsr	s15, r3	@ int
 3233 0026 F8EE677A 		fuitos	s15, s15
 3234 002a 67EE887A 		fmuls	s15, s15, s16
 3235 002e 27EEA68A 		fmuls	s16, s15, s13
 3236              	.LVL214:
 3237              		.loc 1 928 0
 3238 0032 B4EEC78A 		fcmpes	s16, s14
 3239 0036 F1EE10FA 		fmstat
 3240 003a 07D4     		bmi	.L391
 3241              		.loc 1 929 0 discriminator 1
 3242 003c D4ED0B7A 		flds	s15, [r4, #44]
 3243              		.loc 1 928 0 discriminator 1
 3244 0040 B4EEE78A 		fcmpes	s16, s15
 3245 0044 F1EE10FA 		fmstat
 3246 0048 40F3D780 		ble	.L429
 3247              	.L391:
 3248              		.loc 1 930 0
 3249 004c B34A     		ldr	r2, .L441+16
ARM GAS  /var/folders/47/g7cdn6zj55s1hhv4njp6x8_h0000gn/T//cc224n80.s 			page 58


 3250 004e 1368     		ldr	r3, [r2]
 3251 0050 0133     		adds	r3, r3, #1
 3252              		.loc 1 932 0
 3253 0052 072B     		cmp	r3, #7
 3254              		.loc 1 930 0
 3255 0054 1360     		str	r3, [r2]
 3256              		.loc 1 932 0
 3257 0056 00F38F80 		bgt	.L433
 3258              	.L394:
 3259              		.loc 1 940 0
 3260 005a FFF7FEFF 		bl	mc_interface_get_state
 3261              	.LVL215:
 3262 005e 0228     		cmp	r0, #2
 3263 0060 00F09A80 		beq	.L434
 3264              	.L396:
 3265              		.loc 1 943 0
 3266 0064 AE4B     		ldr	r3, .L441+20
 3267 0066 0022     		movs	r2, #0
 3268 0068 1A60     		str	r2, [r3]
 3269              	.L397:
 3270              		.loc 1 946 0
 3271 006a AE4B     		ldr	r3, .L441+24
 3272 006c 1B68     		ldr	r3, [r3]
 3273 006e 03B1     		cbz	r3, .L398
 3274              		.loc 1 947 0
 3275 0070 9847     		blx	r3
 3276              	.LVL216:
 3277              	.L398:
 3278              		.loc 1 950 0
 3279 0072 FFF7FEFF 		bl	mc_interface_get_tot_current_filtered
 3280              	.LVL217:
 3281 0076 B0EE409A 		fcpys	s18, s0
 3282              	.LVL218:
 3283              		.loc 1 951 0
 3284 007a FFF7FEFF 		bl	mc_interface_get_tot_current_in_filtered
 3285              	.LVL219:
 3286              		.loc 1 952 0
 3287 007e AA48     		ldr	r0, .L441+28
 3288              		.loc 1 953 0
 3289 0080 AA49     		ldr	r1, .L441+32
 3290              		.loc 1 952 0
 3291 0082 90ED007A 		flds	s14, [r0]
 3292              		.loc 1 954 0
 3293 0086 AA4A     		ldr	r2, .L441+36
 3294              		.loc 1 955 0
 3295 0088 AA4B     		ldr	r3, .L441+40
 3296              		.loc 1 952 0
 3297 008a 37EE097A 		fadds	s14, s14, s18
 3298              		.loc 1 954 0
 3299 008e F7EE006A 		fconsts	s13, #112
 3300              		.loc 1 952 0
 3301 0092 80ED007A 		fsts	s14, [r0]
 3302              		.loc 1 953 0
 3303 0096 91ED007A 		flds	s14, [r1]
 3304 009a 37EE007A 		fadds	s14, s14, s0
 3305              		.loc 1 951 0
 3306 009e F0EE408A 		fcpys	s17, s0
ARM GAS  /var/folders/47/g7cdn6zj55s1hhv4njp6x8_h0000gn/T//cc224n80.s 			page 59


 3307              	.LVL220:
 3308              		.loc 1 953 0
 3309 00a2 81ED007A 		fsts	s14, [r1]
 3310              		.loc 1 954 0
 3311 00a6 92ED007A 		flds	s14, [r2]
 3312 00aa 37EE267A 		fadds	s14, s14, s13
 3313 00ae 82ED007A 		fsts	s14, [r2]
 3314              		.loc 1 955 0
 3315 00b2 D3ED007A 		flds	s15, [r3]
 3316 00b6 77EEA67A 		fadds	s15, s15, s13
 3317 00ba C3ED007A 		fsts	s15, [r3]
 3318              		.loc 1 957 0
 3319 00be FFF7FEFF 		bl	mc_interface_get_tot_current
 3320              	.LVL221:
 3321              		.loc 1 959 0
 3322 00c2 A378     		ldrb	r3, [r4, #2]	@ zero_extendqisi2
 3323 00c4 022B     		cmp	r3, #2
 3324              		.loc 1 957 0
 3325 00c6 F0EE409A 		fcpys	s19, s0
 3326              	.LVL222:
 3327              		.loc 1 959 0
 3328 00ca 00F01781 		beq	.L435
 3329              		.loc 1 958 0
 3330 00ce B0EE490A 		fcpys	s0, s18
 3331              	.LVL223:
 3332              	.L399:
 3333              		.loc 1 966 0
 3334 00d2 94F83820 		ldrb	r2, [r4, #56]	@ zero_extendqisi2
 3335 00d6 8F4B     		ldr	r3, .L441+8
 3336              		.loc 1 967 0
 3337 00d8 D3ED057A 		flds	s15, [r3, #20]
 3338              		.loc 1 966 0
 3339 00dc 002A     		cmp	r2, #0
 3340 00de 40D0     		beq	.L400
 3341              		.loc 1 967 0
 3342 00e0 B0EEC00A 		fabss	s0, s0
 3343              	.LVL224:
 3344 00e4 B4EEE70A 		fcmpes	s0, s15
 3345 00e8 F1EE10FA 		fmstat
 3346 00ec 40DC     		bgt	.L403
 3347              	.LVL225:
 3348              	.L401:
 3349              		.loc 1 977 0
 3350 00ee FFF7FEFF 		bl	mc_interface_get_sampling_frequency_now
 3351              	.LVL226:
 3352              		.loc 1 978 0
 3353 00f2 B0EEC99A 		fabss	s18, s18
 3354              	.LVL227:
 3355 00f6 F7EE007A 		fconsts	s15, #112
 3356 00fa B4EEE79A 		fcmpes	s18, s15
 3357 00fe F1EE10FA 		fmstat
 3358              		.loc 1 977 0
 3359 0102 F0EE409A 		fcpys	s19, s0
 3360              	.LVL228:
 3361              		.loc 1 978 0
 3362 0106 18DD     		ble	.L405
 3363              	.LBB110:
ARM GAS  /var/folders/47/g7cdn6zj55s1hhv4njp6x8_h0000gn/T//cc224n80.s 			page 60


 3364              		.loc 1 984 0
 3365 0108 C7EE807A 		fdivs	s15, s15, s0
 3366 010c 8A4A     		ldr	r2, .L441+44
 3367              		.loc 1 983 0
 3368 010e 8B4B     		ldr	r3, .L441+48
 3369 0110 C8EE808A 		fdivs	s17, s17, s0
 3370              	.LVL229:
 3371              		.loc 1 984 0
 3372 0114 D2ED006A 		flds	s13, [r2]
 3373              		.loc 1 983 0
 3374 0118 93ED006A 		flds	s12, [r3]
 3375              		.loc 1 986 0
 3376 011c 9FED887A 		flds	s14, .L441+52
 3377              		.loc 1 984 0
 3378 0120 77EEA67A 		fadds	s15, s15, s13
 3379              		.loc 1 983 0
 3380 0124 78EE868A 		fadds	s17, s17, s12
 3381              		.loc 1 986 0
 3382 0128 F4EEC77A 		fcmpes	s15, s14
 3383 012c F1EE10FA 		fmstat
 3384              		.loc 1 983 0
 3385 0130 C3ED008A 		fsts	s17, [r3]
 3386              		.loc 1 984 0
 3387 0134 C2ED007A 		fsts	s15, [r2]
 3388              		.loc 1 986 0
 3389 0138 33DA     		bge	.L436
 3390              	.L405:
 3391              	.LBE110:
 3392              		.loc 1 1001 0
 3393 013a 824C     		ldr	r4, .L441+56
 3394 013c 2368     		ldr	r3, [r4]
 3395 013e 002B     		cmp	r3, #0
 3396 0140 4AD1     		bne	.L437
 3397              	.LVL230:
 3398              	.L432:
 3399 0142 814E     		ldr	r6, .L441+60
 3400              	.L412:
 3401              		.loc 1 1009 0
 3402 0144 3268     		ldr	r2, [r6]
 3403 0146 3AB9     		cbnz	r2, .L390
 3404              		.loc 1 1010 0
 3405 0148 8049     		ldr	r1, .L441+64
 3406              		.loc 1 1011 0
 3407 014a 8148     		ldr	r0, .L441+68
 3408              		.loc 1 1010 0
 3409 014c 0B68     		ldr	r3, [r1]
 3410              		.loc 1 1011 0
 3411 014e 0068     		ldr	r0, [r0]
 3412              		.loc 1 1010 0
 3413 0150 0133     		adds	r3, r3, #1
 3414              		.loc 1 1011 0
 3415 0152 8342     		cmp	r3, r0
 3416              		.loc 1 1010 0
 3417 0154 0B60     		str	r3, [r1]
 3418              		.loc 1 1011 0
 3419 0156 54DA     		bge	.L438
 3420              	.L390:
ARM GAS  /var/folders/47/g7cdn6zj55s1hhv4njp6x8_h0000gn/T//cc224n80.s 			page 61


 3421              		.loc 1 1050 0
 3422 0158 03B0     		add	sp, sp, #12
 3423              		.cfi_remember_state
 3424              		.cfi_def_cfa_offset 44
 3425              		@ sp needed
 3426 015a BDEC048B 		fldmfdd	sp!, {d8-d9}
 3427              		.cfi_restore 82
 3428              		.cfi_restore 83
 3429              		.cfi_restore 80
 3430              		.cfi_restore 81
 3431              		.cfi_def_cfa_offset 28
 3432              	.LVL231:
 3433 015e BDE8F083 		pop	{r4, r5, r6, r7, r8, r9, pc}
 3434              	.LVL232:
 3435              	.L400:
 3436              		.cfi_restore_state
 3437              		.loc 1 971 0
 3438 0162 F0EEE99A 		fabss	s19, s19
 3439              	.LVL233:
 3440 0166 F4EEE79A 		fcmpes	s19, s15
 3441 016a F1EE10FA 		fmstat
 3442 016e BEDD     		ble	.L401
 3443              	.LVL234:
 3444              	.L403:
 3445              		.loc 1 968 0
 3446 0170 0420     		movs	r0, #4
 3447 0172 FFF7FEFF 		bl	mc_interface_fault_stop
 3448              	.LVL235:
 3449 0176 BAE7     		b	.L401
 3450              	.LVL236:
 3451              	.L433:
 3452              		.loc 1 933 0
 3453 0178 D4ED0A7A 		flds	s15, [r4, #40]
 3454 017c B4EEE78A 		fcmpes	s16, s15
 3455 0180 F1EE10FA 		fmstat
 3456 0184 4CBF     		ite	mi
 3457 0186 0220     		movmi	r0, #2
 3458 0188 0120     		movpl	r0, #1
 3459 018a FFF7FEFF 		bl	mc_interface_fault_stop
 3460              	.LVL237:
 3461              		.loc 1 940 0
 3462 018e FFF7FEFF 		bl	mc_interface_get_state
 3463              	.LVL238:
 3464 0192 0228     		cmp	r0, #2
 3465 0194 7FF466AF 		bne	.L396
 3466              	.L434:
 3467              		.loc 1 941 0
 3468 0198 614A     		ldr	r2, .L441+20
 3469 019a 1368     		ldr	r3, [r2]
 3470 019c 0133     		adds	r3, r3, #1
 3471 019e 1360     		str	r3, [r2]
 3472 01a0 63E7     		b	.L397
 3473              	.LVL239:
 3474              	.L436:
 3475              	.LBB111:
 3476              		.loc 1 987 0
 3477 01a2 F5EEC08A 		fcmpezs	s17
ARM GAS  /var/folders/47/g7cdn6zj55s1hhv4njp6x8_h0000gn/T//cc224n80.s 			page 62


 3478 01a6 F1EE10FA 		fmstat
 3479 01aa 40F3F780 		ble	.L430
 3480              		.loc 1 988 0
 3481 01ae 6948     		ldr	r0, .L441+72
 3482              		.loc 1 989 0
 3483 01b0 6949     		ldr	r1, .L441+76
 3484              		.loc 1 988 0
 3485 01b2 D0ED007A 		flds	s15, [r0]
 3486 01b6 78EEA77A 		fadds	s15, s17, s15
 3487 01ba C0ED007A 		fsts	s15, [r0]
 3488              		.loc 1 989 0
 3489 01be D1ED007A 		flds	s15, [r1]
 3490 01c2 E8EE287A 		vfma.f32	s15, s16, s17
 3491 01c6 C1ED007A 		fsts	s15, [r1]
 3492              	.L410:
 3493              	.LBE111:
 3494              		.loc 1 1001 0
 3495 01ca 5E4C     		ldr	r4, .L441+56
 3496              	.LBB112:
 3497              		.loc 1 995 0
 3498 01cc 0021     		movs	r1, #0
 3499              		.loc 1 996 0
 3500 01ce 1960     		str	r1, [r3]	@ float
 3501              	.LBE112:
 3502              		.loc 1 1001 0
 3503 01d0 2368     		ldr	r3, [r4]
 3504              	.LBB113:
 3505              		.loc 1 995 0
 3506 01d2 1160     		str	r1, [r2]	@ float
 3507              	.LBE113:
 3508              		.loc 1 1001 0
 3509 01d4 002B     		cmp	r3, #0
 3510 01d6 B4D0     		beq	.L432
 3511              	.L437:
 3512              		.loc 1 1001 0 is_stmt 0 discriminator 1
 3513 01d8 FFF7FEFF 		bl	mc_interface_get_state
 3514              	.LVL240:
 3515 01dc 0228     		cmp	r0, #2
 3516 01de 05D0     		beq	.L414
 3517              		.loc 1 1002 0 is_stmt 1 discriminator 2
 3518 01e0 FFF7FEFF 		bl	mcpwm_get_comm_step
 3519              	.LVL241:
 3520 01e4 5D4B     		ldr	r3, .L441+80
 3521 01e6 1B68     		ldr	r3, [r3]
 3522              		.loc 1 1001 0 discriminator 2
 3523 01e8 9842     		cmp	r0, r3
 3524 01ea AAD0     		beq	.L432
 3525              	.L414:
 3526              		.loc 1 1003 0
 3527 01ec 5C4A     		ldr	r2, .L441+84
 3528              		.loc 1 1004 0
 3529 01ee 564E     		ldr	r6, .L441+60
 3530              		.loc 1 1003 0
 3531 01f0 0023     		movs	r3, #0
 3532 01f2 1360     		str	r3, [r2]
 3533              		.loc 1 1004 0
 3534 01f4 3360     		str	r3, [r6]
ARM GAS  /var/folders/47/g7cdn6zj55s1hhv4njp6x8_h0000gn/T//cc224n80.s 			page 63


 3535              		.loc 1 1005 0
 3536 01f6 2360     		str	r3, [r4]
 3537 01f8 A4E7     		b	.L412
 3538              	.LVL242:
 3539              	.L429:
 3540              		.loc 1 937 0
 3541 01fa 484B     		ldr	r3, .L441+16
 3542 01fc 0022     		movs	r2, #0
 3543 01fe 1A60     		str	r2, [r3]
 3544 0200 2BE7     		b	.L394
 3545              	.LVL243:
 3546              	.L438:
 3547              		.loc 1 1012 0
 3548 0202 0A60     		str	r2, [r1]
 3549              		.loc 1 1014 0
 3550 0204 FFF7FEFF 		bl	mc_interface_get_state
 3551              	.LVL244:
 3552 0208 0128     		cmp	r0, #1
 3553              		.loc 1 1015 0
 3554 020a 554C     		ldr	r4, .L441+84
 3555              		.loc 1 1014 0
 3556 020c 00F0E380 		beq	.L439
 3557              		.loc 1 1022 0
 3558 0210 DFF87CE1 		ldr	lr, .L441+132
 3559 0214 D4F80090 		ldr	r9, [r4]
 3560 0218 DEF80030 		ldr	r3, [lr]
 3561 021c DFF87481 		ldr	r8, .L441+136
 3562              		.loc 1 1023 0
 3563 0220 DFF874C1 		ldr	ip, .L441+140
 3564              		.loc 1 1025 0
 3565 0224 4F4A     		ldr	r2, .L441+88
 3566 0226 504F     		ldr	r7, .L441+92
 3567              		.loc 1 1026 0
 3568 0228 5048     		ldr	r0, .L441+96
 3569              		.loc 1 1027 0
 3570 022a 5149     		ldr	r1, .L441+100
 3571              		.loc 1 1022 0
 3572 022c 9BB2     		uxth	r3, r3
 3573 022e 28F81930 		strh	r3, [r8, r9, lsl #1]	@ movhi
 3574              		.loc 1 1023 0
 3575 0232 D4F80080 		ldr	r8, [r4]
 3576 0236 DEF80430 		ldr	r3, [lr, #4]
 3577 023a 9BB2     		uxth	r3, r3
 3578 023c 2CF81830 		strh	r3, [ip, r8, lsl #1]	@ movhi
 3579              		.loc 1 1025 0
 3580 0240 D4F800E0 		ldr	lr, [r4]
 3581 0244 AB88     		ldrh	r3, [r5, #4]
 3582 0246 D2F800C0 		ldr	ip, [r2]
 3583 024a CCEB0303 		rsb	r3, ip, r3
 3584 024e 9BB2     		uxth	r3, r3
 3585 0250 27F81E30 		strh	r3, [r7, lr, lsl #1]	@ movhi
 3586              		.loc 1 1026 0
 3587 0254 2768     		ldr	r7, [r4]
 3588 0256 6B88     		ldrh	r3, [r5, #2]
 3589 0258 D2F800E0 		ldr	lr, [r2]
 3590 025c CEEB0303 		rsb	r3, lr, r3
 3591 0260 9BB2     		uxth	r3, r3
ARM GAS  /var/folders/47/g7cdn6zj55s1hhv4njp6x8_h0000gn/T//cc224n80.s 			page 64


 3592 0262 20F81730 		strh	r3, [r0, r7, lsl #1]	@ movhi
 3593              		.loc 1 1027 0
 3594 0266 2068     		ldr	r0, [r4]
 3595 0268 2B88     		ldrh	r3, [r5]
 3596 026a 1568     		ldr	r5, [r2]
 3597 026c 5B1B     		subs	r3, r3, r5
 3598 026e 9BB2     		uxth	r3, r3
 3599 0270 21F81030 		strh	r3, [r1, r0, lsl #1]	@ movhi
 3600              	.L420:
 3601              		.loc 1 1030 0
 3602 0274 2168     		ldr	r1, [r4]
 3603 0276 1368     		ldr	r3, [r2]
 3604 0278 3E4A     		ldr	r2, .L441+104
 3605 027a 394F     		ldr	r7, .L441+84
 3606 027c 9BB2     		uxth	r3, r3
 3607 027e 22F81130 		strh	r3, [r2, r1, lsl #1]	@ movhi
 3608              		.loc 1 1032 0
 3609 0282 2568     		ldr	r5, [r4]
 3610 0284 FFF7FEFF 		bl	mc_interface_get_tot_current
 3611              	.LVL245:
 3612              		.loc 1 1033 0
 3613 0288 F2EE047A 		fconsts	s15, #36
 3614 028c C9EEA79A 		fdivs	s19, s19, s15
 3615              	.LVL246:
 3616              		.loc 1 1032 0
 3617 0290 3948     		ldr	r0, .L441+108
 3618              		.loc 1 1033 0
 3619 0292 3A49     		ldr	r1, .L441+112
 3620              		.loc 1 1032 0
 3621 0294 DFED3A7A 		flds	s15, .L441+116
 3622 0298 20EE270A 		fmuls	s0, s0, s15
 3623              		.loc 1 1033 0
 3624 029c FDEEE99A 		ftosizs	s19, s19
 3625              		.loc 1 1032 0
 3626 02a0 BDEEC00A 		ftosizs	s0, s0
 3627              		.loc 1 1033 0
 3628 02a4 CDED019A 		fsts	s19, [sp, #4]	@ int
 3629 02a8 BDF80430 		ldrh	r3, [sp, #4]
 3630              		.loc 1 1032 0
 3631 02ac 8DED010A 		fsts	s0, [sp, #4]	@ int
 3632 02b0 BDF80420 		ldrh	r2, [sp, #4]
 3633 02b4 20F81520 		strh	r2, [r0, r5, lsl #1]	@ movhi
 3634              		.loc 1 1033 0
 3635 02b8 2268     		ldr	r2, [r4]
 3636 02ba 21F81230 		strh	r3, [r1, r2, lsl #1]	@ movhi
 3637              		.loc 1 1035 0
 3638 02be D4F80080 		ldr	r8, [r4]
 3639 02c2 FFF7FEFF 		bl	mcpwm_get_comm_step
 3640              	.LVL247:
 3641 02c6 0546     		mov	r5, r0
 3642 02c8 FFF7FEFF 		bl	mcpwm_read_hall_phase
 3643              	.LVL248:
 3644 02cc 2D4B     		ldr	r3, .L441+120
 3645              		.loc 1 1039 0
 3646 02ce 2E49     		ldr	r1, .L441+124
 3647              		.loc 1 1035 0
 3648 02d0 45EAC000 		orr	r0, r5, r0, lsl #3
ARM GAS  /var/folders/47/g7cdn6zj55s1hhv4njp6x8_h0000gn/T//cc224n80.s 			page 65


 3649 02d4 C0B2     		uxtb	r0, r0
 3650 02d6 03F80800 		strb	r0, [r3, r8]
 3651              		.loc 1 1037 0
 3652 02da 2368     		ldr	r3, [r4]
 3653 02dc 0133     		adds	r3, r3, #1
 3654 02de 2360     		str	r3, [r4]
 3655              		.loc 1 1039 0
 3656 02e0 2268     		ldr	r2, [r4]
 3657 02e2 0B68     		ldr	r3, [r1]
 3658 02e4 9A42     		cmp	r2, r3
 3659 02e6 68D0     		beq	.L440
 3660              	.L421:
 3661              		.loc 1 1047 0
 3662 02e8 FFF7FEFF 		bl	mcpwm_get_last_adc_isr_duration
 3663              	.LVL249:
 3664 02ec 274B     		ldr	r3, .L441+128
 3665 02ee 83ED000A 		fsts	s0, [r3]
 3666              		.loc 1 1050 0
 3667 02f2 03B0     		add	sp, sp, #12
 3668              		.cfi_remember_state
 3669              		.cfi_def_cfa_offset 44
 3670              		@ sp needed
 3671 02f4 BDEC048B 		fldmfdd	sp!, {d8-d9}
 3672              		.cfi_restore 80
 3673              		.cfi_restore 81
 3674              		.cfi_restore 82
 3675              		.cfi_restore 83
 3676              		.cfi_def_cfa_offset 28
 3677              	.LVL250:
 3678 02f8 BDE8F083 		pop	{r4, r5, r6, r7, r8, r9, pc}
 3679              	.LVL251:
 3680              	.L435:
 3681              		.cfi_restore_state
 3682              		.loc 1 961 0
 3683 02fc FFF7FEFF 		bl	mcpwm_foc_get_abs_motor_current
 3684              	.LVL252:
 3685 0300 F0EE409A 		fcpys	s19, s0
 3686              	.LVL253:
 3687              		.loc 1 962 0
 3688 0304 FFF7FEFF 		bl	mcpwm_foc_get_abs_motor_current_filtered
 3689              	.LVL254:
 3690 0308 E3E6     		b	.L399
 3691              	.L442:
 3692 030a 00BF     		.align	2
 3693              	.L441:
 3694 030c 00000000 		.word	.LANCHOR36
 3695 0310 6740533A 		.word	978534503
 3696 0314 00000000 		.word	.LANCHOR11
 3697 0318 74D19541 		.word	1100337524
 3698 031c 00000000 		.word	.LANCHOR37
 3699 0320 00000000 		.word	.LANCHOR14
 3700 0324 00000000 		.word	.LANCHOR34
 3701 0328 00000000 		.word	.LANCHOR17
 3702 032c 00000000 		.word	.LANCHOR18
 3703 0330 00000000 		.word	.LANCHOR19
 3704 0334 00000000 		.word	.LANCHOR20
 3705 0338 00000000 		.word	.LANCHOR39
ARM GAS  /var/folders/47/g7cdn6zj55s1hhv4njp6x8_h0000gn/T//cc224n80.s 			page 66


 3706 033c 00000000 		.word	.LANCHOR38
 3707 0340 0AD7233C 		.word	1008981770
 3708 0344 00000000 		.word	.LANCHOR30
 3709 0348 00000000 		.word	.LANCHOR28
 3710 034c 00000000 		.word	.LANCHOR40
 3711 0350 00000000 		.word	.LANCHOR27
 3712 0354 00000000 		.word	.LANCHOR21
 3713 0358 00000000 		.word	.LANCHOR23
 3714 035c 00000000 		.word	.LANCHOR31
 3715 0360 00000000 		.word	.LANCHOR29
 3716 0364 00000000 		.word	mcpwm_vzero
 3717 0368 00000000 		.word	.LANCHOR4
 3718 036c 00000000 		.word	.LANCHOR5
 3719 0370 00000000 		.word	.LANCHOR6
 3720 0374 00000000 		.word	.LANCHOR7
 3721 0378 00000000 		.word	.LANCHOR9
 3722 037c 00000000 		.word	.LANCHOR10
 3723 0380 0000C842 		.word	1120403456
 3724 0384 00000000 		.word	.LANCHOR8
 3725 0388 00000000 		.word	.LANCHOR1
 3726 038c 00000000 		.word	.LANCHOR26
 3727 0390 00000000 		.word	.LANCHOR41
 3728 0394 00000000 		.word	.LANCHOR2
 3729 0398 00000000 		.word	.LANCHOR3
 3730              	.LVL255:
 3731              	.L430:
 3732              	.LBB114:
 3733              		.loc 1 991 0
 3734 039c 3548     		ldr	r0, .L443
 3735              		.loc 1 992 0
 3736 039e 3649     		ldr	r1, .L443+4
 3737              		.loc 1 991 0
 3738 03a0 D0ED007A 		flds	s15, [r0]
 3739 03a4 77EEE87A 		fsubs	s15, s15, s17
 3740 03a8 C0ED007A 		fsts	s15, [r0]
 3741              		.loc 1 992 0
 3742 03ac D1ED007A 		flds	s15, [r1]
 3743 03b0 E8EE687A 		vfms.f32	s15, s16, s17
 3744 03b4 C1ED007A 		fsts	s15, [r1]
 3745 03b8 07E7     		b	.L410
 3746              	.LVL256:
 3747              	.L440:
 3748              	.LBE114:
 3749              		.loc 1 1040 0
 3750 03ba 0121     		movs	r1, #1
 3751              		.loc 1 1041 0
 3752 03bc 0024     		movs	r4, #0
 3753              		.loc 1 1040 0
 3754 03be 3160     		str	r1, [r6]
 3755              	.LBB115:
 3756              	.LBB116:
 3757              	.LBB117:
 3758              	.LBB118:
 3759              	.LBB119:
 3760              		.loc 3 546 0
 3761 03c0 2023     		movs	r3, #32
 3762              	.LBE119:
ARM GAS  /var/folders/47/g7cdn6zj55s1hhv4njp6x8_h0000gn/T//cc224n80.s 			page 67


 3763              	.LBE118:
 3764              	.LBE117:
 3765              	.LBE116:
 3766              	.LBE115:
 3767              		.loc 1 1041 0
 3768 03c2 3C60     		str	r4, [r7]
 3769              	.LVL257:
 3770              	.LBB124:
 3771              	.LBB123:
 3772              	.LBB122:
 3773              	.LBB121:
 3774              	.LBB120:
 3775              		.loc 3 546 0
 3776              	@ 546 "ChibiOS_3.0.2/os/ext/CMSIS/include/core_cmFunc.h" 1
 3777 03c4 83F31188 		MSR basepri, r3
 3778              	@ 0 "" 2
 3779              		.thumb
 3780              	.LBE120:
 3781              	.LBE121:
 3782              	.LBE122:
 3783              	.LBE123:
 3784              	.LBE124:
 3785              		.loc 1 1043 0
 3786 03c8 2C4B     		ldr	r3, .L443+8
 3787 03ca 1868     		ldr	r0, [r3]
 3788 03cc FFF7FEFF 		bl	chEvtSignalI
 3789              	.LVL258:
 3790              	.LBB125:
 3791              	.LBB126:
 3792              	.LBB127:
 3793              	.LBB128:
 3794              	.LBB129:
 3795              		.loc 3 546 0
 3796              	@ 546 "ChibiOS_3.0.2/os/ext/CMSIS/include/core_cmFunc.h" 1
 3797 03d0 84F31188 		MSR basepri, r4
 3798              	@ 0 "" 2
 3799              		.thumb
 3800 03d4 88E7     		b	.L421
 3801              	.LVL259:
 3802              	.L439:
 3803              	.LBE129:
 3804              	.LBE128:
 3805              	.LBE127:
 3806              	.LBE126:
 3807              	.LBE125:
 3808              		.loc 1 1015 0
 3809 03d6 2568     		ldr	r5, [r4]
 3810              		.loc 1 1019 0
 3811 03d8 294F     		ldr	r7, .L443+12
 3812              		.loc 1 1015 0
 3813 03da FFF7FEFF 		bl	mcpwm_get_comm_step
 3814              	.LVL260:
 3815 03de 294B     		ldr	r3, .L443+16
 3816 03e0 294A     		ldr	r2, .L443+20
 3817 03e2 0138     		subs	r0, r0, #1
 3818 03e4 03EB8003 		add	r3, r3, r0, lsl #2
 3819 03e8 D3ED007A 		flds	s15, [r3]
ARM GAS  /var/folders/47/g7cdn6zj55s1hhv4njp6x8_h0000gn/T//cc224n80.s 			page 68


 3820 03ec FDEEE77A 		ftosizs	s15, s15
 3821 03f0 CDED017A 		fsts	s15, [sp, #4]	@ int
 3822 03f4 BDF80430 		ldrh	r3, [sp, #4]
 3823 03f8 22F81530 		strh	r3, [r2, r5, lsl #1]	@ movhi
 3824              		.loc 1 1016 0
 3825 03fc D4F80080 		ldr	r8, [r4]
 3826              		.loc 1 1020 0
 3827 0400 224D     		ldr	r5, .L443+24
 3828              		.loc 1 1016 0
 3829 0402 FFF7FEFF 		bl	mcpwm_get_comm_step
 3830              	.LVL261:
 3831 0406 224B     		ldr	r3, .L443+28
 3832 0408 DFF890C0 		ldr	ip, .L443+40
 3833              		.loc 1 1018 0
 3834 040c 2149     		ldr	r1, .L443+32
 3835 040e DFF890E0 		ldr	lr, .L443+44
 3836 0412 214A     		ldr	r2, .L443+36
 3837              		.loc 1 1016 0
 3838 0414 0138     		subs	r0, r0, #1
 3839 0416 03EB8003 		add	r3, r3, r0, lsl #2
 3840 041a D3ED007A 		flds	s15, [r3]
 3841 041e FDEEE77A 		ftosizs	s15, s15
 3842 0422 CDED017A 		fsts	s15, [sp, #4]	@ int
 3843 0426 BDF80430 		ldrh	r3, [sp, #4]
 3844 042a 2CF81830 		strh	r3, [ip, r8, lsl #1]	@ movhi
 3845              		.loc 1 1018 0
 3846 042e 2068     		ldr	r0, [r4]
 3847 0430 D1ED007A 		flds	s15, [r1]
 3848 0434 FDEEE77A 		ftosizs	s15, s15
 3849 0438 CDED017A 		fsts	s15, [sp, #4]	@ int
 3850 043c BDF80430 		ldrh	r3, [sp, #4]
 3851 0440 2EF81030 		strh	r3, [lr, r0, lsl #1]	@ movhi
 3852              		.loc 1 1019 0
 3853 0444 2068     		ldr	r0, [r4]
 3854 0446 D1ED017A 		flds	s15, [r1, #4]
 3855 044a FDEEE77A 		ftosizs	s15, s15
 3856 044e CDED017A 		fsts	s15, [sp, #4]	@ int
 3857 0452 BDF80430 		ldrh	r3, [sp, #4]
 3858 0456 27F81030 		strh	r3, [r7, r0, lsl #1]	@ movhi
 3859              		.loc 1 1020 0
 3860 045a 2068     		ldr	r0, [r4]
 3861 045c D1ED027A 		flds	s15, [r1, #8]
 3862 0460 FDEEE77A 		ftosizs	s15, s15
 3863 0464 CDED017A 		fsts	s15, [sp, #4]	@ int
 3864 0468 BDF80430 		ldrh	r3, [sp, #4]
 3865 046c 25F81030 		strh	r3, [r5, r0, lsl #1]	@ movhi
 3866 0470 00E7     		b	.L420
 3867              	.L444:
 3868 0472 00BF     		.align	2
 3869              	.L443:
 3870 0474 00000000 		.word	.LANCHOR22
 3871 0478 00000000 		.word	.LANCHOR24
 3872 047c 00000000 		.word	.LANCHOR0
 3873 0480 00000000 		.word	.LANCHOR5
 3874 0484 00000000 		.word	mcpwm_detect_currents
 3875 0488 00000000 		.word	.LANCHOR2
 3876 048c 00000000 		.word	.LANCHOR6
ARM GAS  /var/folders/47/g7cdn6zj55s1hhv4njp6x8_h0000gn/T//cc224n80.s 			page 69


 3877 0490 00000000 		.word	mcpwm_detect_currents_diff
 3878 0494 00000000 		.word	mcpwm_detect_voltages
 3879 0498 00000000 		.word	mcpwm_vzero
 3880 049c 00000000 		.word	.LANCHOR3
 3881 04a0 00000000 		.word	.LANCHOR4
 3882              		.cfi_endproc
 3883              	.LFE301:
 3884              		.size	mc_interface_mc_timer_isr, .-mc_interface_mc_timer_isr
 3885              		.section	.text.mc_interface_adc_inj_int_handler,"ax",%progbits
 3886              		.align	2
 3887              		.p2align 4,,15
 3888              		.global	mc_interface_adc_inj_int_handler
 3889              		.thumb
 3890              		.thumb_func
 3891              		.type	mc_interface_adc_inj_int_handler, %function
 3892              	mc_interface_adc_inj_int_handler:
 3893              	.LFB302:
 3894              		.loc 1 1052 0
 3895              		.cfi_startproc
 3896              		@ args = 0, pretend = 0, frame = 0
 3897              		@ frame_needed = 0, uses_anonymous_args = 0
 3898              		@ link register save eliminated.
 3899              		.loc 1 1053 0
 3900 0000 054B     		ldr	r3, .L451
 3901 0002 9B78     		ldrb	r3, [r3, #2]	@ zero_extendqisi2
 3902 0004 DBB2     		uxtb	r3, r3
 3903 0006 012B     		cmp	r3, #1
 3904 0008 04D9     		bls	.L447
 3905 000a 022B     		cmp	r3, #2
 3906 000c 01D1     		bne	.L450
 3907              		.loc 1 1060 0
 3908 000e FFF7FEBF 		b	mcpwm_foc_adc_inj_int_handler
 3909              	.LVL262:
 3910              	.L450:
 3911 0012 7047     		bx	lr
 3912              	.L447:
 3913              		.loc 1 1056 0
 3914 0014 FFF7FEBF 		b	mcpwm_adc_inj_int_handler
 3915              	.LVL263:
 3916              	.L452:
 3917              		.align	2
 3918              	.L451:
 3919 0018 00000000 		.word	.LANCHOR11
 3920              		.cfi_endproc
 3921              	.LFE302:
 3922              		.size	mc_interface_adc_inj_int_handler, .-mc_interface_adc_inj_int_handler
 3923              		.global	ADC_curr_norm_value
 3924              		.global	ADC_Value
 3925              		.section	.bss.m_ignore_iterations,"aw",%nobits
 3926              		.align	2
 3927              		.set	.LANCHOR13,. + 0
 3928              		.type	m_ignore_iterations, %object
 3929              		.size	m_ignore_iterations, 4
 3930              	m_ignore_iterations:
 3931 0000 00000000 		.space	4
 3932              		.section	.bss.curr_diff_samples.10495,"aw",%nobits
 3933              		.align	2
ARM GAS  /var/folders/47/g7cdn6zj55s1hhv4njp6x8_h0000gn/T//cc224n80.s 			page 70


 3934              		.set	.LANCHOR39,. + 0
 3935              		.type	curr_diff_samples.10495, %object
 3936              		.size	curr_diff_samples.10495, 4
 3937              	curr_diff_samples.10495:
 3938 0000 00000000 		.space	4
 3939              		.section	.bss.m_f_sw_samples,"aw",%nobits
 3940              		.align	2
 3941              		.set	.LANCHOR10,. + 0
 3942              		.type	m_f_sw_samples, %object
 3943              		.size	m_f_sw_samples, 4000
 3944              	m_f_sw_samples:
 3945 0000 00000000 		.space	4000
 3945      00000000 
 3945      00000000 
 3945      00000000 
 3945      00000000 
 3946              		.section	.bss.m_sample_int,"aw",%nobits
 3947              		.align	2
 3948              		.set	.LANCHOR27,. + 0
 3949              		.type	m_sample_int, %object
 3950              		.size	m_sample_int, 4
 3951              	m_sample_int:
 3952 0000 00000000 		.space	4
 3953              		.section	.bss.m_watt_seconds_charged,"aw",%nobits
 3954              		.align	2
 3955              		.set	.LANCHOR24,. + 0
 3956              		.type	m_watt_seconds_charged, %object
 3957              		.size	m_watt_seconds_charged, 4
 3958              	m_watt_seconds_charged:
 3959 0000 00000000 		.space	4
 3960              		.section	.bss.ADC_curr_norm_value,"aw",%nobits
 3961              		.align	2
 3962              		.set	.LANCHOR41,. + 0
 3963              		.type	ADC_curr_norm_value, %object
 3964              		.size	ADC_curr_norm_value, 12
 3965              	ADC_curr_norm_value:
 3966 0000 00000000 		.space	12
 3966      00000000 
 3966      00000000 
 3967              		.section	.bss.m_position_set,"aw",%nobits
 3968              		.align	2
 3969              		.set	.LANCHOR25,. + 0
 3970              		.type	m_position_set, %object
 3971              		.size	m_position_set, 4
 3972              	m_position_set:
 3973 0000 00000000 		.space	4
 3974              		.section	.bss.m_lock_override_once,"aw",%nobits
 3975              		.set	.LANCHOR16,. + 0
 3976              		.type	m_lock_override_once, %object
 3977              		.size	m_lock_override_once, 1
 3978              	m_lock_override_once:
 3979 0000 00       		.space	1
 3980              		.section	.bss.m_ph1_samples,"aw",%nobits
 3981              		.align	2
 3982              		.set	.LANCHOR4,. + 0
 3983              		.type	m_ph1_samples, %object
 3984              		.size	m_ph1_samples, 4000
ARM GAS  /var/folders/47/g7cdn6zj55s1hhv4njp6x8_h0000gn/T//cc224n80.s 			page 71


 3985              	m_ph1_samples:
 3986 0000 00000000 		.space	4000
 3986      00000000 
 3986      00000000 
 3986      00000000 
 3986      00000000 
 3987              		.section	.bss.ADC_Value,"aw",%nobits
 3988              		.align	2
 3989              		.set	.LANCHOR36,. + 0
 3990              		.type	ADC_Value, %object
 3991              		.size	ADC_Value, 24
 3992              	ADC_Value:
 3993 0000 00000000 		.space	24
 3993      00000000 
 3993      00000000 
 3993      00000000 
 3993      00000000 
 3994              		.section	.bss.m_motor_current_iterations,"aw",%nobits
 3995              		.align	2
 3996              		.set	.LANCHOR19,. + 0
 3997              		.type	m_motor_current_iterations, %object
 3998              		.size	m_motor_current_iterations, 4
 3999              	m_motor_current_iterations:
 4000 0000 00000000 		.space	4
 4001              		.section	.bss.m_last_adc_duration_sample,"aw",%nobits
 4002              		.align	2
 4003              		.set	.LANCHOR26,. + 0
 4004              		.type	m_last_adc_duration_sample, %object
 4005              		.size	m_last_adc_duration_sample, 4
 4006              	m_last_adc_duration_sample:
 4007 0000 00000000 		.space	4
 4008              		.section	.bss.a.10496,"aw",%nobits
 4009              		.align	2
 4010              		.set	.LANCHOR40,. + 0
 4011              		.type	a.10496, %object
 4012              		.size	a.10496, 4
 4013              	a.10496:
 4014 0000 00000000 		.space	4
 4015              		.section	.bss.m_amp_seconds_charged,"aw",%nobits
 4016              		.align	2
 4017              		.set	.LANCHOR22,. + 0
 4018              		.type	m_amp_seconds_charged, %object
 4019              		.size	m_amp_seconds_charged, 4
 4020              	m_amp_seconds_charged:
 4021 0000 00000000 		.space	4
 4022              		.section	.bss.pwn_done_func,"aw",%nobits
 4023              		.align	2
 4024              		.set	.LANCHOR34,. + 0
 4025              		.type	pwn_done_func, %object
 4026              		.size	pwn_done_func, 4
 4027              	pwn_done_func:
 4028 0000 00000000 		.space	4
 4029              		.section	.bss.m_input_current_sum,"aw",%nobits
 4030              		.align	2
 4031              		.set	.LANCHOR18,. + 0
 4032              		.type	m_input_current_sum, %object
 4033              		.size	m_input_current_sum, 4
ARM GAS  /var/folders/47/g7cdn6zj55s1hhv4njp6x8_h0000gn/T//cc224n80.s 			page 72


 4034              	m_input_current_sum:
 4035 0000 00000000 		.space	4
 4036              		.section	.bss.m_vzero_samples,"aw",%nobits
 4037              		.align	2
 4038              		.set	.LANCHOR7,. + 0
 4039              		.type	m_vzero_samples, %object
 4040              		.size	m_vzero_samples, 4000
 4041              	m_vzero_samples:
 4042 0000 00000000 		.space	4000
 4042      00000000 
 4042      00000000 
 4042      00000000 
 4042      00000000 
 4043              		.section	.bss.m_sample_len,"aw",%nobits
 4044              		.align	2
 4045              		.set	.LANCHOR1,. + 0
 4046              		.type	m_sample_len, %object
 4047              		.size	m_sample_len, 4
 4048              	m_sample_len:
 4049 0000 00000000 		.space	4
 4050              		.section	.bss.m_conf,"aw",%nobits
 4051              		.align	2
 4052              		.set	.LANCHOR11,. + 0
 4053              		.type	m_conf, %object
 4054              		.size	m_conf, 308
 4055              	m_conf:
 4056 0000 00000000 		.space	308
 4056      00000000 
 4056      00000000 
 4056      00000000 
 4056      00000000 
 4057              		.section	.bss.m_fault_now,"aw",%nobits
 4058              		.set	.LANCHOR12,. + 0
 4059              		.type	m_fault_now, %object
 4060              		.size	m_fault_now, 1
 4061              	m_fault_now:
 4062 0000 00       		.space	1
 4063              		.section	.bss.curr_diff_sum.10494,"aw",%nobits
 4064              		.align	2
 4065              		.set	.LANCHOR38,. + 0
 4066              		.type	curr_diff_sum.10494, %object
 4067              		.size	curr_diff_sum.10494, 4
 4068              	curr_diff_sum.10494:
 4069 0000 00000000 		.space	4
 4070              		.section	.bss.m_curr0_samples,"aw",%nobits
 4071              		.align	2
 4072              		.set	.LANCHOR2,. + 0
 4073              		.type	m_curr0_samples, %object
 4074              		.size	m_curr0_samples, 4000
 4075              	m_curr0_samples:
 4076 0000 00000000 		.space	4000
 4076      00000000 
 4076      00000000 
 4076      00000000 
 4076      00000000 
 4077              		.section	.bss.sample_send_tp,"aw",%nobits
 4078              		.align	2
ARM GAS  /var/folders/47/g7cdn6zj55s1hhv4njp6x8_h0000gn/T//cc224n80.s 			page 73


 4079              		.set	.LANCHOR0,. + 0
 4080              		.type	sample_send_tp, %object
 4081              		.size	sample_send_tp, 4
 4082              	sample_send_tp:
 4083 0000 00000000 		.space	4
 4084              		.section	.rodata.str1.4,"aMS",%progbits,1
 4085              		.align	2
 4086              	.LC0:
 4087 0000 53616D70 		.ascii	"SampleSender\000"
 4087      6C655365 
 4087      6E646572 
 4087      00
 4088 000d 000000   		.space	3
 4089              	.LC1:
 4090 0010 4641554C 		.ascii	"FAULT_UNKNOWN\000"
 4090      545F554E 
 4090      4B4E4F57 
 4090      4E00
 4091 001e 0000     		.space	2
 4092              	.LC2:
 4093 0020 6D636966 		.ascii	"mcif timer\000"
 4093      2074696D 
 4093      657200
 4094 002b 00       		.space	1
 4095              	.LC3:
 4096 002c 4641554C 		.ascii	"FAULT_CODE_NONE\000"
 4096      545F434F 
 4096      44455F4E 
 4096      4F4E4500 
 4097              	.LC4:
 4098 003c 4641554C 		.ascii	"FAULT_CODE_OVER_VOLTAGE\000"
 4098      545F434F 
 4098      44455F4F 
 4098      5645525F 
 4098      564F4C54 
 4099              	.LC5:
 4100 0054 4641554C 		.ascii	"FAULT_CODE_UNDER_VOLTAGE\000"
 4100      545F434F 
 4100      44455F55 
 4100      4E444552 
 4100      5F564F4C 
 4101 006d 000000   		.space	3
 4102              	.LC6:
 4103 0070 4641554C 		.ascii	"FAULT_CODE_DRV8302\000"
 4103      545F434F 
 4103      44455F44 
 4103      52563833 
 4103      303200
 4104 0083 00       		.space	1
 4105              	.LC7:
 4106 0084 4641554C 		.ascii	"FAULT_CODE_ABS_OVER_CURRENT\000"
 4106      545F434F 
 4106      44455F41 
 4106      42535F4F 
 4106      5645525F 
 4107              	.LC8:
 4108 00a0 4641554C 		.ascii	"FAULT_CODE_OVER_TEMP_FET\000"
ARM GAS  /var/folders/47/g7cdn6zj55s1hhv4njp6x8_h0000gn/T//cc224n80.s 			page 74


 4108      545F434F 
 4108      44455F4F 
 4108      5645525F 
 4108      54454D50 
 4109 00b9 000000   		.space	3
 4110              	.LC9:
 4111 00bc 4641554C 		.ascii	"FAULT_CODE_OVER_TEMP_MOTOR\000"
 4111      545F434F 
 4111      44455F4F 
 4111      5645525F 
 4111      54454D50 
 4112              		.section	.bss.m_cycles_running,"aw",%nobits
 4113              		.align	2
 4114              		.set	.LANCHOR14,. + 0
 4115              		.type	m_cycles_running, %object
 4116              		.size	m_cycles_running, 4
 4117              	m_cycles_running:
 4118 0000 00000000 		.space	4
 4119              		.section	.bss.m_sample_ready,"aw",%nobits
 4120              		.align	2
 4121              		.set	.LANCHOR28,. + 0
 4122              		.type	m_sample_ready, %object
 4123              		.size	m_sample_ready, 4
 4124              	m_sample_ready:
 4125 0000 00000000 		.space	4
 4126              		.section	.bss.m_ph2_samples,"aw",%nobits
 4127              		.align	2
 4128              		.set	.LANCHOR5,. + 0
 4129              		.type	m_ph2_samples, %object
 4130              		.size	m_ph2_samples, 4000
 4131              	m_ph2_samples:
 4132 0000 00000000 		.space	4000
 4132      00000000 
 4132      00000000 
 4132      00000000 
 4132      00000000 
 4133              		.section	.bss.m_motor_current_sum,"aw",%nobits
 4134              		.align	2
 4135              		.set	.LANCHOR17,. + 0
 4136              		.type	m_motor_current_sum, %object
 4137              		.size	m_motor_current_sum, 4
 4138              	m_motor_current_sum:
 4139 0000 00000000 		.space	4
 4140              		.section	.bss.m_input_current_iterations,"aw",%nobits
 4141              		.align	2
 4142              		.set	.LANCHOR20,. + 0
 4143              		.type	m_input_current_iterations, %object
 4144              		.size	m_input_current_iterations, 4
 4145              	m_input_current_iterations:
 4146 0000 00000000 		.space	4
 4147              		.section	.bss.m_amp_seconds,"aw",%nobits
 4148              		.align	2
 4149              		.set	.LANCHOR21,. + 0
 4150              		.type	m_amp_seconds, %object
 4151              		.size	m_amp_seconds, 4
 4152              	m_amp_seconds:
 4153 0000 00000000 		.space	4
ARM GAS  /var/folders/47/g7cdn6zj55s1hhv4njp6x8_h0000gn/T//cc224n80.s 			page 75


 4154              		.section	.bss.sample_send_thread_wa,"aw",%nobits
 4155              		.align	3
 4156              		.set	.LANCHOR33,. + 0
 4157              		.type	sample_send_thread_wa, %object
 4158              		.size	sample_send_thread_wa, 1432
 4159              	sample_send_thread_wa:
 4160 0000 00000000 		.space	1432
 4160      00000000 
 4160      00000000 
 4160      00000000 
 4160      00000000 
 4161              		.section	.bss.m_curr_fir_samples,"aw",%nobits
 4162              		.align	2
 4163              		.set	.LANCHOR9,. + 0
 4164              		.type	m_curr_fir_samples, %object
 4165              		.size	m_curr_fir_samples, 4000
 4166              	m_curr_fir_samples:
 4167 0000 00000000 		.space	4000
 4167      00000000 
 4167      00000000 
 4167      00000000 
 4167      00000000 
 4168              		.section	.bss.m_sample_now,"aw",%nobits
 4169              		.align	2
 4170              		.set	.LANCHOR29,. + 0
 4171              		.type	m_sample_now, %object
 4172              		.size	m_sample_now, 4
 4173              	m_sample_now:
 4174 0000 00000000 		.space	4
 4175              		.section	.bss.m_status_samples,"aw",%nobits
 4176              		.align	2
 4177              		.set	.LANCHOR8,. + 0
 4178              		.type	m_status_samples, %object
 4179              		.size	m_status_samples, 2000
 4180              	m_status_samples:
 4181 0000 00000000 		.space	2000
 4181      00000000 
 4181      00000000 
 4181      00000000 
 4181      00000000 
 4182              		.section	.bss.m_lock_enabled,"aw",%nobits
 4183              		.set	.LANCHOR15,. + 0
 4184              		.type	m_lock_enabled, %object
 4185              		.size	m_lock_enabled, 1
 4186              	m_lock_enabled:
 4187 0000 00       		.space	1
 4188              		.section	.bss.m_start_comm,"aw",%nobits
 4189              		.align	2
 4190              		.set	.LANCHOR31,. + 0
 4191              		.type	m_start_comm, %object
 4192              		.size	m_start_comm, 4
 4193              	m_start_comm:
 4194 0000 00000000 		.space	4
 4195              		.section	.bss.m_watt_seconds,"aw",%nobits
 4196              		.align	2
 4197              		.set	.LANCHOR23,. + 0
 4198              		.type	m_watt_seconds, %object
ARM GAS  /var/folders/47/g7cdn6zj55s1hhv4njp6x8_h0000gn/T//cc224n80.s 			page 76


 4199              		.size	m_watt_seconds, 4
 4200              	m_watt_seconds:
 4201 0000 00000000 		.space	4
 4202              		.section	.bss.m_curr1_samples,"aw",%nobits
 4203              		.align	2
 4204              		.set	.LANCHOR3,. + 0
 4205              		.type	m_curr1_samples, %object
 4206              		.size	m_curr1_samples, 4000
 4207              	m_curr1_samples:
 4208 0000 00000000 		.space	4000
 4208      00000000 
 4208      00000000 
 4208      00000000 
 4208      00000000 
 4209              		.section	.bss.m_sample_at_start,"aw",%nobits
 4210              		.align	2
 4211              		.set	.LANCHOR30,. + 0
 4212              		.type	m_sample_at_start, %object
 4213              		.size	m_sample_at_start, 4
 4214              	m_sample_at_start:
 4215 0000 00000000 		.space	4
 4216              		.section	.rodata.CSWTCH.124,"a",%progbits
 4217              		.align	2
 4218              		.set	.LANCHOR35,. + 0
 4219              		.type	CSWTCH.124, %object
 4220              		.size	CSWTCH.124, 28
 4221              	CSWTCH.124:
 4222 0000 2C000000 		.word	.LC3
 4223 0004 3C000000 		.word	.LC4
 4224 0008 54000000 		.word	.LC5
 4225 000c 70000000 		.word	.LC6
 4226 0010 84000000 		.word	.LC7
 4227 0014 A0000000 		.word	.LC8
 4228 0018 BC000000 		.word	.LC9
 4229              		.section	.bss.timer_thread_wa,"aw",%nobits
 4230              		.align	3
 4231              		.set	.LANCHOR32,. + 0
 4232              		.type	timer_thread_wa, %object
 4233              		.size	timer_thread_wa, 1432
 4234              	timer_thread_wa:
 4235 0000 00000000 		.space	1432
 4235      00000000 
 4235      00000000 
 4235      00000000 
 4235      00000000 
 4236              		.section	.bss.wrong_voltage_iterations.10488,"aw",%nobits
 4237              		.align	2
 4238              		.set	.LANCHOR37,. + 0
 4239              		.type	wrong_voltage_iterations.10488, %object
 4240              		.size	wrong_voltage_iterations.10488, 4
 4241              	wrong_voltage_iterations.10488:
 4242 0000 00000000 		.space	4
 4243              		.section	.bss.m_ph3_samples,"aw",%nobits
 4244              		.align	2
 4245              		.set	.LANCHOR6,. + 0
 4246              		.type	m_ph3_samples, %object
 4247              		.size	m_ph3_samples, 4000
ARM GAS  /var/folders/47/g7cdn6zj55s1hhv4njp6x8_h0000gn/T//cc224n80.s 			page 77


 4248              	m_ph3_samples:
 4249 0000 00000000 		.space	4000
 4249      00000000 
 4249      00000000 
 4249      00000000 
 4249      00000000 
 4250              		.text
 4251              	.Letext0:
 4252              		.file 4 "/usr/local/Cellar/arm-none-eabi-gcc/20150921/arm-none-eabi/include/machine/_default_types
 4253              		.file 5 "/usr/local/Cellar/arm-none-eabi-gcc/20150921/arm-none-eabi/include/sys/_stdint.h"
 4254              		.file 6 "/usr/local/Cellar/arm-none-eabi-gcc/20150921/lib/gcc/arm-none-eabi/4.9.3/include/stddef.h
 4255              		.file 7 "ChibiOS_3.0.2/os/rt/ports/ARMCMx/compilers/GCC/chtypes.h"
 4256              		.file 8 "ChibiOS_3.0.2/os/rt/include/chsystypes.h"
 4257              		.file 9 "ChibiOS_3.0.2/os/rt/include/chschd.h"
 4258              		.file 10 "ChibiOS_3.0.2/os/ext/CMSIS/ST/stm32f407xx.h"
 4259              		.file 11 "ChibiOS_3.0.2/os/rt/ports/ARMCMx/chcore.h"
 4260              		.file 12 "ChibiOS_3.0.2/os/rt/ports/ARMCMx/chcore_v7m.h"
 4261              		.file 13 "ChibiOS_3.0.2/os/rt/include/chtm.h"
 4262              		.file 14 "ChibiOS_3.0.2/os/rt/include/chsem.h"
 4263              		.file 15 "ChibiOS_3.0.2/os/rt/include/chmtx.h"
 4264              		.file 16 "ChibiOS_3.0.2/os/rt/include/chthreads.h"
 4265              		.file 17 "datatypes.h"
 4266              		.file 18 "ChibiOS_3.0.2/os/hal/ports/STM32/LLD/GPIOv2/pal_lld.h"
 4267              		.file 19 "ChibiOS_3.0.2/os/rt/include/chsys.h"
 4268              		.file 20 "ChibiOS_3.0.2/os/ext/CMSIS/include/core_cm4.h"
 4269              		.file 21 "mcpwm.h"
 4270              		.file 22 "commands.h"
 4271              		.file 23 "ChibiOS_3.0.2/os/rt/include/chevents.h"
 4272              		.file 24 "mcpwm_foc.h"
 4273              		.file 25 "encoder.h"
 4274              		.file 26 "/usr/local/Cellar/arm-none-eabi-gcc/20150921/arm-none-eabi/include/math.h"
 4275              		.file 27 "terminal.h"
 4276              		.file 28 "utils.h"
 4277              		.file 29 "ledpwm.h"